
kernel.elf:     file format elf32-littlearm


Disassembly of section .text:

00008000 <_start>:
    8000:	e59ff018 	ldr	pc, [pc, #24]	; 8020 <reset_handler>
    8004:	e59ff018 	ldr	pc, [pc, #24]	; 8024 <undefined_handler>
    8008:	e59ff018 	ldr	pc, [pc, #24]	; 8028 <swi_handler>
    800c:	e59ff018 	ldr	pc, [pc, #24]	; 802c <prefetch_handler>
    8010:	e59ff018 	ldr	pc, [pc, #24]	; 8030 <data_handler>
    8014:	e59ff018 	ldr	pc, [pc, #24]	; 8034 <unused_handler>
    8018:	e59ff018 	ldr	pc, [pc, #24]	; 8038 <irq_handler>
    801c:	e59ff018 	ldr	pc, [pc, #24]	; 803c <fiq_handler>

00008020 <reset_handler>:
    8020:	00008040 	andeq	r8, r0, r0, asr #32

00008024 <undefined_handler>:
    8024:	00008084 	andeq	r8, r0, r4, lsl #1

00008028 <swi_handler>:
    8028:	00008088 	andeq	r8, r0, r8, lsl #1

0000802c <prefetch_handler>:
    802c:	0000808c 	andeq	r8, r0, ip, lsl #1

00008030 <data_handler>:
    8030:	00008090 	muleq	r0, r0, r0

00008034 <unused_handler>:
    8034:	00008094 	muleq	r0, r4, r0

00008038 <irq_handler>:
    8038:	000080cc 	andeq	r8, r0, ip, asr #1

0000803c <fiq_handler>:
    803c:	00008098 	muleq	r0, r8, r0

00008040 <reset>:
    8040:	e3a00902 	mov	r0, #32768	; 0x8000
    8044:	e3a01000 	mov	r1, #0
    8048:	e8b003fc 	ldm	r0!, {r2, r3, r4, r5, r6, r7, r8, r9}
    804c:	e8a103fc 	stmia	r1!, {r2, r3, r4, r5, r6, r7, r8, r9}
    8050:	e8b003fc 	ldm	r0!, {r2, r3, r4, r5, r6, r7, r8, r9}
    8054:	e8a103fc 	stmia	r1!, {r2, r3, r4, r5, r6, r7, r8, r9}
    8058:	e3a000d1 	mov	r0, #209	; 0xd1
    805c:	e121f000 	msr	CPSR_c, r0
    8060:	e3a0d90e 	mov	sp, #229376	; 0x38000
    8064:	e3a000d2 	mov	r0, #210	; 0xd2
    8068:	e121f000 	msr	CPSR_c, r0
    806c:	e3a0d701 	mov	sp, #262144	; 0x40000
    8070:	e3a000d3 	mov	r0, #211	; 0xd3
    8074:	e121f000 	msr	CPSR_c, r0
    8078:	e3a0d912 	mov	sp, #294912	; 0x48000
    807c:	eb000035 	bl	8158 <kmain>

00008080 <hang>:
    8080:	eafffffe 	b	8080 <hang>

00008084 <undefined>:
    8084:	eafffffe 	b	8084 <undefined>

00008088 <swi>:
    8088:	eafffffe 	b	8088 <swi>

0000808c <prefetch>:
    808c:	eafffffe 	b	808c <prefetch>

00008090 <data>:
    8090:	eafffffe 	b	8090 <data>

00008094 <unused>:
    8094:	eafffffe 	b	8094 <unused>

00008098 <fiq>:
    8098:	eafffffe 	b	8098 <fiq>

0000809c <PUT32>:
    809c:	e5801000 	str	r1, [r0]
    80a0:	e12fff1e 	bx	lr

000080a4 <PUT16>:
    80a4:	e1c010b0 	strh	r1, [r0]
    80a8:	e12fff1e 	bx	lr

000080ac <PUT8>:
    80ac:	e5c01000 	strb	r1, [r0]
    80b0:	e12fff1e 	bx	lr

000080b4 <GET32>:
    80b4:	e5900000 	ldr	r0, [r0]
    80b8:	e12fff1e 	bx	lr

000080bc <GETPC>:
    80bc:	e1a0000e 	mov	r0, lr
    80c0:	e12fff1e 	bx	lr

000080c4 <BRANCHTO>:
    80c4:	e12fff10 	bx	r0

000080c8 <dummy>:
    80c8:	e12fff1e 	bx	lr

000080cc <irq>:
    80cc:	ea0001e1 	b	8858 <ctx_switch_from_irq>

000080d0 <funcA>:
    80d0:	e52de004 	push	{lr}		; (str lr, [sp, #-4]!)
    80d4:	e24dd00c 	sub	sp, sp, #12
    80d8:	e3a03000 	mov	r3, #0
    80dc:	e58d3004 	str	r3, [sp, #4]
    80e0:	e59f3028 	ldr	r3, [pc, #40]	; 8110 <funcA+0x40>
    80e4:	e5933000 	ldr	r3, [r3]
    80e8:	e3530000 	cmp	r3, #0
    80ec:	1a000003 	bne	8100 <funcA+0x30>
    80f0:	eb0000ab 	bl	83a4 <led_on>
    80f4:	e59f3014 	ldr	r3, [pc, #20]	; 8110 <funcA+0x40>
    80f8:	e3a02001 	mov	r2, #1
    80fc:	e5832000 	str	r2, [r3]
    8100:	e59d3004 	ldr	r3, [sp, #4]
    8104:	e2833001 	add	r3, r3, #1
    8108:	e58d3004 	str	r3, [sp, #4]
    810c:	eafffff3 	b	80e0 <funcA+0x10>
    8110:	00008f78 	andeq	r8, r0, r8, ror pc

00008114 <funcB>:
    8114:	e52de004 	push	{lr}		; (str lr, [sp, #-4]!)
    8118:	e24dd00c 	sub	sp, sp, #12
    811c:	e3a03001 	mov	r3, #1
    8120:	e58d3004 	str	r3, [sp, #4]
    8124:	e59f3028 	ldr	r3, [pc, #40]	; 8154 <funcB+0x40>
    8128:	e5933000 	ldr	r3, [r3]
    812c:	e3530000 	cmp	r3, #0
    8130:	0a000003 	beq	8144 <funcB+0x30>
    8134:	eb000094 	bl	838c <led_off>
    8138:	e59f3014 	ldr	r3, [pc, #20]	; 8154 <funcB+0x40>
    813c:	e3a02000 	mov	r2, #0
    8140:	e5832000 	str	r2, [r3]
    8144:	e59d3004 	ldr	r3, [sp, #4]
    8148:	e2833002 	add	r3, r3, #2
    814c:	e58d3004 	str	r3, [sp, #4]
    8150:	eafffff3 	b	8124 <funcB+0x10>
    8154:	00008f78 	andeq	r8, r0, r8, ror pc

00008158 <kmain>:
    8158:	e52de004 	push	{lr}		; (str lr, [sp, #-4]!)
    815c:	e24dd00c 	sub	sp, sp, #12
    8160:	eb000095 	bl	83bc <init_hw>
    8164:	eb0001ee 	bl	8924 <heap_init>
    8168:	e3a03001 	mov	r3, #1
    816c:	e58d3000 	str	r3, [sp]
    8170:	e59f0030 	ldr	r0, [pc, #48]	; 81a8 <kmain+0x50>
    8174:	e3a01000 	mov	r1, #0
    8178:	e3a02c02 	mov	r2, #512	; 0x200
    817c:	e3a03002 	mov	r3, #2
    8180:	eb00010b 	bl	85b4 <create_process>
    8184:	e3a03001 	mov	r3, #1
    8188:	e58d3000 	str	r3, [sp]
    818c:	e59f0018 	ldr	r0, [pc, #24]	; 81ac <kmain+0x54>
    8190:	e3a01000 	mov	r1, #0
    8194:	e3a02c02 	mov	r2, #512	; 0x200
    8198:	e3a03003 	mov	r3, #3
    819c:	eb000104 	bl	85b4 <create_process>
    81a0:	eb000162 	bl	8730 <start_sched>
    81a4:	eafffffe 	b	81a4 <kmain+0x4c>
    81a8:	00008114 	andeq	r8, r0, r4, lsl r1
    81ac:	000080d0 	ldrdeq	r8, [r0], -r0

000081b0 <phyAlloc_alloc>:
    81b0:	e92d0030 	push	{r4, r5}
    81b4:	e24dd008 	sub	sp, sp, #8
    81b8:	e58d0004 	str	r0, [sp, #4]
    81bc:	e59f3094 	ldr	r3, [pc, #148]	; 8258 <phyAlloc_alloc+0xa8>
    81c0:	e5934000 	ldr	r4, [r3]
    81c4:	e59f508c 	ldr	r5, [pc, #140]	; 8258 <phyAlloc_alloc+0xa8>
    81c8:	ea000001 	b	81d4 <phyAlloc_alloc+0x24>
    81cc:	e1a05004 	mov	r5, r4
    81d0:	e5944000 	ldr	r4, [r4]
    81d4:	e3540000 	cmp	r4, #0
    81d8:	0a000003 	beq	81ec <phyAlloc_alloc+0x3c>
    81dc:	e5942004 	ldr	r2, [r4, #4]
    81e0:	e59d3004 	ldr	r3, [sp, #4]
    81e4:	e1520003 	cmp	r2, r3
    81e8:	3afffff7 	bcc	81cc <phyAlloc_alloc+0x1c>
    81ec:	e3540000 	cmp	r4, #0
    81f0:	1a000011 	bne	823c <phyAlloc_alloc+0x8c>
    81f4:	e59f3060 	ldr	r3, [pc, #96]	; 825c <phyAlloc_alloc+0xac>
    81f8:	e5934000 	ldr	r4, [r3]
    81fc:	e59f3058 	ldr	r3, [pc, #88]	; 825c <phyAlloc_alloc+0xac>
    8200:	e5932000 	ldr	r2, [r3]
    8204:	e59d3004 	ldr	r3, [sp, #4]
    8208:	e2833003 	add	r3, r3, #3
    820c:	e3c33003 	bic	r3, r3, #3
    8210:	e0822003 	add	r2, r2, r3
    8214:	e59f3040 	ldr	r3, [pc, #64]	; 825c <phyAlloc_alloc+0xac>
    8218:	e5832000 	str	r2, [r3]
    821c:	e59f3038 	ldr	r3, [pc, #56]	; 825c <phyAlloc_alloc+0xac>
    8220:	e5932000 	ldr	r2, [r3]
    8224:	e59f3034 	ldr	r3, [pc, #52]	; 8260 <phyAlloc_alloc+0xb0>
    8228:	e5933000 	ldr	r3, [r3]
    822c:	e1520003 	cmp	r2, r3
    8230:	9a000003 	bls	8244 <phyAlloc_alloc+0x94>
    8234:	e3a03000 	mov	r3, #0
    8238:	ea000002 	b	8248 <phyAlloc_alloc+0x98>
    823c:	e5943000 	ldr	r3, [r4]
    8240:	e5853000 	str	r3, [r5]
    8244:	e1a03004 	mov	r3, r4
    8248:	e1a00003 	mov	r0, r3
    824c:	e28dd008 	add	sp, sp, #8
    8250:	e8bd0030 	pop	{r4, r5}
    8254:	e12fff1e 	bx	lr
    8258:	00008f54 	andeq	r8, r0, r4, asr pc
    825c:	00008f58 	andeq	r8, r0, r8, asr pc
    8260:	00008f5c 	andeq	r8, r0, ip, asr pc

00008264 <phyAlloc_free>:
    8264:	e52d4004 	push	{r4}		; (str r4, [sp, #-4]!)
    8268:	e24dd00c 	sub	sp, sp, #12
    826c:	e58d0004 	str	r0, [sp, #4]
    8270:	e58d1000 	str	r1, [sp]
    8274:	e59d4004 	ldr	r4, [sp, #4]
    8278:	e59d3000 	ldr	r3, [sp]
    827c:	e2833003 	add	r3, r3, #3
    8280:	e3c33003 	bic	r3, r3, #3
    8284:	e5843004 	str	r3, [r4, #4]
    8288:	e59f3018 	ldr	r3, [pc, #24]	; 82a8 <phyAlloc_free+0x44>
    828c:	e5933000 	ldr	r3, [r3]
    8290:	e5843000 	str	r3, [r4]
    8294:	e59f300c 	ldr	r3, [pc, #12]	; 82a8 <phyAlloc_free+0x44>
    8298:	e5834000 	str	r4, [r3]
    829c:	e28dd00c 	add	sp, sp, #12
    82a0:	e8bd0010 	pop	{r4}
    82a4:	e12fff1e 	bx	lr
    82a8:	00008f54 	andeq	r8, r0, r4, asr pc

000082ac <phyAlloc_init>:
    82ac:	e24dd008 	sub	sp, sp, #8
    82b0:	e58d0004 	str	r0, [sp, #4]
    82b4:	e58d1000 	str	r1, [sp]
    82b8:	e59f3020 	ldr	r3, [pc, #32]	; 82e0 <phyAlloc_init+0x34>
    82bc:	e59d2004 	ldr	r2, [sp, #4]
    82c0:	e5832000 	str	r2, [r3]
    82c4:	e59d2004 	ldr	r2, [sp, #4]
    82c8:	e59d3000 	ldr	r3, [sp]
    82cc:	e0822003 	add	r2, r2, r3
    82d0:	e59f300c 	ldr	r3, [pc, #12]	; 82e4 <phyAlloc_init+0x38>
    82d4:	e5832000 	str	r2, [r3]
    82d8:	e28dd008 	add	sp, sp, #8
    82dc:	e12fff1e 	bx	lr
    82e0:	00008f58 	andeq	r8, r0, r8, asr pc
    82e4:	00008f5c 	andeq	r8, r0, ip, asr pc

000082e8 <set_tick_and_enable_timer>:
    82e8:	e52de004 	push	{lr}		; (str lr, [sp, #-4]!)
    82ec:	e24dd00c 	sub	sp, sp, #12
    82f0:	e59f0030 	ldr	r0, [pc, #48]	; 8328 <set_tick_and_enable_timer+0x40>
    82f4:	ebffff6e 	bl	80b4 <GET32>
    82f8:	e58d0004 	str	r0, [sp, #4]
    82fc:	e59d3004 	ldr	r3, [sp, #4]
    8300:	e2833702 	add	r3, r3, #524288	; 0x80000
    8304:	e58d3004 	str	r3, [sp, #4]
    8308:	e59f001c 	ldr	r0, [pc, #28]	; 832c <set_tick_and_enable_timer+0x44>
    830c:	e59d1004 	ldr	r1, [sp, #4]
    8310:	ebffff61 	bl	809c <PUT32>
    8314:	e59f0014 	ldr	r0, [pc, #20]	; 8330 <set_tick_and_enable_timer+0x48>
    8318:	e3a01002 	mov	r1, #2
    831c:	ebffff5e 	bl	809c <PUT32>
    8320:	e28dd00c 	add	sp, sp, #12
    8324:	e8bd8000 	pop	{pc}
    8328:	20003004 	andcs	r3, r0, r4
    832c:	20003010 	andcs	r3, r0, r0, lsl r0
    8330:	20003000 	andcs	r3, r0, r0

00008334 <set_tick_and_enable_timer_priority>:
    8334:	e52de004 	push	{lr}		; (str lr, [sp, #-4]!)
    8338:	e24dd014 	sub	sp, sp, #20
    833c:	e58d0004 	str	r0, [sp, #4]
    8340:	e59f0038 	ldr	r0, [pc, #56]	; 8380 <set_tick_and_enable_timer_priority+0x4c>
    8344:	ebffff5a 	bl	80b4 <GET32>
    8348:	e58d000c 	str	r0, [sp, #12]
    834c:	e59d3004 	ldr	r3, [sp, #4]
    8350:	e1a03983 	lsl	r3, r3, #19
    8354:	e59d200c 	ldr	r2, [sp, #12]
    8358:	e0823003 	add	r3, r2, r3
    835c:	e58d300c 	str	r3, [sp, #12]
    8360:	e59f001c 	ldr	r0, [pc, #28]	; 8384 <set_tick_and_enable_timer_priority+0x50>
    8364:	e59d100c 	ldr	r1, [sp, #12]
    8368:	ebffff4b 	bl	809c <PUT32>
    836c:	e59f0014 	ldr	r0, [pc, #20]	; 8388 <set_tick_and_enable_timer_priority+0x54>
    8370:	e3a01002 	mov	r1, #2
    8374:	ebffff48 	bl	809c <PUT32>
    8378:	e28dd014 	add	sp, sp, #20
    837c:	e8bd8000 	pop	{pc}
    8380:	20003004 	andcs	r3, r0, r4
    8384:	20003010 	andcs	r3, r0, r0, lsl r0
    8388:	20003000 	andcs	r3, r0, r0

0000838c <led_off>:
    838c:	e92d4008 	push	{r3, lr}
    8390:	e59f0008 	ldr	r0, [pc, #8]	; 83a0 <led_off+0x14>
    8394:	e3a01801 	mov	r1, #65536	; 0x10000
    8398:	ebffff3f 	bl	809c <PUT32>
    839c:	e8bd8008 	pop	{r3, pc}
    83a0:	2020001c 	eorcs	r0, r0, ip, lsl r0

000083a4 <led_on>:
    83a4:	e92d4008 	push	{r3, lr}
    83a8:	e59f0008 	ldr	r0, [pc, #8]	; 83b8 <led_on+0x14>
    83ac:	e3a01801 	mov	r1, #65536	; 0x10000
    83b0:	ebffff39 	bl	809c <PUT32>
    83b4:	e8bd8008 	pop	{r3, pc}
    83b8:	20200028 	eorcs	r0, r0, r8, lsr #32

000083bc <init_hw>:
    83bc:	e52de004 	push	{lr}		; (str lr, [sp, #-4]!)
    83c0:	e24dd00c 	sub	sp, sp, #12
    83c4:	e59f0098 	ldr	r0, [pc, #152]	; 8464 <init_hw+0xa8>
    83c8:	ebffff39 	bl	80b4 <GET32>
    83cc:	e58d0004 	str	r0, [sp, #4]
    83d0:	e59d3004 	ldr	r3, [sp, #4]
    83d4:	e3c33707 	bic	r3, r3, #1835008	; 0x1c0000
    83d8:	e58d3004 	str	r3, [sp, #4]
    83dc:	e59d3004 	ldr	r3, [sp, #4]
    83e0:	e3833701 	orr	r3, r3, #262144	; 0x40000
    83e4:	e58d3004 	str	r3, [sp, #4]
    83e8:	e59f0074 	ldr	r0, [pc, #116]	; 8464 <init_hw+0xa8>
    83ec:	e59d1004 	ldr	r1, [sp, #4]
    83f0:	ebffff29 	bl	809c <PUT32>
    83f4:	e59f006c 	ldr	r0, [pc, #108]	; 8468 <init_hw+0xac>
    83f8:	e3a01801 	mov	r1, #65536	; 0x10000
    83fc:	ebffff26 	bl	809c <PUT32>
    8400:	e59f0064 	ldr	r0, [pc, #100]	; 846c <init_hw+0xb0>
    8404:	ebffff2a 	bl	80b4 <GET32>
    8408:	e58d0000 	str	r0, [sp]
    840c:	e59d3000 	ldr	r3, [sp]
    8410:	e2833702 	add	r3, r3, #524288	; 0x80000
    8414:	e58d3000 	str	r3, [sp]
    8418:	e59f0050 	ldr	r0, [pc, #80]	; 8470 <init_hw+0xb4>
    841c:	e59d1000 	ldr	r1, [sp]
    8420:	ebffff1d 	bl	809c <PUT32>
    8424:	e59f0048 	ldr	r0, [pc, #72]	; 8474 <init_hw+0xb8>
    8428:	e3a01002 	mov	r1, #2
    842c:	ebffff1a 	bl	809c <PUT32>
    8430:	e59f0040 	ldr	r0, [pc, #64]	; 8478 <init_hw+0xbc>
    8434:	e3a01002 	mov	r1, #2
    8438:	ebffff17 	bl	809c <PUT32>
    843c:	e92d0001 	push	{r0}
    8440:	e10f0000 	mrs	r0, CPSR
    8444:	e3800080 	orr	r0, r0, #128	; 0x80
    8448:	e121f000 	msr	CPSR_c, r0
    844c:	e8bd0001 	pop	{r0}
    8450:	e3a00805 	mov	r0, #327680	; 0x50000
    8454:	e3a01a32 	mov	r1, #204800	; 0x32000
    8458:	ebffff93 	bl	82ac <phyAlloc_init>
    845c:	e28dd00c 	add	sp, sp, #12
    8460:	e8bd8000 	pop	{pc}
    8464:	20200004 	eorcs	r0, r0, r4
    8468:	2020001c 	eorcs	r0, r0, ip, lsl r0
    846c:	20003004 	andcs	r3, r0, r4
    8470:	20003010 	andcs	r3, r0, r0, lsl r0
    8474:	20003000 	andcs	r3, r0, r0
    8478:	2000b210 	andcs	fp, r0, r0, lsl r2

0000847c <init_ctx>:
    847c:	e52de004 	push	{lr}		; (str lr, [sp, #-4]!)
    8480:	e24dd014 	sub	sp, sp, #20
    8484:	e58d000c 	str	r0, [sp, #12]
    8488:	e58d1008 	str	r1, [sp, #8]
    848c:	e58d2004 	str	r2, [sp, #4]
    8490:	e59d0004 	ldr	r0, [sp, #4]
    8494:	ebffff45 	bl	81b0 <phyAlloc_alloc>
    8498:	e1a02000 	mov	r2, r0
    849c:	e59d300c 	ldr	r3, [sp, #12]
    84a0:	e5832000 	str	r2, [r3]
    84a4:	e59d300c 	ldr	r3, [sp, #12]
    84a8:	e5932000 	ldr	r2, [r3]
    84ac:	e59d3004 	ldr	r3, [sp, #4]
    84b0:	e1a03103 	lsl	r3, r3, #2
    84b4:	e0822003 	add	r2, r2, r3
    84b8:	e59d300c 	ldr	r3, [sp, #12]
    84bc:	e5832000 	str	r2, [r3]
    84c0:	e59d300c 	ldr	r3, [sp, #12]
    84c4:	e5933000 	ldr	r3, [r3]
    84c8:	e2432004 	sub	r2, r3, #4
    84cc:	e59d300c 	ldr	r3, [sp, #12]
    84d0:	e5832000 	str	r2, [r3]
    84d4:	e59d300c 	ldr	r3, [sp, #12]
    84d8:	e5933000 	ldr	r3, [r3]
    84dc:	e3a02053 	mov	r2, #83	; 0x53
    84e0:	e5832000 	str	r2, [r3]
    84e4:	e59d300c 	ldr	r3, [sp, #12]
    84e8:	e5933000 	ldr	r3, [r3]
    84ec:	e2432004 	sub	r2, r3, #4
    84f0:	e59d300c 	ldr	r3, [sp, #12]
    84f4:	e5832000 	str	r2, [r3]
    84f8:	e59d300c 	ldr	r3, [sp, #12]
    84fc:	e5933000 	ldr	r3, [r3]
    8500:	e59f2028 	ldr	r2, [pc, #40]	; 8530 <init_ctx+0xb4>
    8504:	e5832000 	str	r2, [r3]
    8508:	e59d300c 	ldr	r3, [sp, #12]
    850c:	e5933000 	ldr	r3, [r3]
    8510:	e2432034 	sub	r2, r3, #52	; 0x34
    8514:	e59d300c 	ldr	r3, [sp, #12]
    8518:	e5832000 	str	r2, [r3]
    851c:	e59d300c 	ldr	r3, [sp, #12]
    8520:	e59d2008 	ldr	r2, [sp, #8]
    8524:	e5832004 	str	r2, [r3, #4]
    8528:	e28dd014 	add	sp, sp, #20
    852c:	e8bd8000 	pop	{pc}
    8530:	00008640 	andeq	r8, r0, r0, asr #12

00008534 <init_pcb>:
    8534:	e52de004 	push	{lr}		; (str lr, [sp, #-4]!)
    8538:	e24dd014 	sub	sp, sp, #20
    853c:	e58d000c 	str	r0, [sp, #12]
    8540:	e58d1008 	str	r1, [sp, #8]
    8544:	e58d2004 	str	r2, [sp, #4]
    8548:	e58d3000 	str	r3, [sp]
    854c:	e3a00008 	mov	r0, #8
    8550:	ebffff16 	bl	81b0 <phyAlloc_alloc>
    8554:	e1a02000 	mov	r2, r0
    8558:	e59d300c 	ldr	r3, [sp, #12]
    855c:	e5832004 	str	r2, [r3, #4]
    8560:	e59d300c 	ldr	r3, [sp, #12]
    8564:	e5933004 	ldr	r3, [r3, #4]
    8568:	e1a00003 	mov	r0, r3
    856c:	e59f103c 	ldr	r1, [pc, #60]	; 85b0 <init_pcb+0x7c>
    8570:	e59d2004 	ldr	r2, [sp, #4]
    8574:	ebffffc0 	bl	847c <init_ctx>
    8578:	e59d300c 	ldr	r3, [sp, #12]
    857c:	e3a02001 	mov	r2, #1
    8580:	e5c32000 	strb	r2, [r3]
    8584:	e59d300c 	ldr	r3, [sp, #12]
    8588:	e59d2008 	ldr	r2, [sp, #8]
    858c:	e5832010 	str	r2, [r3, #16]
    8590:	e59d300c 	ldr	r3, [sp, #12]
    8594:	e59d2000 	ldr	r2, [sp]
    8598:	e5832014 	str	r2, [r3, #20]
    859c:	e59d300c 	ldr	r3, [sp, #12]
    85a0:	e59d2018 	ldr	r2, [sp, #24]
    85a4:	e5832018 	str	r2, [r3, #24]
    85a8:	e28dd014 	add	sp, sp, #20
    85ac:	e8bd8000 	pop	{pc}
    85b0:	00008640 	andeq	r8, r0, r0, asr #12

000085b4 <create_process>:
    85b4:	e52de004 	push	{lr}		; (str lr, [sp, #-4]!)
    85b8:	e24dd024 	sub	sp, sp, #36	; 0x24
    85bc:	e58d0014 	str	r0, [sp, #20]
    85c0:	e58d1010 	str	r1, [sp, #16]
    85c4:	e58d200c 	str	r2, [sp, #12]
    85c8:	e58d3008 	str	r3, [sp, #8]
    85cc:	e92d0001 	push	{r0}
    85d0:	e10f0000 	mrs	r0, CPSR
    85d4:	e3800080 	orr	r0, r0, #128	; 0x80
    85d8:	e121f000 	msr	CPSR_c, r0
    85dc:	e8bd0001 	pop	{r0}
    85e0:	e3a0001c 	mov	r0, #28
    85e4:	ebfffef1 	bl	81b0 <phyAlloc_alloc>
    85e8:	e58d001c 	str	r0, [sp, #28]
    85ec:	e59d3028 	ldr	r3, [sp, #40]	; 0x28
    85f0:	e58d3000 	str	r3, [sp]
    85f4:	e59d001c 	ldr	r0, [sp, #28]
    85f8:	e59d1014 	ldr	r1, [sp, #20]
    85fc:	e59d200c 	ldr	r2, [sp, #12]
    8600:	e59d3008 	ldr	r3, [sp, #8]
    8604:	ebffffca 	bl	8534 <init_pcb>
    8608:	e59f302c 	ldr	r3, [pc, #44]	; 863c <create_process+0x88>
    860c:	e5933000 	ldr	r3, [r3]
    8610:	e1a00003 	mov	r0, r3
    8614:	e59d101c 	ldr	r1, [sp, #28]
    8618:	eb0000d9 	bl	8984 <heap_push>
    861c:	ebffff31 	bl	82e8 <set_tick_and_enable_timer>
    8620:	e92d0001 	push	{r0}
    8624:	e10f0000 	mrs	r0, CPSR
    8628:	e3c00080 	bic	r0, r0, #128	; 0x80
    862c:	e121f000 	msr	CPSR_c, r0
    8630:	e8bd0001 	pop	{r0}
    8634:	e28dd024 	add	sp, sp, #36	; 0x24
    8638:	e8bd8000 	pop	{pc}
    863c:	00008f70 	andeq	r8, r0, r0, ror pc

00008640 <start_current_process>:
    8640:	e92d4008 	push	{r3, lr}
    8644:	e59f3020 	ldr	r3, [pc, #32]	; 866c <start_current_process+0x2c>
    8648:	e5933000 	ldr	r3, [r3]
    864c:	e5933010 	ldr	r3, [r3, #16]
    8650:	e12fff33 	blx	r3
    8654:	e59f3010 	ldr	r3, [pc, #16]	; 866c <start_current_process+0x2c>
    8658:	e5933000 	ldr	r3, [r3]
    865c:	e3a02005 	mov	r2, #5
    8660:	e5c32000 	strb	r2, [r3]
    8664:	eb000057 	bl	87c8 <ctx_switch>
    8668:	e8bd8008 	pop	{r3, pc}
    866c:	00008f6c 	andeq	r8, r0, ip, ror #30

00008670 <elect>:
    8670:	e92d4008 	push	{r3, lr}
    8674:	e59f30ac 	ldr	r3, [pc, #172]	; 8728 <elect+0xb8>
    8678:	e5933000 	ldr	r3, [r3]
    867c:	e5933008 	ldr	r3, [r3, #8]
    8680:	e5d33000 	ldrb	r3, [r3]
    8684:	e3530005 	cmp	r3, #5
    8688:	1a000016 	bne	86e8 <elect+0x78>
    868c:	e59f3094 	ldr	r3, [pc, #148]	; 8728 <elect+0xb8>
    8690:	e5933000 	ldr	r3, [r3]
    8694:	e5933004 	ldr	r3, [r3, #4]
    8698:	e5933000 	ldr	r3, [r3]
    869c:	e1a00003 	mov	r0, r3
    86a0:	e3a01c02 	mov	r1, #512	; 0x200
    86a4:	ebfffeee 	bl	8264 <phyAlloc_free>
    86a8:	e59f3078 	ldr	r3, [pc, #120]	; 8728 <elect+0xb8>
    86ac:	e5933000 	ldr	r3, [r3]
    86b0:	e5933004 	ldr	r3, [r3, #4]
    86b4:	e1a00003 	mov	r0, r3
    86b8:	e3a01008 	mov	r1, #8
    86bc:	ebfffee8 	bl	8264 <phyAlloc_free>
    86c0:	e59f3060 	ldr	r3, [pc, #96]	; 8728 <elect+0xb8>
    86c4:	e5933000 	ldr	r3, [r3]
    86c8:	e1a00003 	mov	r0, r3
    86cc:	e3a0101c 	mov	r1, #28
    86d0:	ebfffee3 	bl	8264 <phyAlloc_free>
    86d4:	e59f3050 	ldr	r3, [pc, #80]	; 872c <elect+0xbc>
    86d8:	e5933000 	ldr	r3, [r3]
    86dc:	e1a00003 	mov	r0, r3
    86e0:	eb000140 	bl	8be8 <heap_pop>
    86e4:	ea00000e 	b	8724 <elect+0xb4>
    86e8:	e59f3038 	ldr	r3, [pc, #56]	; 8728 <elect+0xb8>
    86ec:	e5933000 	ldr	r3, [r3]
    86f0:	e3a02000 	mov	r2, #0
    86f4:	e5832018 	str	r2, [r3, #24]
    86f8:	e59f302c 	ldr	r3, [pc, #44]	; 872c <elect+0xbc>
    86fc:	e5932000 	ldr	r2, [r3]
    8700:	e59f3020 	ldr	r3, [pc, #32]	; 8728 <elect+0xb8>
    8704:	e5933000 	ldr	r3, [r3]
    8708:	e1a00002 	mov	r0, r2
    870c:	e1a01003 	mov	r1, r3
    8710:	eb00009b 	bl	8984 <heap_push>
    8714:	e59f3010 	ldr	r3, [pc, #16]	; 872c <elect+0xbc>
    8718:	e5933000 	ldr	r3, [r3]
    871c:	e1a00003 	mov	r0, r3
    8720:	eb000130 	bl	8be8 <heap_pop>
    8724:	e8bd8008 	pop	{r3, pc}
    8728:	00008f6c 	andeq	r8, r0, ip, ror #30
    872c:	00008f70 	andeq	r8, r0, r0, ror pc

00008730 <start_sched>:
    8730:	e52de004 	push	{lr}		; (str lr, [sp, #-4]!)
    8734:	e24dd00c 	sub	sp, sp, #12
    8738:	e3a0001c 	mov	r0, #28
    873c:	ebfffe9b 	bl	81b0 <phyAlloc_alloc>
    8740:	e1a02000 	mov	r2, r0
    8744:	e59f3070 	ldr	r3, [pc, #112]	; 87bc <start_sched+0x8c>
    8748:	e5832000 	str	r2, [r3]
    874c:	e59f3068 	ldr	r3, [pc, #104]	; 87bc <start_sched+0x8c>
    8750:	e5933000 	ldr	r3, [r3]
    8754:	e3a02001 	mov	r2, #1
    8758:	e58d2000 	str	r2, [sp]
    875c:	e1a00003 	mov	r0, r3
    8760:	e3a01000 	mov	r1, #0
    8764:	e3a02c02 	mov	r2, #512	; 0x200
    8768:	e3a03001 	mov	r3, #1
    876c:	ebffff70 	bl	8534 <init_pcb>
    8770:	e59f3044 	ldr	r3, [pc, #68]	; 87bc <start_sched+0x8c>
    8774:	e5932000 	ldr	r2, [r3]
    8778:	e59f3040 	ldr	r3, [pc, #64]	; 87c0 <start_sched+0x90>
    877c:	e5832000 	str	r2, [r3]
    8780:	e59f303c 	ldr	r3, [pc, #60]	; 87c4 <start_sched+0x94>
    8784:	e5932000 	ldr	r2, [r3]
    8788:	e59f3030 	ldr	r3, [pc, #48]	; 87c0 <start_sched+0x90>
    878c:	e5933000 	ldr	r3, [r3]
    8790:	e1a00002 	mov	r0, r2
    8794:	e1a01003 	mov	r1, r3
    8798:	eb000079 	bl	8984 <heap_push>
    879c:	ebfffed1 	bl	82e8 <set_tick_and_enable_timer>
    87a0:	e92d0001 	push	{r0}
    87a4:	e10f0000 	mrs	r0, CPSR
    87a8:	e3c00080 	bic	r0, r0, #128	; 0x80
    87ac:	e121f000 	msr	CPSR_c, r0
    87b0:	e8bd0001 	pop	{r0}
    87b4:	e28dd00c 	add	sp, sp, #12
    87b8:	e8bd8000 	pop	{pc}
    87bc:	00008f60 	andeq	r8, r0, r0, ror #30
    87c0:	00008f6c 	andeq	r8, r0, ip, ror #30
    87c4:	00008f70 	andeq	r8, r0, r0, ror pc

000087c8 <ctx_switch>:
    87c8:	e92d0001 	push	{r0}
    87cc:	e10f0000 	mrs	r0, CPSR
    87d0:	e3800080 	orr	r0, r0, #128	; 0x80
    87d4:	e121f000 	msr	CPSR_c, r0
    87d8:	e8bd0001 	pop	{r0}
    87dc:	e92d1fff 	push	{r0, r1, r2, r3, r4, r5, r6, r7, r8, r9, sl, fp, ip}
    87e0:	e59f306c 	ldr	r3, [pc, #108]	; 8854 <ctx_switch+0x8c>
    87e4:	e5933000 	ldr	r3, [r3]
    87e8:	e5933004 	ldr	r3, [r3, #4]
    87ec:	e1a0200e 	mov	r2, lr
    87f0:	e5832004 	str	r2, [r3, #4]
    87f4:	e59f3058 	ldr	r3, [pc, #88]	; 8854 <ctx_switch+0x8c>
    87f8:	e5933000 	ldr	r3, [r3]
    87fc:	e5933004 	ldr	r3, [r3, #4]
    8800:	e1a0200d 	mov	r2, sp
    8804:	e5832000 	str	r2, [r3]
    8808:	ebffff98 	bl	8670 <elect>
    880c:	e59f3040 	ldr	r3, [pc, #64]	; 8854 <ctx_switch+0x8c>
    8810:	e5933000 	ldr	r3, [r3]
    8814:	e5933004 	ldr	r3, [r3, #4]
    8818:	e5933000 	ldr	r3, [r3]
    881c:	e1a0d003 	mov	sp, r3
    8820:	e59f302c 	ldr	r3, [pc, #44]	; 8854 <ctx_switch+0x8c>
    8824:	e5933000 	ldr	r3, [r3]
    8828:	e5933004 	ldr	r3, [r3, #4]
    882c:	e5933004 	ldr	r3, [r3, #4]
    8830:	e1a0e003 	mov	lr, r3
    8834:	ebfffeab 	bl	82e8 <set_tick_and_enable_timer>
    8838:	e8bd1fff 	pop	{r0, r1, r2, r3, r4, r5, r6, r7, r8, r9, sl, fp, ip}
    883c:	e92d0001 	push	{r0}
    8840:	e10f0000 	mrs	r0, CPSR
    8844:	e3c00080 	bic	r0, r0, #128	; 0x80
    8848:	e121f000 	msr	CPSR_c, r0
    884c:	e8bd0001 	pop	{r0}
    8850:	e12fff1e 	bx	lr
    8854:	00008f6c 	andeq	r8, r0, ip, ror #30

00008858 <ctx_switch_from_irq>:
    8858:	e92d0001 	push	{r0}
    885c:	e10f0000 	mrs	r0, CPSR
    8860:	e3800080 	orr	r0, r0, #128	; 0x80
    8864:	e121f000 	msr	CPSR_c, r0
    8868:	e8bd0001 	pop	{r0}
    886c:	e24ee004 	sub	lr, lr, #4
    8870:	f96d0513 	srsdb	sp!, #19
    8874:	f1020013 	cps	#19
    8878:	e92d1fff 	push	{r0, r1, r2, r3, r4, r5, r6, r7, r8, r9, sl, fp, ip}
    887c:	e59f309c 	ldr	r3, [pc, #156]	; 8920 <ctx_switch_from_irq+0xc8>
    8880:	e5933000 	ldr	r3, [r3]
    8884:	e5933004 	ldr	r3, [r3, #4]
    8888:	e1a0200e 	mov	r2, lr
    888c:	e5832004 	str	r2, [r3, #4]
    8890:	e59f3088 	ldr	r3, [pc, #136]	; 8920 <ctx_switch_from_irq+0xc8>
    8894:	e5933000 	ldr	r3, [r3]
    8898:	e5933004 	ldr	r3, [r3, #4]
    889c:	e1a0200d 	mov	r2, sp
    88a0:	e5832000 	str	r2, [r3]
    88a4:	e59f3074 	ldr	r3, [pc, #116]	; 8920 <ctx_switch_from_irq+0xc8>
    88a8:	e5933000 	ldr	r3, [r3]
    88ac:	e3a02001 	mov	r2, #1
    88b0:	e5c32000 	strb	r2, [r3]
    88b4:	ebffff6d 	bl	8670 <elect>
    88b8:	e59f3060 	ldr	r3, [pc, #96]	; 8920 <ctx_switch_from_irq+0xc8>
    88bc:	e5933000 	ldr	r3, [r3]
    88c0:	e3a02004 	mov	r2, #4
    88c4:	e5c32000 	strb	r2, [r3]
    88c8:	e59f3050 	ldr	r3, [pc, #80]	; 8920 <ctx_switch_from_irq+0xc8>
    88cc:	e5933000 	ldr	r3, [r3]
    88d0:	e5933004 	ldr	r3, [r3, #4]
    88d4:	e5933000 	ldr	r3, [r3]
    88d8:	e1a0d003 	mov	sp, r3
    88dc:	e59f303c 	ldr	r3, [pc, #60]	; 8920 <ctx_switch_from_irq+0xc8>
    88e0:	e5933000 	ldr	r3, [r3]
    88e4:	e5933004 	ldr	r3, [r3, #4]
    88e8:	e5933004 	ldr	r3, [r3, #4]
    88ec:	e1a0e003 	mov	lr, r3
    88f0:	e59f3028 	ldr	r3, [pc, #40]	; 8920 <ctx_switch_from_irq+0xc8>
    88f4:	e5933000 	ldr	r3, [r3]
    88f8:	e5933014 	ldr	r3, [r3, #20]
    88fc:	e1a00003 	mov	r0, r3
    8900:	ebfffe8b 	bl	8334 <set_tick_and_enable_timer_priority>
    8904:	e8bd1fff 	pop	{r0, r1, r2, r3, r4, r5, r6, r7, r8, r9, sl, fp, ip}
    8908:	e92d0001 	push	{r0}
    890c:	e10f0000 	mrs	r0, CPSR
    8910:	e3c00080 	bic	r0, r0, #128	; 0x80
    8914:	e121f000 	msr	CPSR_c, r0
    8918:	e8bd0001 	pop	{r0}
    891c:	f8bd0a00 	rfeia	sp!
    8920:	00008f6c 	andeq	r8, r0, ip, ror #30

00008924 <heap_init>:
    8924:	e52de004 	push	{lr}		; (str lr, [sp, #-4]!)
    8928:	e24dd014 	sub	sp, sp, #20
    892c:	e59f3048 	ldr	r3, [pc, #72]	; 897c <heap_init+0x58>
    8930:	e5933000 	ldr	r3, [r3]
    8934:	e58d3004 	str	r3, [sp, #4]
    8938:	e3a03000 	mov	r3, #0
    893c:	e58d3008 	str	r3, [sp, #8]
    8940:	e59f3034 	ldr	r3, [pc, #52]	; 897c <heap_init+0x58>
    8944:	e5932000 	ldr	r2, [r3]
    8948:	e1a03002 	mov	r3, r2
    894c:	e1a03183 	lsl	r3, r3, #3
    8950:	e0623003 	rsb	r3, r2, r3
    8954:	e1a03103 	lsl	r3, r3, #2
    8958:	e1a00003 	mov	r0, r3
    895c:	ebfffe13 	bl	81b0 <phyAlloc_alloc>
    8960:	e1a03000 	mov	r3, r0
    8964:	e58d300c 	str	r3, [sp, #12]
    8968:	e59f3010 	ldr	r3, [pc, #16]	; 8980 <heap_init+0x5c>
    896c:	e28d2004 	add	r2, sp, #4
    8970:	e5832000 	str	r2, [r3]
    8974:	e28dd014 	add	sp, sp, #20
    8978:	e8bd8000 	pop	{pc}
    897c:	00008f74 	andeq	r8, r0, r4, ror pc
    8980:	00008f70 	andeq	r8, r0, r0, ror pc

00008984 <heap_push>:
    8984:	e92d4010 	push	{r4, lr}
    8988:	e24dd018 	sub	sp, sp, #24
    898c:	e58d0004 	str	r0, [sp, #4]
    8990:	e58d1000 	str	r1, [sp]
    8994:	e59d3004 	ldr	r3, [sp, #4]
    8998:	e5932004 	ldr	r2, [r3, #4]
    899c:	e59d3004 	ldr	r3, [sp, #4]
    89a0:	e5933000 	ldr	r3, [r3]
    89a4:	e1520003 	cmp	r2, r3
    89a8:	1a00003a 	bne	8a98 <heap_push+0x114>
    89ac:	e59d3004 	ldr	r3, [sp, #4]
    89b0:	e5933000 	ldr	r3, [r3]
    89b4:	e1a02083 	lsl	r2, r3, #1
    89b8:	e59d3004 	ldr	r3, [sp, #4]
    89bc:	e5832000 	str	r2, [r3]
    89c0:	e59d3004 	ldr	r3, [sp, #4]
    89c4:	e5933000 	ldr	r3, [r3]
    89c8:	e59f2214 	ldr	r2, [pc, #532]	; 8be4 <heap_push+0x260>
    89cc:	e5922000 	ldr	r2, [r2]
    89d0:	e0030392 	mul	r3, r2, r3
    89d4:	e1a00003 	mov	r0, r3
    89d8:	ebfffdf4 	bl	81b0 <phyAlloc_alloc>
    89dc:	e58d000c 	str	r0, [sp, #12]
    89e0:	e3a03000 	mov	r3, #0
    89e4:	e58d3010 	str	r3, [sp, #16]
    89e8:	ea000017 	b	8a4c <heap_push+0xc8>
    89ec:	e59d2010 	ldr	r2, [sp, #16]
    89f0:	e1a03002 	mov	r3, r2
    89f4:	e1a03183 	lsl	r3, r3, #3
    89f8:	e0623003 	rsb	r3, r2, r3
    89fc:	e1a03103 	lsl	r3, r3, #2
    8a00:	e59d200c 	ldr	r2, [sp, #12]
    8a04:	e0821003 	add	r1, r2, r3
    8a08:	e59d3004 	ldr	r3, [sp, #4]
    8a0c:	e5930008 	ldr	r0, [r3, #8]
    8a10:	e59d2010 	ldr	r2, [sp, #16]
    8a14:	e1a03002 	mov	r3, r2
    8a18:	e1a03183 	lsl	r3, r3, #3
    8a1c:	e0623003 	rsb	r3, r2, r3
    8a20:	e1a03103 	lsl	r3, r3, #2
    8a24:	e0803003 	add	r3, r0, r3
    8a28:	e1a0c001 	mov	ip, r1
    8a2c:	e1a0e003 	mov	lr, r3
    8a30:	e8be000f 	ldm	lr!, {r0, r1, r2, r3}
    8a34:	e8ac000f 	stmia	ip!, {r0, r1, r2, r3}
    8a38:	e89e0007 	ldm	lr, {r0, r1, r2}
    8a3c:	e88c0007 	stm	ip, {r0, r1, r2}
    8a40:	e59d3010 	ldr	r3, [sp, #16]
    8a44:	e2833001 	add	r3, r3, #1
    8a48:	e58d3010 	str	r3, [sp, #16]
    8a4c:	e59d2010 	ldr	r2, [sp, #16]
    8a50:	e59d3004 	ldr	r3, [sp, #4]
    8a54:	e5933004 	ldr	r3, [r3, #4]
    8a58:	e1520003 	cmp	r2, r3
    8a5c:	3affffe2 	bcc	89ec <heap_push+0x68>
    8a60:	e59d3004 	ldr	r3, [sp, #4]
    8a64:	e5932008 	ldr	r2, [r3, #8]
    8a68:	e59d3004 	ldr	r3, [sp, #4]
    8a6c:	e5933000 	ldr	r3, [r3]
    8a70:	e59f116c 	ldr	r1, [pc, #364]	; 8be4 <heap_push+0x260>
    8a74:	e5911000 	ldr	r1, [r1]
    8a78:	e0030391 	mul	r3, r1, r3
    8a7c:	e1a030a3 	lsr	r3, r3, #1
    8a80:	e1a00002 	mov	r0, r2
    8a84:	e1a01003 	mov	r1, r3
    8a88:	ebfffdf5 	bl	8264 <phyAlloc_free>
    8a8c:	e59d3004 	ldr	r3, [sp, #4]
    8a90:	e59d200c 	ldr	r2, [sp, #12]
    8a94:	e5832008 	str	r2, [r3, #8]
    8a98:	e59d3004 	ldr	r3, [sp, #4]
    8a9c:	e5933004 	ldr	r3, [r3, #4]
    8aa0:	e58d3014 	str	r3, [sp, #20]
    8aa4:	e2832001 	add	r2, r3, #1
    8aa8:	e59d3004 	ldr	r3, [sp, #4]
    8aac:	e5832004 	str	r2, [r3, #4]
    8ab0:	ea000035 	b	8b8c <heap_push+0x208>
    8ab4:	e59d3014 	ldr	r3, [sp, #20]
    8ab8:	e2433001 	sub	r3, r3, #1
    8abc:	e1a030a3 	lsr	r3, r3, #1
    8ac0:	e58d3008 	str	r3, [sp, #8]
    8ac4:	e59d3004 	ldr	r3, [sp, #4]
    8ac8:	e5931008 	ldr	r1, [r3, #8]
    8acc:	e59d2008 	ldr	r2, [sp, #8]
    8ad0:	e1a03002 	mov	r3, r2
    8ad4:	e1a03183 	lsl	r3, r3, #3
    8ad8:	e0623003 	rsb	r3, r2, r3
    8adc:	e1a03103 	lsl	r3, r3, #2
    8ae0:	e0813003 	add	r3, r1, r3
    8ae4:	e5931014 	ldr	r1, [r3, #20]
    8ae8:	e59d3004 	ldr	r3, [sp, #4]
    8aec:	e5930008 	ldr	r0, [r3, #8]
    8af0:	e59d2008 	ldr	r2, [sp, #8]
    8af4:	e1a03002 	mov	r3, r2
    8af8:	e1a03183 	lsl	r3, r3, #3
    8afc:	e0623003 	rsb	r3, r2, r3
    8b00:	e1a03103 	lsl	r3, r3, #2
    8b04:	e0803003 	add	r3, r0, r3
    8b08:	e5933018 	ldr	r3, [r3, #24]
    8b0c:	e0020193 	mul	r2, r3, r1
    8b10:	e59d3000 	ldr	r3, [sp]
    8b14:	e5933014 	ldr	r3, [r3, #20]
    8b18:	e59d1000 	ldr	r1, [sp]
    8b1c:	e5911018 	ldr	r1, [r1, #24]
    8b20:	e0030391 	mul	r3, r1, r3
    8b24:	e1520003 	cmp	r2, r3
    8b28:	2a00001b 	bcs	8b9c <heap_push+0x218>
    8b2c:	e59d3004 	ldr	r3, [sp, #4]
    8b30:	e5931008 	ldr	r1, [r3, #8]
    8b34:	e59d2014 	ldr	r2, [sp, #20]
    8b38:	e1a03002 	mov	r3, r2
    8b3c:	e1a03183 	lsl	r3, r3, #3
    8b40:	e0623003 	rsb	r3, r2, r3
    8b44:	e1a03103 	lsl	r3, r3, #2
    8b48:	e0811003 	add	r1, r1, r3
    8b4c:	e59d3004 	ldr	r3, [sp, #4]
    8b50:	e5930008 	ldr	r0, [r3, #8]
    8b54:	e59d2008 	ldr	r2, [sp, #8]
    8b58:	e1a03002 	mov	r3, r2
    8b5c:	e1a03183 	lsl	r3, r3, #3
    8b60:	e0623003 	rsb	r3, r2, r3
    8b64:	e1a03103 	lsl	r3, r3, #2
    8b68:	e0803003 	add	r3, r0, r3
    8b6c:	e1a0c001 	mov	ip, r1
    8b70:	e1a04003 	mov	r4, r3
    8b74:	e8b4000f 	ldm	r4!, {r0, r1, r2, r3}
    8b78:	e8ac000f 	stmia	ip!, {r0, r1, r2, r3}
    8b7c:	e8940007 	ldm	r4, {r0, r1, r2}
    8b80:	e88c0007 	stm	ip, {r0, r1, r2}
    8b84:	e59d3008 	ldr	r3, [sp, #8]
    8b88:	e58d3014 	str	r3, [sp, #20]
    8b8c:	e59d3014 	ldr	r3, [sp, #20]
    8b90:	e3530000 	cmp	r3, #0
    8b94:	1affffc6 	bne	8ab4 <heap_push+0x130>
    8b98:	ea000000 	b	8ba0 <heap_push+0x21c>
    8b9c:	e1a00000 	nop			; (mov r0, r0)
    8ba0:	e59d3004 	ldr	r3, [sp, #4]
    8ba4:	e5931008 	ldr	r1, [r3, #8]
    8ba8:	e59d2014 	ldr	r2, [sp, #20]
    8bac:	e1a03002 	mov	r3, r2
    8bb0:	e1a03183 	lsl	r3, r3, #3
    8bb4:	e0623003 	rsb	r3, r2, r3
    8bb8:	e1a03103 	lsl	r3, r3, #2
    8bbc:	e0812003 	add	r2, r1, r3
    8bc0:	e59d3000 	ldr	r3, [sp]
    8bc4:	e1a0c002 	mov	ip, r2
    8bc8:	e1a04003 	mov	r4, r3
    8bcc:	e8b4000f 	ldm	r4!, {r0, r1, r2, r3}
    8bd0:	e8ac000f 	stmia	ip!, {r0, r1, r2, r3}
    8bd4:	e8940007 	ldm	r4, {r0, r1, r2}
    8bd8:	e88c0007 	stm	ip, {r0, r1, r2}
    8bdc:	e28dd018 	add	sp, sp, #24
    8be0:	e8bd8010 	pop	{r4, pc}
    8be4:	00008f74 	andeq	r8, r0, r4, ror pc

00008be8 <heap_pop>:
    8be8:	e92d4010 	push	{r4, lr}
    8bec:	e24dd038 	sub	sp, sp, #56	; 0x38
    8bf0:	e58d0004 	str	r0, [sp, #4]
    8bf4:	e59d3004 	ldr	r3, [sp, #4]
    8bf8:	e5931008 	ldr	r1, [r3, #8]
    8bfc:	e59d3004 	ldr	r3, [sp, #4]
    8c00:	e5933004 	ldr	r3, [r3, #4]
    8c04:	e2432001 	sub	r2, r3, #1
    8c08:	e59d3004 	ldr	r3, [sp, #4]
    8c0c:	e5832004 	str	r2, [r3, #4]
    8c10:	e59d3004 	ldr	r3, [sp, #4]
    8c14:	e5932004 	ldr	r2, [r3, #4]
    8c18:	e1a03002 	mov	r3, r2
    8c1c:	e1a03183 	lsl	r3, r3, #3
    8c20:	e0623003 	rsb	r3, r2, r3
    8c24:	e1a03103 	lsl	r3, r3, #2
    8c28:	e0813003 	add	r3, r1, r3
    8c2c:	e28dc008 	add	ip, sp, #8
    8c30:	e1a04003 	mov	r4, r3
    8c34:	e8b4000f 	ldm	r4!, {r0, r1, r2, r3}
    8c38:	e8ac000f 	stmia	ip!, {r0, r1, r2, r3}
    8c3c:	e8940007 	ldm	r4, {r0, r1, r2}
    8c40:	e88c0007 	stm	ip, {r0, r1, r2}
    8c44:	e59d3004 	ldr	r3, [sp, #4]
    8c48:	e5932004 	ldr	r2, [r3, #4]
    8c4c:	e59d3004 	ldr	r3, [sp, #4]
    8c50:	e5933000 	ldr	r3, [r3]
    8c54:	e1a03123 	lsr	r3, r3, #2
    8c58:	e1520003 	cmp	r2, r3
    8c5c:	8a00004a 	bhi	8d8c <heap_pop+0x1a4>
    8c60:	e59d3004 	ldr	r3, [sp, #4]
    8c64:	e5932000 	ldr	r2, [r3]
    8c68:	e59f32dc 	ldr	r3, [pc, #732]	; 8f4c <heap_pop+0x364>
    8c6c:	e5933000 	ldr	r3, [r3]
    8c70:	e1520003 	cmp	r2, r3
    8c74:	9a000044 	bls	8d8c <heap_pop+0x1a4>
    8c78:	e59d3004 	ldr	r3, [sp, #4]
    8c7c:	e5933000 	ldr	r3, [r3]
    8c80:	e1a020a3 	lsr	r2, r3, #1
    8c84:	e59d3004 	ldr	r3, [sp, #4]
    8c88:	e5832000 	str	r2, [r3]
    8c8c:	e59d3004 	ldr	r3, [sp, #4]
    8c90:	e5933000 	ldr	r3, [r3]
    8c94:	e59f22b0 	ldr	r2, [pc, #688]	; 8f4c <heap_pop+0x364>
    8c98:	e5922000 	ldr	r2, [r2]
    8c9c:	e0030392 	mul	r3, r2, r3
    8ca0:	e1a00003 	mov	r0, r3
    8ca4:	ebfffd41 	bl	81b0 <phyAlloc_alloc>
    8ca8:	e58d0028 	str	r0, [sp, #40]	; 0x28
    8cac:	e3a03000 	mov	r3, #0
    8cb0:	e58d302c 	str	r3, [sp, #44]	; 0x2c
    8cb4:	ea000021 	b	8d40 <heap_pop+0x158>
    8cb8:	e59d202c 	ldr	r2, [sp, #44]	; 0x2c
    8cbc:	e1a03002 	mov	r3, r2
    8cc0:	e1a03183 	lsl	r3, r3, #3
    8cc4:	e0623003 	rsb	r3, r2, r3
    8cc8:	e1a03103 	lsl	r3, r3, #2
    8ccc:	e59d2028 	ldr	r2, [sp, #40]	; 0x28
    8cd0:	e0821003 	add	r1, r2, r3
    8cd4:	e59d3004 	ldr	r3, [sp, #4]
    8cd8:	e5930008 	ldr	r0, [r3, #8]
    8cdc:	e59d202c 	ldr	r2, [sp, #44]	; 0x2c
    8ce0:	e1a03002 	mov	r3, r2
    8ce4:	e1a03183 	lsl	r3, r3, #3
    8ce8:	e0623003 	rsb	r3, r2, r3
    8cec:	e1a03103 	lsl	r3, r3, #2
    8cf0:	e0803003 	add	r3, r0, r3
    8cf4:	e1a0c001 	mov	ip, r1
    8cf8:	e1a0e003 	mov	lr, r3
    8cfc:	e8be000f 	ldm	lr!, {r0, r1, r2, r3}
    8d00:	e8ac000f 	stmia	ip!, {r0, r1, r2, r3}
    8d04:	e89e0007 	ldm	lr, {r0, r1, r2}
    8d08:	e88c0007 	stm	ip, {r0, r1, r2}
    8d0c:	e59d202c 	ldr	r2, [sp, #44]	; 0x2c
    8d10:	e1a03002 	mov	r3, r2
    8d14:	e1a03183 	lsl	r3, r3, #3
    8d18:	e0623003 	rsb	r3, r2, r3
    8d1c:	e1a03103 	lsl	r3, r3, #2
    8d20:	e59d2028 	ldr	r2, [sp, #40]	; 0x28
    8d24:	e0823003 	add	r3, r2, r3
    8d28:	e5932018 	ldr	r2, [r3, #24]
    8d2c:	e2822001 	add	r2, r2, #1
    8d30:	e5832018 	str	r2, [r3, #24]
    8d34:	e59d302c 	ldr	r3, [sp, #44]	; 0x2c
    8d38:	e2833001 	add	r3, r3, #1
    8d3c:	e58d302c 	str	r3, [sp, #44]	; 0x2c
    8d40:	e59d202c 	ldr	r2, [sp, #44]	; 0x2c
    8d44:	e59d3004 	ldr	r3, [sp, #4]
    8d48:	e5933004 	ldr	r3, [r3, #4]
    8d4c:	e1520003 	cmp	r2, r3
    8d50:	3affffd8 	bcc	8cb8 <heap_pop+0xd0>
    8d54:	e59d3004 	ldr	r3, [sp, #4]
    8d58:	e5932008 	ldr	r2, [r3, #8]
    8d5c:	e59d3004 	ldr	r3, [sp, #4]
    8d60:	e5933000 	ldr	r3, [r3]
    8d64:	e59f11e0 	ldr	r1, [pc, #480]	; 8f4c <heap_pop+0x364>
    8d68:	e5911000 	ldr	r1, [r1]
    8d6c:	e0030391 	mul	r3, r1, r3
    8d70:	e1a03083 	lsl	r3, r3, #1
    8d74:	e1a00002 	mov	r0, r2
    8d78:	e1a01003 	mov	r1, r3
    8d7c:	ebfffd38 	bl	8264 <phyAlloc_free>
    8d80:	e59d3004 	ldr	r3, [sp, #4]
    8d84:	e59d2028 	ldr	r2, [sp, #40]	; 0x28
    8d88:	e5832008 	str	r2, [r3, #8]
    8d8c:	e3a03000 	mov	r3, #0
    8d90:	e58d3034 	str	r3, [sp, #52]	; 0x34
    8d94:	e59d3034 	ldr	r3, [sp, #52]	; 0x34
    8d98:	e1a03083 	lsl	r3, r3, #1
    8d9c:	e2833001 	add	r3, r3, #1
    8da0:	e58d3030 	str	r3, [sp, #48]	; 0x30
    8da4:	e59d3004 	ldr	r3, [sp, #4]
    8da8:	e5932004 	ldr	r2, [r3, #4]
    8dac:	e59d3030 	ldr	r3, [sp, #48]	; 0x30
    8db0:	e1520003 	cmp	r2, r3
    8db4:	9a00004e 	bls	8ef4 <heap_pop+0x30c>
    8db8:	e59d3030 	ldr	r3, [sp, #48]	; 0x30
    8dbc:	e2833001 	add	r3, r3, #1
    8dc0:	e58d3024 	str	r3, [sp, #36]	; 0x24
    8dc4:	e59d3004 	ldr	r3, [sp, #4]
    8dc8:	e5932004 	ldr	r2, [r3, #4]
    8dcc:	e59d3024 	ldr	r3, [sp, #36]	; 0x24
    8dd0:	e1520003 	cmp	r2, r3
    8dd4:	9a000015 	bls	8e30 <heap_pop+0x248>
    8dd8:	e59d3004 	ldr	r3, [sp, #4]
    8ddc:	e5931008 	ldr	r1, [r3, #8]
    8de0:	e59d2024 	ldr	r2, [sp, #36]	; 0x24
    8de4:	e1a03002 	mov	r3, r2
    8de8:	e1a03183 	lsl	r3, r3, #3
    8dec:	e0623003 	rsb	r3, r2, r3
    8df0:	e1a03103 	lsl	r3, r3, #2
    8df4:	e0813003 	add	r3, r1, r3
    8df8:	e5931014 	ldr	r1, [r3, #20]
    8dfc:	e59d3004 	ldr	r3, [sp, #4]
    8e00:	e5930008 	ldr	r0, [r3, #8]
    8e04:	e59d2030 	ldr	r2, [sp, #48]	; 0x30
    8e08:	e1a03002 	mov	r3, r2
    8e0c:	e1a03183 	lsl	r3, r3, #3
    8e10:	e0623003 	rsb	r3, r2, r3
    8e14:	e1a03103 	lsl	r3, r3, #2
    8e18:	e0803003 	add	r3, r0, r3
    8e1c:	e5933014 	ldr	r3, [r3, #20]
    8e20:	e1510003 	cmp	r1, r3
    8e24:	3a000001 	bcc	8e30 <heap_pop+0x248>
    8e28:	e59d3024 	ldr	r3, [sp, #36]	; 0x24
    8e2c:	e58d3030 	str	r3, [sp, #48]	; 0x30
    8e30:	e59d301c 	ldr	r3, [sp, #28]
    8e34:	e59d2020 	ldr	r2, [sp, #32]
    8e38:	e0010392 	mul	r1, r2, r3
    8e3c:	e59d3004 	ldr	r3, [sp, #4]
    8e40:	e5930008 	ldr	r0, [r3, #8]
    8e44:	e59d2030 	ldr	r2, [sp, #48]	; 0x30
    8e48:	e1a03002 	mov	r3, r2
    8e4c:	e1a03183 	lsl	r3, r3, #3
    8e50:	e0623003 	rsb	r3, r2, r3
    8e54:	e1a03103 	lsl	r3, r3, #2
    8e58:	e0803003 	add	r3, r0, r3
    8e5c:	e5930014 	ldr	r0, [r3, #20]
    8e60:	e59d3004 	ldr	r3, [sp, #4]
    8e64:	e593c008 	ldr	ip, [r3, #8]
    8e68:	e59d2030 	ldr	r2, [sp, #48]	; 0x30
    8e6c:	e1a03002 	mov	r3, r2
    8e70:	e1a03183 	lsl	r3, r3, #3
    8e74:	e0623003 	rsb	r3, r2, r3
    8e78:	e1a03103 	lsl	r3, r3, #2
    8e7c:	e08c3003 	add	r3, ip, r3
    8e80:	e5933018 	ldr	r3, [r3, #24]
    8e84:	e0030093 	mul	r3, r3, r0
    8e88:	e1510003 	cmp	r1, r3
    8e8c:	2a00001a 	bcs	8efc <heap_pop+0x314>
    8e90:	e59d3004 	ldr	r3, [sp, #4]
    8e94:	e5931008 	ldr	r1, [r3, #8]
    8e98:	e59d2034 	ldr	r2, [sp, #52]	; 0x34
    8e9c:	e1a03002 	mov	r3, r2
    8ea0:	e1a03183 	lsl	r3, r3, #3
    8ea4:	e0623003 	rsb	r3, r2, r3
    8ea8:	e1a03103 	lsl	r3, r3, #2
    8eac:	e0811003 	add	r1, r1, r3
    8eb0:	e59d3004 	ldr	r3, [sp, #4]
    8eb4:	e5930008 	ldr	r0, [r3, #8]
    8eb8:	e59d2030 	ldr	r2, [sp, #48]	; 0x30
    8ebc:	e1a03002 	mov	r3, r2
    8ec0:	e1a03183 	lsl	r3, r3, #3
    8ec4:	e0623003 	rsb	r3, r2, r3
    8ec8:	e1a03103 	lsl	r3, r3, #2
    8ecc:	e0803003 	add	r3, r0, r3
    8ed0:	e1a0c001 	mov	ip, r1
    8ed4:	e1a04003 	mov	r4, r3
    8ed8:	e8b4000f 	ldm	r4!, {r0, r1, r2, r3}
    8edc:	e8ac000f 	stmia	ip!, {r0, r1, r2, r3}
    8ee0:	e8940007 	ldm	r4, {r0, r1, r2}
    8ee4:	e88c0007 	stm	ip, {r0, r1, r2}
    8ee8:	e59d3030 	ldr	r3, [sp, #48]	; 0x30
    8eec:	e58d3034 	str	r3, [sp, #52]	; 0x34
    8ef0:	eaffffa7 	b	8d94 <heap_pop+0x1ac>
    8ef4:	e1a00000 	nop			; (mov r0, r0)
    8ef8:	ea000000 	b	8f00 <heap_pop+0x318>
    8efc:	e1a00000 	nop			; (mov r0, r0)
    8f00:	e59d3004 	ldr	r3, [sp, #4]
    8f04:	e5931008 	ldr	r1, [r3, #8]
    8f08:	e59d2034 	ldr	r2, [sp, #52]	; 0x34
    8f0c:	e1a03002 	mov	r3, r2
    8f10:	e1a03183 	lsl	r3, r3, #3
    8f14:	e0623003 	rsb	r3, r2, r3
    8f18:	e1a03103 	lsl	r3, r3, #2
    8f1c:	e0813003 	add	r3, r1, r3
    8f20:	e1a0c003 	mov	ip, r3
    8f24:	e28d4008 	add	r4, sp, #8
    8f28:	e8b4000f 	ldm	r4!, {r0, r1, r2, r3}
    8f2c:	e8ac000f 	stmia	ip!, {r0, r1, r2, r3}
    8f30:	e8940007 	ldm	r4, {r0, r1, r2}
    8f34:	e88c0007 	stm	ip, {r0, r1, r2}
    8f38:	e59f3010 	ldr	r3, [pc, #16]	; 8f50 <heap_pop+0x368>
    8f3c:	e28d2008 	add	r2, sp, #8
    8f40:	e5832000 	str	r2, [r3]
    8f44:	e28dd038 	add	sp, sp, #56	; 0x38
    8f48:	e8bd8010 	pop	{r4, pc}
    8f4c:	00008f74 	andeq	r8, r0, r4, ror pc
    8f50:	00008f6c 	andeq	r8, r0, ip, ror #30

Disassembly of section .bss:

00008f54 <freelist>:
    8f54:	00000000 	andeq	r0, r0, r0

00008f58 <top>:
    8f58:	00000000 	andeq	r0, r0, r0

00008f5c <heap_limit>:
    8f5c:	00000000 	andeq	r0, r0, r0

00008f60 <pcb_main>:
    8f60:	00000000 	andeq	r0, r0, r0

00008f64 <pcb_head>:
    8f64:	00000000 	andeq	r0, r0, r0

00008f68 <pcb_tail>:
    8f68:	00000000 	andeq	r0, r0, r0

00008f6c <current_process>:
    8f6c:	00000000 	andeq	r0, r0, r0

00008f70 <pri_queue>:
    8f70:	00000000 	andeq	r0, r0, r0

00008f74 <base_size>:
    8f74:	00000004 	andeq	r0, r0, r4

00008f78 <ledOn>:
    8f78:	00000001 	andeq	r0, r0, r1

00008f7c <current_ctx>:
    8f7c:	00000000 	andeq	r0, r0, r0

Disassembly of section .ARM.attributes:

00000000 <.ARM.attributes>:
   0:	00003141 	andeq	r3, r0, r1, asr #2
   4:	61656100 	cmnvs	r5, r0, lsl #2
   8:	01006962 	tsteq	r0, r2, ror #18
   c:	00000027 	andeq	r0, r0, r7, lsr #32
  10:	005a3605 	subseq	r3, sl, r5, lsl #12
  14:	01080706 	tsteq	r8, r6, lsl #14
  18:	020a0109 	andeq	r0, sl, #1073741826	; 0x40000002
  1c:	01140412 	tsteq	r4, r2, lsl r4
  20:	03170115 	tsteq	r7, #1073741829	; 0x40000005
  24:	011a0118 	tsteq	sl, r8, lsl r1
  28:	011c031b 	tsteq	ip, fp, lsl r3
  2c:	012c0122 	teqeq	ip, r2, lsr #2
  30:	Address 0x0000000000000030 is out of bounds.


Disassembly of section .comment:

00000000 <.comment>:
   0:	3a434347 	bcc	10d0d24 <__bss_end+0x10c7da4>
   4:	4e472820 	cdpmi	8, 4, cr2, cr7, cr0, {1}
   8:	34202955 	strtcc	r2, [r0], #-2389	; 0x955
   c:	312e372e 	teqcc	lr, lr, lsr #14
	...

Disassembly of section .debug_line:

00000000 <.debug_line>:
   0:	00000061 	andeq	r0, r0, r1, rrx
   4:	00200002 	eoreq	r0, r0, r2
   8:	01020000 	mrseq	r0, (UNDEF: 2)
   c:	000d0efb 	strdeq	r0, [sp], -fp
  10:	01010101 	tsteq	r1, r1, lsl #2
  14:	01000000 	mrseq	r0, (UNDEF: 0)
  18:	00010000 	andeq	r0, r1, r0
  1c:	74636576 	strbtvc	r6, [r3], #-1398	; 0x576
  20:	2e73726f 	cdpcs	2, 7, cr7, cr3, cr15, {3}
  24:	00000073 	andeq	r0, r0, r3, ror r0
  28:	05000000 	streq	r0, [r0, #-0]
  2c:	00800002 	addeq	r0, r0, r2
  30:	2f2f1900 	svccs	0x002f1900
  34:	2f2f2f2f 	svccs	0x002f2f2f
  38:	080b032f 	stmdaeq	fp, {r0, r1, r2, r3, r5, r8, r9}
  3c:	2f2f2f20 	svccs	0x002f2f20
  40:	2f322f2f 	svccs	0x00322f2f
  44:	2f2f322f 	svccs	0x002f322f
  48:	302f2f31 	eorcc	r2, pc, r1, lsr pc	; <UNPREDICTABLE>
  4c:	2f2f2f30 	svccs	0x002f2f30
  50:	322f2f2f 	eorcc	r2, pc, #188	; 0xbc
  54:	322f322f 	eorcc	r3, pc, #-268435454	; 0xf0000002
  58:	322f322f 	eorcc	r3, pc, #-268435454	; 0xf0000002
  5c:	3032322f 	eorscc	r3, r2, pc, lsr #4
  60:	01000202 	tsteq	r0, r2, lsl #4
  64:	00004a01 	andeq	r4, r0, r1, lsl #20
  68:	1f000200 	svcne	0x00000200
  6c:	02000000 	andeq	r0, r0, #0
  70:	0d0efb01 	vstreq	d15, [lr, #-4]
  74:	01010100 	mrseq	r0, (UNDEF: 17)
  78:	00000001 	andeq	r0, r0, r1
  7c:	01000001 	tsteq	r0, r1
  80:	72656b00 	rsbvc	r6, r5, #0
  84:	2e6c656e 	cdpcs	5, 6, cr6, cr12, cr14, {3}
  88:	00000063 	andeq	r0, r0, r3, rrx
  8c:	05000000 	streq	r0, [r0, #-0]
  90:	0080d002 	addeq	sp, r0, r2
  94:	4c4c1a00 	mcrrmi	10, 0, r1, ip, cr0
  98:	69682f83 	stmdbvs	r8!, {r0, r1, r7, r8, r9, sl, fp, sp}^
  9c:	834c4c4e 	movthi	r4, #52302	; 0xcc4e
  a0:	4f69682f 	svcmi	0x0069682f
  a4:	d72f2f4b 	strle	r2, [pc, -fp, asr #30]!
  a8:	040200d7 	streq	r0, [r2], #-215	; 0xd7
  ac:	06022f01 	streq	r2, [r2], -r1, lsl #30
  b0:	59010100 	stmdbpl	r1, {r8}
  b4:	02000000 	andeq	r0, r0, #0
  b8:	00002100 	andeq	r2, r0, r0, lsl #2
  bc:	fb010200 	blx	408c6 <__bss_end+0x37946>
  c0:	01000d0e 	tsteq	r0, lr, lsl #26
  c4:	00010101 	andeq	r0, r1, r1, lsl #2
  c8:	00010000 	andeq	r0, r1, r0
  cc:	70000100 	andvc	r0, r0, r0, lsl #2
  d0:	6c417968 	mcrrvs	9, 6, r7, r1, cr8
  d4:	2e636f6c 	cdpcs	15, 6, cr6, cr3, cr12, {3}
  d8:	00000063 	andeq	r0, r0, r3, rrx
  dc:	05000000 	streq	r0, [r0, #-0]
  e0:	0081b002 	addeq	fp, r1, r2
  e4:	010c0300 	mrseq	r0, LR_mon
  e8:	2f2f4c67 	svccs	0x002f4c67
  ec:	0402002f 	streq	r0, [r2], #-47	; 0x2f
  f0:	02002c01 	andeq	r2, r0, #256	; 0x100
  f4:	4a060204 	bmi	18090c <__bss_end+0x17798c>
  f8:	4b4b8606 	blmi	12e1918 <__bss_end+0x12d8998>
  fc:	4c4cbbf4 	mcrrmi	11, 15, fp, ip, cr4
 100:	3083da2f 	addcc	sp, r3, pc, lsr #20
 104:	864b6783 	strbhi	r6, [fp], -r3, lsl #15
 108:	029f6767 	addseq	r6, pc, #27000832	; 0x19c0000
 10c:	01010008 	tsteq	r1, r8
 110:	0000004f 	andeq	r0, r0, pc, asr #32
 114:	001b0002 	andseq	r0, fp, r2
 118:	01020000 	mrseq	r0, (UNDEF: 2)
 11c:	000d0efb 	strdeq	r0, [sp], -fp
 120:	01010101 	tsteq	r1, r1, lsl #2
 124:	01000000 	mrseq	r0, (UNDEF: 0)
 128:	00010000 	andeq	r0, r1, r0
 12c:	632e7768 	teqvs	lr, #27262976	; 0x1a00000
 130:	00000000 	andeq	r0, r0, r0
 134:	02050000 	andeq	r0, r5, #0
 138:	000082e8 	andeq	r8, r0, r8, ror #5
 13c:	4b011c03 	blmi	47150 <__bss_end+0x3e1d0>
 140:	67686767 	strbvs	r6, [r8, -r7, ror #14]!
 144:	9f6767a1 	svcls	0x006767a1
 148:	2fa66768 	svccs	0x00a66768
 14c:	672f4e67 	strvs	r4, [pc, -r7, ror #28]!
 150:	67674f51 			; <UNDEFINED> instruction: 0x67674f51
 154:	67696967 	strbvs	r6, [r9, -r7, ror #18]!
 158:	68696a67 	stmdavs	r9!, {r0, r1, r2, r5, r6, r9, fp, sp, lr}^
 15c:	100267a0 	andne	r6, r2, r0, lsr #15
 160:	27010100 	strcs	r0, [r1, -r0, lsl #2]
 164:	02000001 	andeq	r0, r0, #1
 168:	00003c00 	andeq	r3, r0, r0, lsl #24
 16c:	fb010200 	blx	40976 <__bss_end+0x379f6>
 170:	01000d0e 	tsteq	r0, lr, lsl #26
 174:	00010101 	andeq	r0, r1, r1, lsl #2
 178:	00010000 	andeq	r0, r1, r0
 17c:	6e000100 	adfvss	f0, f0, f0
 180:	735f7765 	cmpvc	pc, #26476544	; 0x1940000
 184:	64656863 	strbtvs	r6, [r5], #-2147	; 0x863
 188:	0000632e 	andeq	r6, r0, lr, lsr #6
 18c:	79740000 	ldmdbvc	r4!, {}^	; <UNPREDICTABLE>
 190:	2e736570 	mrccs	5, 3, r6, cr3, cr0, {3}
 194:	00000068 	andeq	r0, r0, r8, rrx
 198:	77656e00 	strbvc	r6, [r5, -r0, lsl #28]!
 19c:	6863735f 	stmdavs	r3!, {r0, r1, r2, r3, r4, r6, r8, r9, ip, sp, lr}^
 1a0:	682e6465 	stmdavs	lr!, {r0, r2, r5, r6, sl, sp, lr}
 1a4:	00000000 	andeq	r0, r0, r0
 1a8:	02050000 	andeq	r0, r5, #0
 1ac:	0000847c 	andeq	r8, r0, ip, ror r4
 1b0:	a0011203 	andge	r1, r1, r3, lsl #4
 1b4:	83a0d79f 	movhi	sp, #41680896	; 0x27c0000
 1b8:	679f849f 			; <UNDEFINED> instruction: 0x679f849f
 1bc:	bb9fbb6b 	bllt	fe7eef70 <__bss_end+0xfe7e5ff0>
 1c0:	67676767 	strbvs	r6, [r7, -r7, ror #14]!
 1c4:	6aa0bb68 	bvs	fe82ef6c <__bss_end+0xfe825fec>
 1c8:	9f2f9fd7 	svcls	0x002f9fd7
 1cc:	83833168 	orrhi	r3, r3, #26
 1d0:	0f034d2f 	svceq	0x00034d2f
 1d4:	bbd7bb2e 	bllt	ff5eee94 <__bss_end+0xff5e5f14>
 1d8:	d783a09f 			; <UNDEFINED> instruction: 0xd783a09f
 1dc:	9f4b6884 	svcls	0x004b6884
 1e0:	d7832208 	strle	r2, [r3, r8, lsl #4]
 1e4:	16039f2f 	strne	r9, [r3], -pc, lsr #30
 1e8:	2fa1149e 	svccs	0x00a1149e
 1ec:	9f30a09f 	svcls	0x0030a09f
 1f0:	9f2f2fa0 	svcls	0x002f2fa0
 1f4:	a014194b 	andsge	r1, r4, fp, asr #18
 1f8:	2f302f2f 	svccs	0x00302f2f
 1fc:	2f839f9f 	svccs	0x00839f9f
 200:	9f9f9f84 	svcls	0x009f9f84
 204:	1a4b9f2f 	bne	12e7ec8 <__bss_end+0x12def48>
 208:	1d08a14b 	stfned	f2, [r8, #-300]	; 0xfffffed4
 20c:	bc858587 	cfstr32lt	mvfx8, [r5], {135}	; 0x87
 210:	0200f49f 	andeq	pc, r0, #-1627389952	; 0x9f000000
 214:	00670204 	rsbeq	r0, r7, r4, lsl #4
 218:	02020402 	andeq	r0, r2, #33554432	; 0x2000000
 21c:	0200112a 	andeq	r1, r0, #-2147483638	; 0x8000000a
 220:	66060104 	strvs	r0, [r6], -r4, lsl #2
 224:	5908a106 	stmdbpl	r8, {r1, r2, r8, sp, pc}
 228:	0283d869 	addeq	sp, r3, #6881280	; 0x690000
 22c:	2c021334 	stccs	3, cr1, [r2], {52}	; 0x34
 230:	0402000e 	streq	r0, [r2], #-14
 234:	064a0601 	strbeq	r0, [sl], -r1, lsl #12
 238:	c9083185 	stmdbgt	r8, {r0, r2, r7, r8, ip, sp}
 23c:	2802696c 	stmdacs	r2, {r2, r3, r5, r6, r8, fp, sp, lr}
 240:	04020014 	streq	r0, [r2], #-20
 244:	06d60601 	ldrbeq	r0, [r6], r1, lsl #12
 248:	00f49fbc 	ldrhteq	r9, [r4], #252	; 0xfc
 24c:	67020402 	strvs	r0, [r2, -r2, lsl #8]
 250:	02040200 	andeq	r0, r4, #0
 254:	00132a02 	andseq	r2, r3, r2, lsl #20
 258:	08020402 	stmdaeq	r2, {r1, sl}
 25c:	0402003a 	streq	r0, [r2], #-58	; 0x3a
 260:	06660601 	strbteq	r0, [r6], -r1, lsl #12
 264:	695908a2 	ldmdbvs	r9, {r1, r5, r7, fp}^
 268:	679f834c 	ldrvs	r8, [pc, ip, asr #6]
 26c:	01040200 	mrseq	r0, R12_usr
 270:	02069e06 	andeq	r9, r6, #96	; 0x60
 274:	3002132c 	andcc	r1, r2, ip, lsr #6
 278:	02780314 	rsbseq	r0, r8, #1342177280	; 0x50000000
 27c:	0903012c 	stmdbeq	r3, {r2, r3, r5, r8}
 280:	2e7a034a 	cdpcs	3, 7, cr0, cr10, cr10, {2}
 284:	ae08324d 	cdpge	2, 0, cr3, cr8, cr13, {2}
 288:	00080267 	andeq	r0, r8, r7, ror #4
 28c:	Address 0x000000000000028c is out of bounds.


Disassembly of section .debug_info:

00000000 <.debug_info>:
   0:	00000051 	andeq	r0, r0, r1, asr r0
   4:	00000002 	andeq	r0, r0, r2
   8:	01040000 	mrseq	r0, (UNDEF: 4)
   c:	00000000 	andeq	r0, r0, r0
  10:	00008000 	andeq	r8, r0, r0
  14:	000080d0 	ldrdeq	r8, [r0], -r0
  18:	74636576 	strbtvc	r6, [r3], #-1398	; 0x576
  1c:	2e73726f 	cdpcs	2, 7, cr7, cr3, cr15, {3}
  20:	682f0073 	stmdavs	pc!, {r0, r1, r4, r5, r6}	; <UNPREDICTABLE>
  24:	2f656d6f 	svccs	0x00656d6f
  28:	746e616b 	strbtvc	r6, [lr], #-363	; 0x16b
  2c:	656e696f 	strbvs	r6, [lr, #-2415]!	; 0x96f
  30:	636f442f 	cmnvs	pc, #788529152	; 0x2f000000
  34:	6e656d75 	mcrvs	13, 3, r6, cr5, cr5, {3}
  38:	6f2f7374 	svcvs	0x002f7374
  3c:	65697073 	strbvs	r7, [r9, #-115]!	; 0x73
  40:	6174732d 	cmnvs	r4, sp, lsr #6
  44:	47007472 	smlsdxmi	r0, r2, r4, r7
  48:	4120554e 	teqmi	r0, lr, asr #10
  4c:	2e322053 	mrccs	0, 1, r2, cr2, cr3, {2}
  50:	01003232 	tsteq	r0, r2, lsr r2
  54:	0000ce80 	andeq	ip, r0, r0, lsl #29
  58:	14000200 	strne	r0, [r0], #-512	; 0x200
  5c:	04000000 	streq	r0, [r0], #-0
  60:	00000c01 	andeq	r0, r0, r1, lsl #24
  64:	008e0100 	addeq	r0, lr, r0, lsl #2
  68:	00220000 	eoreq	r0, r2, r0
  6c:	80d00000 	sbcshi	r0, r0, r0
  70:	81b00000 	movshi	r0, r0
  74:	00650000 	rsbeq	r0, r5, r0
  78:	02020000 	andeq	r0, r2, #0
  7c:	00007b07 	andeq	r7, r0, r7, lsl #22
  80:	07040200 	streq	r0, [r4, -r0, lsl #4]
  84:	00000081 	andeq	r0, r0, r1, lsl #1
  88:	5b080102 	blpl	200498 <__bss_end+0x1f7518>
  8c:	03000000 	movweq	r0, #0
  90:	00005501 	andeq	r5, r0, r1, lsl #10
  94:	d0080100 	andle	r0, r8, r0, lsl #2
  98:	14000080 	strne	r0, [r0], #-128	; 0x80
  9c:	00000081 	andeq	r0, r0, r1, lsl #1
  a0:	01000000 	mrseq	r0, (UNDEF: 0)
  a4:	00000062 	andeq	r0, r0, r2, rrx
  a8:	00001804 	andeq	r1, r0, r4, lsl #16
  ac:	620b0100 	andvs	r0, fp, #0
  b0:	02000000 	andeq	r0, r0, #0
  b4:	05007491 	streq	r7, [r0, #-1169]	; 0x491
  b8:	6e690504 	cdpvs	5, 6, cr0, cr9, cr4, {0}
  bc:	01030074 	tsteq	r3, r4, ror r0
  c0:	00000069 	andeq	r0, r0, r9, rrx
  c4:	81141701 	tsthi	r4, r1, lsl #14
  c8:	81580000 	cmphi	r8, r0
  cc:	002c0000 	eoreq	r0, ip, r0
  d0:	91010000 	mrsls	r0, (UNDEF: 1)
  d4:	04000000 	streq	r0, [r0], #-0
  d8:	0000001d 	andeq	r0, r0, sp, lsl r0
  dc:	00621a01 	rsbeq	r1, r2, r1, lsl #20
  e0:	91020000 	mrsls	r0, (UNDEF: 2)
  e4:	01060074 	tsteq	r6, r4, ror r0
  e8:	00000000 	andeq	r0, r0, r0
  ec:	62012701 	andvs	r2, r1, #262144	; 0x40000
  f0:	58000000 	stmdapl	r0, {}	; <UNPREDICTABLE>
  f4:	b0000081 	andlt	r0, r0, r1, lsl #1
  f8:	58000081 	stmdapl	r0, {r0, r7}
  fc:	01000000 	mrseq	r0, (UNDEF: 0)
 100:	000000bf 	strheq	r0, [r0], -pc	; <UNPREDICTABLE>
 104:	006f0107 	rsbeq	r0, pc, r7, lsl #2
 108:	2d010000 	stccs	0, cr0, [r1, #-0]
 10c:	00000062 	andeq	r0, r0, r2, rrx
 110:	00000801 	andeq	r0, r0, r1, lsl #16
 114:	00000609 	andeq	r0, r0, r9, lsl #12
 118:	62060100 	andvs	r0, r6, #0
 11c:	01000000 	mrseq	r0, (UNDEF: 0)
 120:	8f780305 	svchi	0x00780305
 124:	5e000000 	cdppl	0, 0, cr0, cr0, cr0, {0}
 128:	02000001 	andeq	r0, r0, #1
 12c:	0000a800 	andeq	sl, r0, r0, lsl #16
 130:	0c010400 	cfstrseq	mvf0, [r1], {-0}
 134:	01000000 	mrseq	r0, (UNDEF: 0)
 138:	00000097 	muleq	r0, r7, r0
 13c:	000000f6 	strdeq	r0, [r0], -r6
 140:	000081b0 			; <UNDEFINED> instruction: 0x000081b0
 144:	000082e8 	andeq	r8, r0, r8, ror #5
 148:	000000b3 	strheq	r0, [r0], -r3
 14c:	006c6602 	rsbeq	r6, ip, r2, lsl #12
 150:	4d030108 	stfmis	f0, [r3, #-32]	; 0xffffffe0
 154:	03000000 	movweq	r0, #0
 158:	000000c9 	andeq	r0, r0, r9, asr #1
 15c:	004d0401 	subeq	r0, sp, r1, lsl #8
 160:	23020000 	movwcs	r0, #8192	; 0x2000
 164:	02590300 	subseq	r0, r9, #0
 168:	05010000 	streq	r0, [r1, #-0]
 16c:	00000053 	andeq	r0, r0, r3, asr r0
 170:	00042302 	andeq	r2, r4, r2, lsl #6
 174:	00250404 	eoreq	r0, r5, r4, lsl #8
 178:	04050000 	streq	r0, [r5], #-0
 17c:	00008107 	andeq	r8, r0, r7, lsl #2
 180:	ce010600 	cfmadd32gt	mvax0, mvfx0, mvfx1, mvfx0
 184:	01000000 	mrseq	r0, (UNDEF: 0)
 188:	009f010c 	addseq	r0, pc, ip, lsl #2
 18c:	81b00000 	movshi	r0, r0
 190:	82640000 	rsbhi	r0, r4, #0
 194:	00840000 	addeq	r0, r4, r0
 198:	9f010000 	svcls	0x00010000
 19c:	07000000 	streq	r0, [r0, -r0]
 1a0:	00000259 	andeq	r0, r0, r9, asr r2
 1a4:	00530c01 	subseq	r0, r3, r1, lsl #24
 1a8:	91020000 	mrsls	r0, (UNDEF: 2)
 1ac:	00660874 	rsbeq	r0, r6, r4, ror r8
 1b0:	004d0e01 	subeq	r0, sp, r1, lsl #28
 1b4:	54010000 	strpl	r0, [r1], #-0
 1b8:	0000a209 	andeq	sl, r0, r9, lsl #4
 1bc:	a10e0100 	mrsge	r0, (UNDEF: 30)
 1c0:	01000000 	mrseq	r0, (UNDEF: 0)
 1c4:	040a0055 	streq	r0, [sl], #-85	; 0x55
 1c8:	004d0404 	subeq	r0, sp, r4, lsl #8
 1cc:	010b0000 	mrseq	r0, (UNDEF: 11)
 1d0:	000000b0 	strheq	r0, [r0], -r0	; <UNPREDICTABLE>
 1d4:	64012201 	strvs	r2, [r1], #-513	; 0x201
 1d8:	ac000082 	stcge	0, cr0, [r0], {130}	; 0x82
 1dc:	b0000082 	andlt	r0, r0, r2, lsl #1
 1e0:	01000000 	mrseq	r0, (UNDEF: 0)
 1e4:	000000e9 	andeq	r0, r0, r9, ror #1
 1e8:	7274700c 	rsbsvc	r7, r4, #12
 1ec:	9f220100 	svcls	0x00220100
 1f0:	02000000 	andeq	r0, r0, #0
 1f4:	59077491 	stmdbpl	r7, {r0, r4, r7, sl, ip, sp, lr}
 1f8:	01000002 	tsteq	r0, r2
 1fc:	00005322 	andeq	r5, r0, r2, lsr #6
 200:	70910200 	addsvc	r0, r1, r0, lsl #4
 204:	01006608 	tsteq	r0, r8, lsl #12
 208:	00004d24 	andeq	r4, r0, r4, lsr #26
 20c:	00540100 	subseq	r0, r4, r0, lsl #2
 210:	00dd010b 	sbcseq	r0, sp, fp, lsl #2
 214:	2c010000 	stccs	0, cr0, [r1], {-0}
 218:	0082ac01 	addeq	sl, r2, r1, lsl #24
 21c:	0082e800 	addeq	lr, r2, r0, lsl #16
 220:	0000dc00 	andeq	sp, r0, r0, lsl #24
 224:	01200100 	teqeq	r0, r0, lsl #2
 228:	be070000 	cdplt	0, 0, cr0, cr7, cr0, {0}
 22c:	01000000 	mrseq	r0, (UNDEF: 0)
 230:	0001202c 	andeq	r2, r1, ip, lsr #32
 234:	7c910200 	lfmvc	f0, 4, [r1], {0}
 238:	00011b07 	andeq	r1, r1, r7, lsl #22
 23c:	532c0100 	teqpl	ip, #0
 240:	02000000 	andeq	r0, r0, #0
 244:	04007891 	streq	r7, [r0], #-2193	; 0x891
 248:	00012604 	andeq	r2, r1, r4, lsl #12
 24c:	08010500 	stmdaeq	r1, {r8, sl}
 250:	00000064 	andeq	r0, r0, r4, rrx
 254:	706f7408 	rsbvc	r7, pc, r8, lsl #8
 258:	20080100 	andcs	r0, r8, r0, lsl #2
 25c:	05000001 	streq	r0, [r0, #-1]
 260:	008f5803 	addeq	r5, pc, r3, lsl #16
 264:	00eb0900 	rsceq	r0, fp, r0, lsl #18
 268:	09010000 	stmdbeq	r1, {}	; <UNPREDICTABLE>
 26c:	00000120 	andeq	r0, r0, r0, lsr #2
 270:	8f5c0305 	svchi	0x005c0305
 274:	a70d0000 	strge	r0, [sp, -r0]
 278:	01000000 	mrseq	r0, (UNDEF: 0)
 27c:	00004d06 	andeq	r4, r0, r6, lsl #26
 280:	03050100 	movweq	r0, #20736	; 0x5100
 284:	00008f54 	andeq	r8, r0, r4, asr pc
 288:	0000ee00 	andeq	lr, r0, r0, lsl #28
 28c:	78000200 	stmdavc	r0, {r9}
 290:	04000001 	streq	r0, [r0], #-1
 294:	00000c01 	andeq	r0, r0, r1, lsl #24
 298:	01250100 	teqeq	r5, r0, lsl #2
 29c:	00220000 	eoreq	r0, r2, r0
 2a0:	82e80000 	rschi	r0, r8, #0
 2a4:	847c0000 	ldrbthi	r0, [ip], #-0
 2a8:	01100000 	tsteq	r0, r0
 2ac:	02020000 	andeq	r0, r2, #0
 2b0:	00007b07 	andeq	r7, r0, r7, lsl #22
 2b4:	07040200 	streq	r0, [r4, -r0, lsl #4]
 2b8:	00000081 	andeq	r0, r0, r1, lsl #1
 2bc:	5b080102 	blpl	2006cc <__bss_end+0x1f774c>
 2c0:	03000000 	movweq	r0, #0
 2c4:	00013101 	andeq	r3, r1, r1, lsl #2
 2c8:	e81c0100 	ldmda	ip, {r8}
 2cc:	34000082 	strcc	r0, [r0], #-130	; 0x82
 2d0:	fc000083 	stc2	0, cr0, [r0], {131}	; 0x83
 2d4:	01000000 	mrseq	r0, (UNDEF: 0)
 2d8:	00000061 	andeq	r0, r0, r1, rrx
 2dc:	00787204 	rsbseq	r7, r8, r4, lsl #4
 2e0:	002c1e01 	eoreq	r1, ip, r1, lsl #28
 2e4:	91020000 	mrsls	r0, (UNDEF: 2)
 2e8:	01050074 	tsteq	r5, r4, ror r0
 2ec:	00000153 	andeq	r0, r0, r3, asr r1
 2f0:	34012501 	strcc	r2, [r1], #-1281	; 0x501
 2f4:	8c000083 	stchi	0, cr0, [r0], {131}	; 0x83
 2f8:	28000083 	stmdacs	r0, {r0, r1, r7}
 2fc:	01000001 	tsteq	r0, r1
 300:	00000097 	muleq	r0, r7, r0
 304:	00016d06 	andeq	r6, r1, r6, lsl #26
 308:	2c250100 	stfcss	f0, [r5], #-0
 30c:	02000000 	andeq	r0, r0, #0
 310:	72046c91 	andvc	r6, r4, #37120	; 0x9100
 314:	27010078 	smlsdxcs	r1, r8, r0, r0
 318:	0000002c 	andeq	r0, r0, ip, lsr #32
 31c:	00749102 	rsbseq	r9, r4, r2, lsl #2
 320:	01760107 	cmneq	r6, r7, lsl #2
 324:	33010000 	movwcc	r0, #4096	; 0x1000
 328:	0000838c 	andeq	r8, r0, ip, lsl #7
 32c:	000083a4 	andeq	r8, r0, r4, lsr #7
 330:	00000154 	andeq	r0, r0, r4, asr r1
 334:	2a010701 	bcs	41f40 <__bss_end+0x38fc0>
 338:	01000001 	tsteq	r0, r1
 33c:	0083a439 	addeq	sl, r3, r9, lsr r4
 340:	0083bc00 	addeq	fp, r3, r0, lsl #24
 344:	00017400 	andeq	r7, r1, r0, lsl #8
 348:	01080100 	mrseq	r0, (UNDEF: 24)
 34c:	0000014b 	andeq	r0, r0, fp, asr #2
 350:	83bc4201 			; <UNDEFINED> instruction: 0x83bc4201
 354:	847c0000 	ldrbthi	r0, [ip], #-0
 358:	01940000 	orrseq	r0, r4, r0
 35c:	04010000 	streq	r0, [r1], #-0
 360:	01006172 	tsteq	r0, r2, ror r1
 364:	00002c44 	andeq	r2, r0, r4, asr #24
 368:	74910200 	ldrvc	r0, [r1], #512	; 0x200
 36c:	00787204 	rsbseq	r7, r8, r4, lsl #4
 370:	002c4501 	eoreq	r4, ip, r1, lsl #10
 374:	91020000 	mrsls	r0, (UNDEF: 2)
 378:	7e000070 	mcrvc	0, 0, r0, cr0, cr0, {3}
 37c:	02000004 	andeq	r0, r0, #4
 380:	00021300 	andeq	r1, r2, r0, lsl #6
 384:	0c010400 	cfstrseq	mvf0, [r1], {-0}
 388:	01000000 	mrseq	r0, (UNDEF: 0)
 38c:	00000212 	andeq	r0, r0, r2, lsl r2
 390:	00000022 	andeq	r0, r0, r2, lsr #32
 394:	0000847c 	andeq	r8, r0, ip, ror r4
 398:	00008f54 	andeq	r8, r0, r4, asr pc
 39c:	00000163 	andeq	r0, r0, r3, ror #2
 3a0:	7b070202 	blvc	1c0bb0 <__bss_end+0x1b7c30>
 3a4:	03000000 	movweq	r0, #0
 3a8:	0000023b 	andeq	r0, r0, fp, lsr r2
 3ac:	00370502 	eorseq	r0, r7, r2, lsl #10
 3b0:	04020000 	streq	r0, [r2], #-0
 3b4:	00008107 	andeq	r8, r0, r7, lsl #2
 3b8:	08010200 	stmdaeq	r1, {r9}
 3bc:	0000005b 	andeq	r0, r0, fp, asr r0
 3c0:	00026903 	andeq	r6, r2, r3, lsl #18
 3c4:	50070300 	andpl	r0, r7, r0, lsl #6
 3c8:	04000000 	streq	r0, [r0], #-0
 3cc:	00005604 	andeq	r5, r0, r4, lsl #12
 3d0:	06010500 	streq	r0, [r1], -r0, lsl #10
 3d4:	85080301 	strhi	r0, [r8, #-769]	; 0x301
 3d8:	07000000 	streq	r0, [r0, -r0]
 3dc:	0000027f 	andeq	r0, r0, pc, ror r2
 3e0:	02700700 	rsbseq	r0, r0, #0
 3e4:	07010000 	streq	r0, [r1, -r0]
 3e8:	0000018d 	andeq	r0, r0, sp, lsl #3
 3ec:	01c10702 	biceq	r0, r1, r2, lsl #14
 3f0:	07030000 	streq	r0, [r3, -r0]
 3f4:	000001ba 			; <UNDEFINED> instruction: 0x000001ba
 3f8:	02e30704 	rsceq	r0, r3, #1048576	; 0x100000
 3fc:	00050000 	andeq	r0, r5, r0
 400:	0001c803 	andeq	ip, r1, r3, lsl #16
 404:	580f0300 	stmdapl	pc, {r8, r9}	; <UNPREDICTABLE>
 408:	08000000 	stmdaeq	r0, {}	; <UNPREDICTABLE>
 40c:	000001fa 	strdeq	r0, [r0], -sl
 410:	b7120308 	ldrlt	r0, [r2, -r8, lsl #6]
 414:	09000000 	stmdbeq	r0, {}	; <UNPREDICTABLE>
 418:	03007073 	movweq	r7, #115	; 0x73
 41c:	0000b713 	andeq	fp, r0, r3, lsl r7
 420:	00230200 	eoreq	r0, r3, r0, lsl #4
 424:	00726c09 	rsbseq	r6, r2, r9, lsl #24
 428:	00b71403 	adcseq	r1, r7, r3, lsl #8
 42c:	23020000 	movwcs	r0, #8192	; 0x2000
 430:	04040004 	streq	r0, [r4], #-4
 434:	0000002c 	andeq	r0, r0, ip, lsr #32
 438:	0001d608 	andeq	sp, r1, r8, lsl #12
 43c:	19031c00 	stmdbne	r3, {sl, fp, ip}
 440:	0000012a 	andeq	r0, r0, sl, lsr #2
 444:	0001d00a 	andeq	sp, r1, sl
 448:	851a0300 	ldrhi	r0, [sl, #-768]	; 0x300
 44c:	02000000 	andeq	r0, r0, #0
 450:	63090023 	movwvs	r0, #36899	; 0x9023
 454:	03007874 	movweq	r7, #2164	; 0x874
 458:	00012a1b 	andeq	r2, r1, fp, lsl sl
 45c:	04230200 	strteq	r0, [r3], #-512	; 0x200
 460:	0000c90a 	andeq	ip, r0, sl, lsl #18
 464:	301c0300 	andscc	r0, ip, r0, lsl #6
 468:	02000001 	andeq	r0, r0, #1
 46c:	ac0a0823 	stcge	8, cr0, [sl], {35}	; 0x23
 470:	03000002 	movweq	r0, #2
 474:	0001361d 	andeq	r3, r1, sp, lsl r6
 478:	0c230200 	sfmeq	f0, 4, [r3], #-0
 47c:	03006609 	movweq	r6, #1545	; 0x609
 480:	0000451e 	andeq	r4, r0, lr, lsl r5
 484:	10230200 	eorne	r0, r3, r0, lsl #4
 488:	00016d0a 	andeq	r6, r1, sl, lsl #26
 48c:	371f0300 	ldrcc	r0, [pc, -r0, lsl #6]
 490:	02000000 	andeq	r0, r0, #0
 494:	470a1423 	strmi	r1, [sl, -r3, lsr #8]
 498:	03000002 	movweq	r0, #2
 49c:	00003720 	andeq	r3, r0, r0, lsr #14
 4a0:	18230200 	stmdane	r3!, {r9}
 4a4:	90040400 	andls	r0, r4, r0, lsl #8
 4a8:	04000000 	streq	r0, [r0], #-0
 4ac:	0000bd04 	andeq	fp, r0, r4, lsl #26
 4b0:	08040b00 	stmdaeq	r4, {r8, r9, fp}
 4b4:	0000025e 	andeq	r0, r0, lr, asr r2
 4b8:	6f23030c 	svcvs	0x0023030c
 4bc:	0a000001 	beq	4c8 <_start-0x7b38>
 4c0:	00000259 	andeq	r0, r0, r9, asr r2
 4c4:	00372503 	eorseq	r2, r7, r3, lsl #10
 4c8:	23020000 	movwcs	r0, #8192	; 0x2000
 4cc:	01950a00 	orrseq	r0, r5, r0, lsl #20
 4d0:	26030000 	strcs	r0, [r3], -r0
 4d4:	00000037 	andeq	r0, r0, r7, lsr r0
 4d8:	0a042302 	beq	1090e8 <__bss_end+0x100168>
 4dc:	000001ec 	andeq	r0, r0, ip, ror #3
 4e0:	01302703 	teqeq	r0, r3, lsl #14
 4e4:	23020000 	movwcs	r0, #8192	; 0x2000
 4e8:	010c0008 	tsteq	ip, r8
 4ec:	0000021e 	andeq	r0, r0, lr, lsl r2
 4f0:	7c011301 	stcvc	3, cr1, [r1], {1}
 4f4:	34000084 	strcc	r0, [r0], #-132	; 0x84
 4f8:	c0000085 	andgt	r0, r0, r5, lsl #1
 4fc:	01000001 	tsteq	r0, r1
 500:	000001b2 			; <UNDEFINED> instruction: 0x000001b2
 504:	7874630d 	ldmdavc	r4!, {r0, r2, r3, r8, r9, sp, lr}^
 508:	2a130100 	bcs	4c0910 <__bss_end+0x4b7990>
 50c:	02000001 	andeq	r0, r0, #1
 510:	660d7491 			; <UNDEFINED> instruction: 0x660d7491
 514:	45130100 	ldrmi	r0, [r3, #-256]	; 0x100
 518:	02000000 	andeq	r0, r0, #0
 51c:	000e7091 	muleq	lr, r1, r0
 520:	01000002 	tsteq	r0, r2
 524:	00003713 	andeq	r3, r0, r3, lsl r7
 528:	6c910200 	lfmvs	f0, 4, [r1], {0}
 52c:	b1010c00 	tstlt	r1, r0, lsl #24
 530:	01000002 	tsteq	r0, r2
 534:	85340124 	ldrhi	r0, [r4, #-292]!	; 0x124
 538:	85b40000 	ldrhi	r0, [r4, #0]!
 53c:	01ec0000 	mvneq	r0, r0
 540:	11010000 	mrsne	r0, (UNDEF: 1)
 544:	0d000002 	stceq	0, cr0, [r0, #-8]
 548:	00626370 	rsbeq	r6, r2, r0, ror r3
 54c:	01302401 	teqeq	r0, r1, lsl #8
 550:	91020000 	mrsls	r0, (UNDEF: 2)
 554:	00660d74 	rsbeq	r0, r6, r4, ror sp
 558:	00452401 	subeq	r2, r5, r1, lsl #8
 55c:	91020000 	mrsls	r0, (UNDEF: 2)
 560:	02000e70 	andeq	r0, r0, #1792	; 0x700
 564:	24010000 	strcs	r0, [r1], #-0
 568:	00000037 	andeq	r0, r0, r7, lsr r0
 56c:	0e6c9102 	lgneqe	f1, f2
 570:	0000016d 	andeq	r0, r0, sp, ror #2
 574:	00372401 	eorseq	r2, r7, r1, lsl #8
 578:	91020000 	mrsls	r0, (UNDEF: 2)
 57c:	02470e68 	subeq	r0, r7, #1664	; 0x680
 580:	24010000 	strcs	r0, [r1], #-0
 584:	00000037 	andeq	r0, r0, r7, lsr r0
 588:	00009102 	andeq	r9, r0, r2, lsl #2
 58c:	02ba010c 	adcseq	r0, sl, #3
 590:	2d010000 	stccs	0, cr0, [r1, #-0]
 594:	0085b401 	addeq	fp, r5, r1, lsl #8
 598:	00864000 	addeq	r4, r6, r0
 59c:	00021800 	andeq	r1, r2, r0, lsl #16
 5a0:	027e0100 	rsbseq	r0, lr, #0
 5a4:	660d0000 	strvs	r0, [sp], -r0
 5a8:	452d0100 	strmi	r0, [sp, #-256]!	; 0x100
 5ac:	02000000 	andeq	r0, r0, #0
 5b0:	ac0e6c91 	stcge	12, cr6, [lr], {145}	; 0x91
 5b4:	01000002 	tsteq	r0, r2
 5b8:	0001362d 	andeq	r3, r1, sp, lsr #12
 5bc:	68910200 	ldmvs	r1, {r9}
 5c0:	0002000e 	andeq	r0, r2, lr
 5c4:	372d0100 	strcc	r0, [sp, -r0, lsl #2]!
 5c8:	02000000 	andeq	r0, r0, #0
 5cc:	6d0e6491 	cfstrsvs	mvf6, [lr, #-580]	; 0xfffffdbc
 5d0:	01000001 	tsteq	r0, r1
 5d4:	0000372d 	andeq	r3, r0, sp, lsr #14
 5d8:	60910200 	addsvs	r0, r1, r0, lsl #4
 5dc:	0002470e 	andeq	r4, r2, lr, lsl #14
 5e0:	372d0100 	strcc	r0, [sp, -r0, lsl #2]!
 5e4:	02000000 	andeq	r0, r0, #0
 5e8:	700f0091 	mulvc	pc, r1, r0	; <UNPREDICTABLE>
 5ec:	01006263 	tsteq	r0, r3, ror #4
 5f0:	00013030 	andeq	r3, r1, r0, lsr r0
 5f4:	74910200 	ldrvc	r0, [r1], #512	; 0x200
 5f8:	9b011000 	blls	44600 <__bss_end+0x3b680>
 5fc:	01000001 	tsteq	r0, r1
 600:	0086403a 	addeq	r4, r6, sl, lsr r0
 604:	00867000 	addeq	r7, r6, r0
 608:	00024400 	andeq	r4, r2, r0, lsl #8
 60c:	01100100 	tsteq	r0, r0, lsl #2
 610:	00000263 	andeq	r0, r0, r3, ror #4
 614:	86704301 	ldrbthi	r4, [r0], -r1, lsl #6
 618:	87300000 	ldrhi	r0, [r0, -r0]!
 61c:	02640000 	rsbeq	r0, r4, #0
 620:	10010000 	andne	r0, r1, r0
 624:	00006f01 	andeq	r6, r0, r1, lsl #30
 628:	305e0100 	subscc	r0, lr, r0, lsl #2
 62c:	c8000087 	stmdagt	r0, {r0, r1, r2, r7}
 630:	84000087 	strhi	r0, [r0], #-135	; 0x87
 634:	01000002 	tsteq	r0, r2
 638:	01e10111 	mvneq	r0, r1, lsl r1
 63c:	7c010000 	stcvc	0, cr0, [r1], {-0}
 640:	000087c8 	andeq	r8, r0, r8, asr #15
 644:	00008858 	andeq	r8, r0, r8, asr r8
 648:	01007d02 	tsteq	r0, r2, lsl #26
 64c:	02270111 	eoreq	r0, r7, #1073741828	; 0x40000004
 650:	95010000 	strls	r0, [r1, #-0]
 654:	00008858 	andeq	r8, r0, r8, asr r8
 658:	00008924 	andeq	r8, r0, r4, lsr #18
 65c:	01007d02 	tsteq	r0, r2, lsl #26
 660:	02a20110 	adceq	r0, r2, #4
 664:	b1010000 	mrslt	r0, (UNDEF: 1)
 668:	00008924 	andeq	r8, r0, r4, lsr #18
 66c:	00008984 	andeq	r8, r0, r4, lsl #19
 670:	000002b0 			; <UNDEFINED> instruction: 0x000002b0
 674:	cf010c01 	svcgt	0x00010c01
 678:	01000002 	tsteq	r0, r2
 67c:	898401ba 	stmibhi	r4, {r1, r3, r4, r5, r7, r8}
 680:	8be80000 	blhi	ffa00688 <__bss_end+0xff9f7708>
 684:	02dc0000 	sbcseq	r0, ip, #0
 688:	6f010000 	svcvs	0x00010000
 68c:	0d000003 	stceq	0, cr0, [r0, #-12]
 690:	ba010068 	blt	40838 <__bss_end+0x378b8>
 694:	0000036f 	andeq	r0, r0, pc, ror #6
 698:	0e649102 	lgneqs	f1, f2
 69c:	0000029c 	muleq	r0, ip, r2
 6a0:	0130ba01 	teqeq	r0, r1, lsl #20
 6a4:	91020000 	mrsls	r0, (UNDEF: 2)
 6a8:	02c91260 	sbceq	r1, r9, #6
 6ac:	bc010000 	stclt	0, cr0, [r1], {-0}
 6b0:	00000037 	andeq	r0, r0, r7, lsr r0
 6b4:	12749102 	rsbsne	r9, r4, #-2147483648	; 0x80000000
 6b8:	0000020b 	andeq	r0, r0, fp, lsl #4
 6bc:	0037bc01 	eorseq	fp, r7, r1, lsl #24
 6c0:	91020000 	mrsls	r0, (UNDEF: 2)
 6c4:	89ac1368 	stmibhi	ip!, {r3, r5, r6, r8, r9, ip}
 6c8:	8a980000 	bhi	fe6006d0 <__bss_end+0xfe5f7750>
 6cc:	42120000 	andsmi	r0, r2, #0
 6d0:	01000002 	tsteq	r0, r2
 6d4:	000130c1 	andeq	r3, r1, r1, asr #1
 6d8:	6c910200 	lfmvs	f0, 4, [r1], {0}
 6dc:	0100690f 	tsteq	r0, pc, lsl #18
 6e0:	000375c2 	andeq	r7, r3, r2, asr #11
 6e4:	70910200 	addsvc	r0, r1, r0, lsl #4
 6e8:	04040000 	streq	r0, [r4], #-0
 6ec:	00000138 	andeq	r0, r0, r8, lsr r1
 6f0:	69050414 	stmdbvs	r5, {r2, r4, sl}
 6f4:	0c00746e 	cfstrseq	mvf7, [r0], {110}	; 0x6e
 6f8:	0001b101 	andeq	fp, r1, r1, lsl #2
 6fc:	01d60100 	bicseq	r0, r6, r0, lsl #2
 700:	00008be8 	andeq	r8, r0, r8, ror #23
 704:	00008f54 	andeq	r8, r0, r4, asr pc
 708:	00000308 	andeq	r0, r0, r8, lsl #6
 70c:	0003ff01 	andeq	pc, r3, r1, lsl #30
 710:	00680d00 	rsbeq	r0, r8, r0, lsl #26
 714:	036fd601 	cmneq	pc, #1048576	; 0x100000
 718:	91020000 	mrsls	r0, (UNDEF: 2)
 71c:	02c91244 	sbceq	r1, r9, #1073741828	; 0x40000004
 720:	d8010000 	stmdale	r1, {}	; <UNPREDICTABLE>
 724:	00000037 	andeq	r0, r0, r7, lsr r0
 728:	12749102 	rsbsne	r9, r4, #-2147483648	; 0x80000000
 72c:	000001dc 	ldrdeq	r0, [r0], -ip
 730:	0037d801 	eorseq	sp, r7, r1, lsl #16
 734:	91020000 	mrsls	r0, (UNDEF: 2)
 738:	02ee1270 	rsceq	r1, lr, #7
 73c:	d8010000 	stmdale	r1, {}	; <UNPREDICTABLE>
 740:	00000037 	andeq	r0, r0, r7, lsr r0
 744:	12649102 	rsbne	r9, r4, #-2147483648	; 0x80000000
 748:	0000017e 	andeq	r0, r0, lr, ror r1
 74c:	00bdda01 	adcseq	sp, sp, r1, lsl #20
 750:	91020000 	mrsls	r0, (UNDEF: 2)
 754:	8c781348 	ldclhi	3, cr1, [r8], #-288	; 0xfffffee0
 758:	8d8c0000 	stchi	0, cr0, [ip]
 75c:	42120000 	andsmi	r0, r2, #0
 760:	01000002 	tsteq	r0, r2
 764:	000130df 	ldrdeq	r3, [r1], -pc	; <UNPREDICTABLE>
 768:	68910200 	ldmvs	r1, {r9}
 76c:	0100690f 	tsteq	r0, pc, lsl #18
 770:	000375e0 	andeq	r7, r3, r0, ror #11
 774:	6c910200 	lfmvs	f0, 4, [r1], {0}
 778:	54120000 	ldrpl	r0, [r2], #-0
 77c:	01000002 	tsteq	r0, r2
 780:	0004100e 	andeq	r1, r4, lr
 784:	74030500 	strvc	r0, [r3], #-1280	; 0x500
 788:	1500008f 	strne	r0, [r0, #-143]	; 0x8f
 78c:	00000037 	andeq	r0, r0, r7, lsr r0
 790:	00029016 	andeq	r9, r2, r6, lsl r0
 794:	2a070100 	bcs	1c0b9c <__bss_end+0x1b7c1c>
 798:	01000001 	tsteq	r0, r1
 79c:	8f7c0305 	svchi	0x007c0305
 7a0:	76160000 	ldrvc	r0, [r6], -r0
 7a4:	01000002 	tsteq	r0, r2
 7a8:	00013008 	andeq	r3, r1, r8
 7ac:	03050100 	movweq	r0, #20736	; 0x5100
 7b0:	00008f60 	andeq	r8, r0, r0, ror #30
 7b4:	0001f116 	andeq	pc, r1, r6, lsl r1	; <UNPREDICTABLE>
 7b8:	30090100 	andcc	r0, r9, r0, lsl #2
 7bc:	01000001 	tsteq	r0, r1
 7c0:	8f640305 	svchi	0x00640305
 7c4:	87160000 	ldrhi	r0, [r6, -r0]
 7c8:	01000002 	tsteq	r0, r2
 7cc:	0001300a 	andeq	r3, r1, sl
 7d0:	03050100 	movweq	r0, #20736	; 0x5100
 7d4:	00008f68 	andeq	r8, r0, r8, ror #30
 7d8:	0001a116 	andeq	sl, r1, r6, lsl r1
 7dc:	300b0100 	andcc	r0, fp, r0, lsl #2
 7e0:	01000001 	tsteq	r0, r1
 7e4:	8f6c0305 	svchi	0x006c0305
 7e8:	d9160000 	ldmdble	r6, {}	; <UNPREDICTABLE>
 7ec:	01000002 	tsteq	r0, r2
 7f0:	00036f0c 	andeq	r6, r3, ip, lsl #30
 7f4:	03050100 	movweq	r0, #20736	; 0x5100
 7f8:	00008f70 	andeq	r8, r0, r0, ror pc
	...

Disassembly of section .debug_abbrev:

00000000 <.debug_abbrev>:
   0:	10001101 	andne	r1, r0, r1, lsl #2
   4:	12011106 	andne	r1, r1, #-2147483647	; 0x80000001
   8:	1b080301 	blne	200c14 <__bss_end+0x1f7c94>
   c:	13082508 	movwne	r2, #34056	; 0x8508
  10:	00000005 	andeq	r0, r0, r5
  14:	25011101 	strcs	r1, [r1, #-257]	; 0x101
  18:	030b130e 	movweq	r1, #45838	; 0xb30e
  1c:	110e1b0e 	tstne	lr, lr, lsl #22
  20:	10011201 	andne	r1, r1, r1, lsl #4
  24:	02000006 	andeq	r0, r0, #6
  28:	0b0b0024 	bleq	2c00c0 <__bss_end+0x2b7140>
  2c:	0e030b3e 	vmoveq.16	d3[0], r0
  30:	2e030000 	cdpcs	0, 0, cr0, cr3, cr0, {0}
  34:	030c3f01 	movweq	r3, #52993	; 0xcf01
  38:	3b0b3a0e 	blcc	2ce878 <__bss_end+0x2c58f8>
  3c:	1201110b 	andne	r1, r1, #-1073741822	; 0xc0000002
  40:	96064001 	strls	r4, [r6], -r1
  44:	13010c42 	movwne	r0, #7234	; 0x1c42
  48:	34040000 	strcc	r0, [r4], #-0
  4c:	3a0e0300 	bcc	380c54 <__bss_end+0x377cd4>
  50:	490b3b0b 	stmdbmi	fp, {r0, r1, r3, r8, r9, fp, ip, sp}
  54:	000a0213 	andeq	r0, sl, r3, lsl r2
  58:	00240500 	eoreq	r0, r4, r0, lsl #10
  5c:	0b3e0b0b 	bleq	f82c90 <__bss_end+0xf79d10>
  60:	00000803 	andeq	r0, r0, r3, lsl #16
  64:	3f012e06 	svccc	0x00012e06
  68:	3a0e030c 	bcc	380ca0 <__bss_end+0x377d20>
  6c:	270b3b0b 	strcs	r3, [fp, -fp, lsl #22]
  70:	1113490c 	tstne	r3, ip, lsl #18
  74:	40011201 	andmi	r1, r1, r1, lsl #4
  78:	0c429606 	mcrreq	6, 0, r9, r2, cr6
  7c:	00001301 	andeq	r1, r0, r1, lsl #6
  80:	3f012e07 	svccc	0x00012e07
  84:	3a0e030c 	bcc	380cbc <__bss_end+0x377d3c>
  88:	490b3b0b 	stmdbmi	fp, {r0, r1, r3, r8, r9, fp, ip, sp}
  8c:	000c3c13 	andeq	r3, ip, r3, lsl ip
  90:	00180800 	andseq	r0, r8, r0, lsl #16
  94:	34090000 	strcc	r0, [r9], #-0
  98:	3a0e0300 	bcc	380ca0 <__bss_end+0x377d20>
  9c:	490b3b0b 	stmdbmi	fp, {r0, r1, r3, r8, r9, fp, ip, sp}
  a0:	020c3f13 	andeq	r3, ip, #76	; 0x4c
  a4:	0000000a 	andeq	r0, r0, sl
  a8:	25011101 	strcs	r1, [r1, #-257]	; 0x101
  ac:	030b130e 	movweq	r1, #45838	; 0xb30e
  b0:	110e1b0e 	tstne	lr, lr, lsl #22
  b4:	10011201 	andne	r1, r1, r1, lsl #4
  b8:	02000006 	andeq	r0, r0, #6
  bc:	08030113 	stmdaeq	r3, {r0, r1, r4, r8}
  c0:	0b3a0b0b 	bleq	e82cf4 <__bss_end+0xe79d74>
  c4:	13010b3b 	movwne	r0, #6971	; 0x1b3b
  c8:	0d030000 	stceq	0, cr0, [r3, #-0]
  cc:	3a0e0300 	bcc	380cd4 <__bss_end+0x377d54>
  d0:	490b3b0b 	stmdbmi	fp, {r0, r1, r3, r8, r9, fp, ip, sp}
  d4:	000a3813 	andeq	r3, sl, r3, lsl r8
  d8:	000f0400 	andeq	r0, pc, r0, lsl #8
  dc:	13490b0b 	movtne	r0, #39691	; 0x9b0b
  e0:	24050000 	strcs	r0, [r5], #-0
  e4:	3e0b0b00 	vmlacc.f64	d0, d11, d0
  e8:	000e030b 	andeq	r0, lr, fp, lsl #6
  ec:	012e0600 	teqeq	lr, r0, lsl #12
  f0:	0e030c3f 	mcreq	12, 0, r0, cr3, cr15, {1}
  f4:	0b3b0b3a 	bleq	ec2de4 <__bss_end+0xeb9e64>
  f8:	13490c27 	movtne	r0, #39975	; 0x9c27
  fc:	01120111 	tsteq	r2, r1, lsl r1
 100:	42970640 	addsmi	r0, r7, #67108864	; 0x4000000
 104:	0013010c 	andseq	r0, r3, ip, lsl #2
 108:	00050700 	andeq	r0, r5, r0, lsl #14
 10c:	0b3a0e03 	bleq	e83920 <__bss_end+0xe7a9a0>
 110:	13490b3b 	movtne	r0, #39739	; 0x9b3b
 114:	00000a02 	andeq	r0, r0, r2, lsl #20
 118:	03003408 	movweq	r3, #1032	; 0x408
 11c:	3b0b3a08 	blcc	2ce944 <__bss_end+0x2c59c4>
 120:	0213490b 	andseq	r4, r3, #180224	; 0x2c000
 124:	0900000a 	stmdbeq	r0, {r1, r3}
 128:	0e030034 	mcreq	0, 0, r0, cr3, cr4, {1}
 12c:	0b3b0b3a 	bleq	ec2e1c <__bss_end+0xeb9e9c>
 130:	0a021349 	beq	84e5c <__bss_end+0x7bedc>
 134:	0f0a0000 	svceq	0x000a0000
 138:	000b0b00 	andeq	r0, fp, r0, lsl #22
 13c:	012e0b00 	teqeq	lr, r0, lsl #22
 140:	0e030c3f 	mcreq	12, 0, r0, cr3, cr15, {1}
 144:	0b3b0b3a 	bleq	ec2e34 <__bss_end+0xeb9eb4>
 148:	01110c27 	tsteq	r1, r7, lsr #24
 14c:	06400112 			; <UNDEFINED> instruction: 0x06400112
 150:	010c4297 			; <UNDEFINED> instruction: 0x010c4297
 154:	0c000013 	stceq	0, cr0, [r0], {19}
 158:	08030005 	stmdaeq	r3, {r0, r2}
 15c:	0b3b0b3a 	bleq	ec2e4c <__bss_end+0xeb9ecc>
 160:	0a021349 	beq	84e8c <__bss_end+0x7bf0c>
 164:	340d0000 	strcc	r0, [sp], #-0
 168:	3a0e0300 	bcc	380d70 <__bss_end+0x377df0>
 16c:	490b3b0b 	stmdbmi	fp, {r0, r1, r3, r8, r9, fp, ip, sp}
 170:	020c3f13 	andeq	r3, ip, #76	; 0x4c
 174:	0000000a 	andeq	r0, r0, sl
 178:	25011101 	strcs	r1, [r1, #-257]	; 0x101
 17c:	030b130e 	movweq	r1, #45838	; 0xb30e
 180:	110e1b0e 	tstne	lr, lr, lsl #22
 184:	10011201 	andne	r1, r1, r1, lsl #4
 188:	02000006 	andeq	r0, r0, #6
 18c:	0b0b0024 	bleq	2c0224 <__bss_end+0x2b72a4>
 190:	0e030b3e 	vmoveq.16	d3[0], r0
 194:	2e030000 	cdpcs	0, 0, cr0, cr3, cr0, {0}
 198:	030c3f01 	movweq	r3, #52993	; 0xcf01
 19c:	3b0b3a0e 	blcc	2ce9dc <__bss_end+0x2c5a5c>
 1a0:	1201110b 	andne	r1, r1, #-1073741822	; 0xc0000002
 1a4:	96064001 	strls	r4, [r6], -r1
 1a8:	13010c42 	movwne	r0, #7234	; 0x1c42
 1ac:	34040000 	strcc	r0, [r4], #-0
 1b0:	3a080300 	bcc	200db8 <__bss_end+0x1f7e38>
 1b4:	490b3b0b 	stmdbmi	fp, {r0, r1, r3, r8, r9, fp, ip, sp}
 1b8:	000a0213 	andeq	r0, sl, r3, lsl r2
 1bc:	012e0500 	teqeq	lr, r0, lsl #10
 1c0:	0e030c3f 	mcreq	12, 0, r0, cr3, cr15, {1}
 1c4:	0b3b0b3a 	bleq	ec2eb4 <__bss_end+0xeb9f34>
 1c8:	01110c27 	tsteq	r1, r7, lsr #24
 1cc:	06400112 			; <UNDEFINED> instruction: 0x06400112
 1d0:	010c4296 			; <UNDEFINED> instruction: 0x010c4296
 1d4:	06000013 			; <UNDEFINED> instruction: 0x06000013
 1d8:	0e030005 	cdpeq	0, 0, cr0, cr3, cr5, {0}
 1dc:	0b3b0b3a 	bleq	ec2ecc <__bss_end+0xeb9f4c>
 1e0:	0a021349 	beq	84f0c <__bss_end+0x7bf8c>
 1e4:	2e070000 	cdpcs	0, 0, cr0, cr7, cr0, {0}
 1e8:	030c3f00 	movweq	r3, #52992	; 0xcf00
 1ec:	3b0b3a0e 	blcc	2cea2c <__bss_end+0x2c5aac>
 1f0:	1201110b 	andne	r1, r1, #-1073741822	; 0xc0000002
 1f4:	96064001 	strls	r4, [r6], -r1
 1f8:	00000c42 	andeq	r0, r0, r2, asr #24
 1fc:	3f012e08 	svccc	0x00012e08
 200:	3a0e030c 	bcc	380e38 <__bss_end+0x377eb8>
 204:	110b3b0b 	tstne	fp, fp, lsl #22
 208:	40011201 	andmi	r1, r1, r1, lsl #4
 20c:	0c429606 	mcrreq	6, 0, r9, r2, cr6
 210:	01000000 	mrseq	r0, (UNDEF: 0)
 214:	0e250111 	mcreq	1, 1, r0, cr5, cr1, {0}
 218:	0e030b13 	vmoveq.32	d3[0], r0
 21c:	01110e1b 	tsteq	r1, fp, lsl lr
 220:	06100112 			; <UNDEFINED> instruction: 0x06100112
 224:	24020000 	strcs	r0, [r2], #-0
 228:	3e0b0b00 	vmlacc.f64	d0, d11, d0
 22c:	000e030b 	andeq	r0, lr, fp, lsl #6
 230:	00160300 	andseq	r0, r6, r0, lsl #6
 234:	0b3a0e03 	bleq	e83a48 <__bss_end+0xe7aac8>
 238:	13490b3b 	movtne	r0, #39739	; 0x9b3b
 23c:	0f040000 	svceq	0x00040000
 240:	490b0b00 	stmdbmi	fp, {r8, r9, fp}
 244:	05000013 	streq	r0, [r0, #-19]
 248:	0c270015 	stceq	0, cr0, [r7], #-84	; 0xffffffac
 24c:	04060000 	streq	r0, [r6], #-0
 250:	3a0b0b01 	bcc	2c2e5c <__bss_end+0x2b9edc>
 254:	010b3b0b 	tsteq	fp, fp, lsl #22
 258:	07000013 	smladeq	r0, r3, r0, r0
 25c:	0e030028 	cdpeq	0, 0, cr0, cr3, cr8, {1}
 260:	00000d1c 	andeq	r0, r0, ip, lsl sp
 264:	03011308 	movweq	r1, #4872	; 0x1308
 268:	3a0b0b0e 	bcc	2c2ea8 <__bss_end+0x2b9f28>
 26c:	010b3b0b 	tsteq	fp, fp, lsl #22
 270:	09000013 	stmdbeq	r0, {r0, r1, r4}
 274:	0803000d 	stmdaeq	r3, {r0, r2, r3}
 278:	0b3b0b3a 	bleq	ec2f68 <__bss_end+0xeb9fe8>
 27c:	0a381349 	beq	e04fa8 <__bss_end+0xdfc028>
 280:	0d0a0000 	stceq	0, cr0, [sl, #-0]
 284:	3a0e0300 	bcc	380e8c <__bss_end+0x377f0c>
 288:	490b3b0b 	stmdbmi	fp, {r0, r1, r3, r8, r9, fp, ip, sp}
 28c:	000a3813 	andeq	r3, sl, r3, lsl r8
 290:	000f0b00 	andeq	r0, pc, r0, lsl #22
 294:	00000b0b 	andeq	r0, r0, fp, lsl #22
 298:	3f012e0c 	svccc	0x00012e0c
 29c:	3a0e030c 	bcc	380ed4 <__bss_end+0x377f54>
 2a0:	270b3b0b 	strcs	r3, [fp, -fp, lsl #22]
 2a4:	1201110c 	andne	r1, r1, #3
 2a8:	96064001 	strls	r4, [r6], -r1
 2ac:	13010c42 	movwne	r0, #7234	; 0x1c42
 2b0:	050d0000 	streq	r0, [sp, #-0]
 2b4:	3a080300 	bcc	200ebc <__bss_end+0x1f7f3c>
 2b8:	490b3b0b 	stmdbmi	fp, {r0, r1, r3, r8, r9, fp, ip, sp}
 2bc:	000a0213 	andeq	r0, sl, r3, lsl r2
 2c0:	00050e00 	andeq	r0, r5, r0, lsl #28
 2c4:	0b3a0e03 	bleq	e83ad8 <__bss_end+0xe7ab58>
 2c8:	13490b3b 	movtne	r0, #39739	; 0x9b3b
 2cc:	00000a02 	andeq	r0, r0, r2, lsl #20
 2d0:	0300340f 	movweq	r3, #1039	; 0x40f
 2d4:	3b0b3a08 	blcc	2ceafc <__bss_end+0x2c5b7c>
 2d8:	0213490b 	andseq	r4, r3, #180224	; 0x2c000
 2dc:	1000000a 	andne	r0, r0, sl
 2e0:	0c3f002e 	ldceq	0, cr0, [pc], #-184	; 230 <_start-0x7dd0>
 2e4:	0b3a0e03 	bleq	e83af8 <__bss_end+0xe7ab78>
 2e8:	01110b3b 	tsteq	r1, fp, lsr fp
 2ec:	06400112 			; <UNDEFINED> instruction: 0x06400112
 2f0:	000c4296 	muleq	ip, r6, r2
 2f4:	002e1100 	eoreq	r1, lr, r0, lsl #2
 2f8:	0e030c3f 	mcreq	12, 0, r0, cr3, cr15, {1}
 2fc:	0b3b0b3a 	bleq	ec2fec <__bss_end+0xeba06c>
 300:	01120111 	tsteq	r2, r1, lsl r1
 304:	42960a40 	addsmi	r0, r6, #262144	; 0x40000
 308:	1200000c 	andne	r0, r0, #12
 30c:	0e030034 	mcreq	0, 0, r0, cr3, cr4, {1}
 310:	0b3b0b3a 	bleq	ec3000 <__bss_end+0xeba080>
 314:	0a021349 	beq	85040 <__bss_end+0x7c0c0>
 318:	0b130000 	bleq	4c0320 <__bss_end+0x4b73a0>
 31c:	12011101 	andne	r1, r1, #1073741824	; 0x40000000
 320:	14000001 	strne	r0, [r0], #-1
 324:	0b0b0024 	bleq	2c03bc <__bss_end+0x2b743c>
 328:	08030b3e 	stmdaeq	r3, {r1, r2, r3, r4, r5, r8, r9, fp}
 32c:	26150000 	ldrcs	r0, [r5], -r0
 330:	00134900 	andseq	r4, r3, r0, lsl #18
 334:	00341600 	eorseq	r1, r4, r0, lsl #12
 338:	0b3a0e03 	bleq	e83b4c <__bss_end+0xe7abcc>
 33c:	13490b3b 	movtne	r0, #39739	; 0x9b3b
 340:	0a020c3f 	beq	83444 <__bss_end+0x7a4c4>
 344:	Address 0x0000000000000344 is out of bounds.


Disassembly of section .debug_aranges:

00000000 <.debug_aranges>:
   0:	0000001c 	andeq	r0, r0, ip, lsl r0
   4:	00000002 	andeq	r0, r0, r2
   8:	00040000 	andeq	r0, r4, r0
   c:	00000000 	andeq	r0, r0, r0
  10:	00008000 	andeq	r8, r0, r0
  14:	000000d0 	ldrdeq	r0, [r0], -r0	; <UNPREDICTABLE>
	...
  20:	0000001c 	andeq	r0, r0, ip, lsl r0
  24:	00550002 	subseq	r0, r5, r2
  28:	00040000 	andeq	r0, r4, r0
  2c:	00000000 	andeq	r0, r0, r0
  30:	000080d0 	ldrdeq	r8, [r0], -r0
  34:	000000e0 	andeq	r0, r0, r0, ror #1
	...
  40:	0000001c 	andeq	r0, r0, ip, lsl r0
  44:	01270002 	teqeq	r7, r2
  48:	00040000 	andeq	r0, r4, r0
  4c:	00000000 	andeq	r0, r0, r0
  50:	000081b0 			; <UNDEFINED> instruction: 0x000081b0
  54:	00000138 	andeq	r0, r0, r8, lsr r1
	...
  60:	0000001c 	andeq	r0, r0, ip, lsl r0
  64:	02890002 	addeq	r0, r9, #2
  68:	00040000 	andeq	r0, r4, r0
  6c:	00000000 	andeq	r0, r0, r0
  70:	000082e8 	andeq	r8, r0, r8, ror #5
  74:	00000194 	muleq	r0, r4, r1
	...
  80:	0000001c 	andeq	r0, r0, ip, lsl r0
  84:	037b0002 	cmneq	fp, #2
  88:	00040000 	andeq	r0, r4, r0
  8c:	00000000 	andeq	r0, r0, r0
  90:	0000847c 	andeq	r8, r0, ip, ror r4
  94:	00000ad8 	ldrdeq	r0, [r0], -r8
	...

Disassembly of section .debug_loc:

00000000 <.debug_loc>:
   0:	00000000 	andeq	r0, r0, r0
   4:	00000004 	andeq	r0, r0, r4
   8:	007d0002 	rsbseq	r0, sp, r2
   c:	00000004 	andeq	r0, r0, r4
  10:	00000008 	andeq	r0, r0, r8
  14:	047d0002 	ldrbteq	r0, [sp], #-2
  18:	00000008 	andeq	r0, r0, r8
  1c:	00000044 	andeq	r0, r0, r4, asr #32
  20:	107d0002 	rsbsne	r0, sp, r2
	...
  2c:	00000044 	andeq	r0, r0, r4, asr #32
  30:	00000048 	andeq	r0, r0, r8, asr #32
  34:	007d0002 	rsbseq	r0, sp, r2
  38:	00000048 	andeq	r0, r0, r8, asr #32
  3c:	0000004c 	andeq	r0, r0, ip, asr #32
  40:	047d0002 	ldrbteq	r0, [sp], #-2
  44:	0000004c 	andeq	r0, r0, ip, asr #32
  48:	00000088 	andeq	r0, r0, r8, lsl #1
  4c:	107d0002 	rsbsne	r0, sp, r2
	...
  58:	00000088 	andeq	r0, r0, r8, lsl #1
  5c:	0000008c 	andeq	r0, r0, ip, lsl #1
  60:	007d0002 	rsbseq	r0, sp, r2
  64:	0000008c 	andeq	r0, r0, ip, lsl #1
  68:	00000090 	muleq	r0, r0, r0
  6c:	047d0002 	ldrbteq	r0, [sp], #-2
  70:	00000090 	muleq	r0, r0, r0
  74:	000000e0 	andeq	r0, r0, r0, ror #1
  78:	107d0002 	rsbsne	r0, sp, r2
	...
  88:	00000004 	andeq	r0, r0, r4
  8c:	007d0002 	rsbseq	r0, sp, r2
  90:	00000004 	andeq	r0, r0, r4
  94:	00000008 	andeq	r0, r0, r8
  98:	087d0002 	ldmdaeq	sp!, {r1}^
  9c:	00000008 	andeq	r0, r0, r8
  a0:	000000b4 	strheq	r0, [r0], -r4
  a4:	107d0002 	rsbsne	r0, sp, r2
	...
  b0:	000000b4 	strheq	r0, [r0], -r4
  b4:	000000b8 	strheq	r0, [r0], -r8
  b8:	007d0002 	rsbseq	r0, sp, r2
  bc:	000000b8 	strheq	r0, [r0], -r8
  c0:	000000bc 	strheq	r0, [r0], -ip
  c4:	047d0002 	ldrbteq	r0, [sp], #-2
  c8:	000000bc 	strheq	r0, [r0], -ip
  cc:	000000fc 	strdeq	r0, [r0], -ip
  d0:	107d0002 	rsbsne	r0, sp, r2
	...
  dc:	000000fc 	strdeq	r0, [r0], -ip
  e0:	00000100 	andeq	r0, r0, r0, lsl #2
  e4:	007d0002 	rsbseq	r0, sp, r2
  e8:	00000100 	andeq	r0, r0, r0, lsl #2
  ec:	00000138 	andeq	r0, r0, r8, lsr r1
  f0:	087d0002 	ldmdaeq	sp!, {r1}^
	...
 100:	00000004 	andeq	r0, r0, r4
 104:	007d0002 	rsbseq	r0, sp, r2
 108:	00000004 	andeq	r0, r0, r4
 10c:	00000008 	andeq	r0, r0, r8
 110:	047d0002 	ldrbteq	r0, [sp], #-2
 114:	00000008 	andeq	r0, r0, r8
 118:	0000004c 	andeq	r0, r0, ip, asr #32
 11c:	107d0002 	rsbsne	r0, sp, r2
	...
 128:	0000004c 	andeq	r0, r0, ip, asr #32
 12c:	00000050 	andeq	r0, r0, r0, asr r0
 130:	007d0002 	rsbseq	r0, sp, r2
 134:	00000050 	andeq	r0, r0, r0, asr r0
 138:	00000054 	andeq	r0, r0, r4, asr r0
 13c:	047d0002 	ldrbteq	r0, [sp], #-2
 140:	00000054 	andeq	r0, r0, r4, asr r0
 144:	000000a4 	andeq	r0, r0, r4, lsr #1
 148:	187d0002 	ldmdane	sp!, {r1}^
	...
 154:	000000a4 	andeq	r0, r0, r4, lsr #1
 158:	000000a8 	andeq	r0, r0, r8, lsr #1
 15c:	007d0002 	rsbseq	r0, sp, r2
 160:	000000a8 	andeq	r0, r0, r8, lsr #1
 164:	000000bc 	strheq	r0, [r0], -ip
 168:	087d0002 	ldmdaeq	sp!, {r1}^
	...
 174:	000000bc 	strheq	r0, [r0], -ip
 178:	000000c0 	andeq	r0, r0, r0, asr #1
 17c:	007d0002 	rsbseq	r0, sp, r2
 180:	000000c0 	andeq	r0, r0, r0, asr #1
 184:	000000d4 	ldrdeq	r0, [r0], -r4
 188:	087d0002 	ldmdaeq	sp!, {r1}^
	...
 194:	000000d4 	ldrdeq	r0, [r0], -r4
 198:	000000d8 	ldrdeq	r0, [r0], -r8
 19c:	007d0002 	rsbseq	r0, sp, r2
 1a0:	000000d8 	ldrdeq	r0, [r0], -r8
 1a4:	000000dc 	ldrdeq	r0, [r0], -ip
 1a8:	047d0002 	ldrbteq	r0, [sp], #-2
 1ac:	000000dc 	ldrdeq	r0, [r0], -ip
 1b0:	00000194 	muleq	r0, r4, r1
 1b4:	107d0002 	rsbsne	r0, sp, r2
	...
 1c4:	00000004 	andeq	r0, r0, r4
 1c8:	007d0002 	rsbseq	r0, sp, r2
 1cc:	00000004 	andeq	r0, r0, r4
 1d0:	00000008 	andeq	r0, r0, r8
 1d4:	047d0002 	ldrbteq	r0, [sp], #-2
 1d8:	00000008 	andeq	r0, r0, r8
 1dc:	000000b8 	strheq	r0, [r0], -r8
 1e0:	187d0002 	ldmdane	sp!, {r1}^
	...
 1ec:	000000b8 	strheq	r0, [r0], -r8
 1f0:	000000bc 	strheq	r0, [r0], -ip
 1f4:	007d0002 	rsbseq	r0, sp, r2
 1f8:	000000bc 	strheq	r0, [r0], -ip
 1fc:	000000c0 	andeq	r0, r0, r0, asr #1
 200:	047d0002 	ldrbteq	r0, [sp], #-2
 204:	000000c0 	andeq	r0, r0, r0, asr #1
 208:	00000138 	andeq	r0, r0, r8, lsr r1
 20c:	187d0002 	ldmdane	sp!, {r1}^
	...
 218:	00000138 	andeq	r0, r0, r8, lsr r1
 21c:	0000013c 	andeq	r0, r0, ip, lsr r1
 220:	007d0002 	rsbseq	r0, sp, r2
 224:	0000013c 	andeq	r0, r0, ip, lsr r1
 228:	00000140 	andeq	r0, r0, r0, asr #2
 22c:	047d0002 	ldrbteq	r0, [sp], #-2
 230:	00000140 	andeq	r0, r0, r0, asr #2
 234:	000001c4 	andeq	r0, r0, r4, asr #3
 238:	287d0002 	ldmdacs	sp!, {r1}^
	...
 244:	000001c4 	andeq	r0, r0, r4, asr #3
 248:	000001c8 	andeq	r0, r0, r8, asr #3
 24c:	007d0002 	rsbseq	r0, sp, r2
 250:	000001c8 	andeq	r0, r0, r8, asr #3
 254:	000001f4 	strdeq	r0, [r0], -r4
 258:	087d0002 	ldmdaeq	sp!, {r1}^
	...
 264:	000001f4 	strdeq	r0, [r0], -r4
 268:	000001f8 	strdeq	r0, [r0], -r8
 26c:	007d0002 	rsbseq	r0, sp, r2
 270:	000001f8 	strdeq	r0, [r0], -r8
 274:	000002b4 			; <UNDEFINED> instruction: 0x000002b4
 278:	087d0002 	ldmdaeq	sp!, {r1}^
	...
 284:	000002b4 			; <UNDEFINED> instruction: 0x000002b4
 288:	000002b8 			; <UNDEFINED> instruction: 0x000002b8
 28c:	007d0002 	rsbseq	r0, sp, r2
 290:	000002b8 			; <UNDEFINED> instruction: 0x000002b8
 294:	000002bc 			; <UNDEFINED> instruction: 0x000002bc
 298:	047d0002 	ldrbteq	r0, [sp], #-2
 29c:	000002bc 			; <UNDEFINED> instruction: 0x000002bc
 2a0:	0000034c 	andeq	r0, r0, ip, asr #6
 2a4:	107d0002 	rsbsne	r0, sp, r2
	...
 2b0:	000004a8 	andeq	r0, r0, r8, lsr #9
 2b4:	000004ac 	andeq	r0, r0, ip, lsr #9
 2b8:	007d0002 	rsbseq	r0, sp, r2
 2bc:	000004ac 	andeq	r0, r0, ip, lsr #9
 2c0:	000004b0 			; <UNDEFINED> instruction: 0x000004b0
 2c4:	047d0002 	ldrbteq	r0, [sp], #-2
 2c8:	000004b0 			; <UNDEFINED> instruction: 0x000004b0
 2cc:	00000508 	andeq	r0, r0, r8, lsl #10
 2d0:	187d0002 	ldmdane	sp!, {r1}^
	...
 2dc:	00000508 	andeq	r0, r0, r8, lsl #10
 2e0:	0000050c 	andeq	r0, r0, ip, lsl #10
 2e4:	007d0002 	rsbseq	r0, sp, r2
 2e8:	0000050c 	andeq	r0, r0, ip, lsl #10
 2ec:	00000510 	andeq	r0, r0, r0, lsl r5
 2f0:	087d0002 	ldmdaeq	sp!, {r1}^
 2f4:	00000510 	andeq	r0, r0, r0, lsl r5
 2f8:	0000076c 	andeq	r0, r0, ip, ror #14
 2fc:	207d0002 	rsbscs	r0, sp, r2
	...
 308:	0000076c 	andeq	r0, r0, ip, ror #14
 30c:	00000770 	andeq	r0, r0, r0, ror r7
 310:	007d0002 	rsbseq	r0, sp, r2
 314:	00000770 	andeq	r0, r0, r0, ror r7
 318:	00000774 	andeq	r0, r0, r4, ror r7
 31c:	087d0002 	ldmdaeq	sp!, {r1}^
 320:	00000774 	andeq	r0, r0, r4, ror r7
 324:	00000ad8 	ldrdeq	r0, [r0], -r8
 328:	c07d0003 	rsbsgt	r0, sp, r3
	...

Disassembly of section .debug_str:

00000000 <.debug_str>:
   0:	69616d6b 	stmdbvs	r1!, {r0, r1, r3, r5, r6, r8, sl, fp, sp, lr}^
   4:	656c006e 	strbvs	r0, [ip, #-110]!	; 0x6e
   8:	006e4f64 	rsbeq	r4, lr, r4, ror #30
   c:	20554e47 	subscs	r4, r5, r7, asr #28
  10:	2e342043 	cdpcs	0, 3, cr2, cr4, cr3, {2}
  14:	00312e37 	eorseq	r2, r1, r7, lsr lr
  18:	41747063 	cmnmi	r4, r3, rrx
  1c:	74706300 	ldrbtvc	r6, [r0], #-768	; 0x300
  20:	682f0042 	stmdavs	pc!, {r1, r6}	; <UNPREDICTABLE>
  24:	2f656d6f 	svccs	0x00656d6f
  28:	746e616b 	strbtvc	r6, [lr], #-363	; 0x16b
  2c:	656e696f 	strbvs	r6, [lr, #-2415]!	; 0x96f
  30:	636f442f 	cmnvs	pc, #788529152	; 0x2f000000
  34:	6e656d75 	mcrvs	13, 3, r6, cr5, cr5, {3}
  38:	532f7374 	teqpl	pc, #-805306367	; 0xd0000001
  3c:	65747379 	ldrbvs	r7, [r4, #-889]!	; 0x379
  40:	7845656d 	stmdavc	r5, {r0, r2, r3, r5, r6, r8, sl, sp, lr}^
  44:	696f6c70 	stmdbvs	pc!, {r4, r5, r6, sl, fp, sp, lr}^	; <UNPREDICTABLE>
  48:	69746174 	ldmdbvs	r4!, {r2, r4, r5, r6, r8, sp, lr}^
  4c:	76416e6f 	strbvc	r6, [r1], -pc, ror #28
  50:	65636e61 	strbvs	r6, [r3, #-3681]!	; 0xe61
  54:	6e756600 	cdpvs	6, 7, cr6, cr5, cr0, {0}
  58:	75004163 	strvc	r4, [r0, #-355]	; 0x163
  5c:	6769736e 	strbvs	r7, [r9, -lr, ror #6]!
  60:	2064656e 	rsbcs	r6, r4, lr, ror #10
  64:	72616863 	rsbvc	r6, r1, #6488064	; 0x630000
  68:	6e756600 	cdpvs	6, 7, cr6, cr5, cr0, {0}
  6c:	73004263 	movwvc	r4, #611	; 0x263
  70:	74726174 	ldrbtvc	r6, [r2], #-372	; 0x174
  74:	6863735f 	stmdavs	r3!, {r0, r1, r2, r3, r4, r6, r8, r9, ip, sp, lr}^
  78:	73006465 	movwvc	r6, #1125	; 0x465
  7c:	74726f68 	ldrbtvc	r6, [r2], #-3944	; 0xf68
  80:	736e7520 	cmnvc	lr, #134217728	; 0x8000000
  84:	656e6769 	strbvs	r6, [lr, #-1897]!	; 0x769
  88:	6e692064 	cdpvs	0, 6, cr2, cr9, cr4, {3}
  8c:	656b0074 	strbvs	r0, [fp, #-116]!	; 0x74
  90:	6c656e72 	stclvs	14, cr6, [r5], #-456	; 0xfffffe38
  94:	7000632e 	andvc	r6, r0, lr, lsr #6
  98:	6c417968 	mcrrvs	9, 6, r7, r1, cr8
  9c:	2e636f6c 	cdpcs	15, 6, cr6, cr3, cr12, {3}
  a0:	72700063 	rsbsvc	r0, r0, #99	; 0x63
  a4:	66007665 	strvs	r7, [r0], -r5, ror #12
  a8:	6c656572 	cfstr64vs	mvdx6, [r5], #-456	; 0xfffffe38
  ac:	00747369 	rsbseq	r7, r4, r9, ror #6
  b0:	41796870 	cmnmi	r9, r0, ror r8
  b4:	636f6c6c 	cmnvs	pc, #27648	; 0x6c00
  b8:	6572665f 	ldrbvs	r6, [r2, #-1631]!	; 0x65f
  bc:	65680065 	strbvs	r0, [r8, #-101]!	; 0x65
  c0:	735f7061 	cmpvc	pc, #97	; 0x61
  c4:	74726174 	ldrbtvc	r6, [r2], #-372	; 0x174
  c8:	78656e00 	stmdavc	r5!, {r9, sl, fp, sp, lr}^
  cc:	68700074 	ldmdavs	r0!, {r2, r4, r5, r6}^
  d0:	6c6c4179 	stfvse	f4, [ip], #-484	; 0xfffffe1c
  d4:	615f636f 	cmpvs	pc, pc, ror #6
  d8:	636f6c6c 	cmnvs	pc, #27648	; 0x6c00
  dc:	79687000 	stmdbvc	r8!, {ip, sp, lr}^
  e0:	6f6c6c41 	svcvs	0x006c6c41
  e4:	6e695f63 	cdpvs	15, 6, cr5, cr9, cr3, {3}
  e8:	68007469 	stmdavs	r0, {r0, r3, r5, r6, sl, ip, sp, lr}
  ec:	5f706165 	svcpl	0x00706165
  f0:	696d696c 	stmdbvs	sp!, {r2, r3, r5, r6, r8, fp, sp, lr}^
  f4:	682f0074 	stmdavs	pc!, {r2, r4, r5, r6}	; <UNPREDICTABLE>
  f8:	2f656d6f 	svccs	0x00656d6f
  fc:	746e616b 	strbtvc	r6, [lr], #-363	; 0x16b
 100:	656e696f 	strbvs	r6, [lr, #-2415]!	; 0x96f
 104:	636f442f 	cmnvs	pc, #788529152	; 0x2f000000
 108:	6e656d75 	mcrvs	13, 3, r6, cr5, cr5, {3}
 10c:	6f2f7374 	svcvs	0x002f7374
 110:	65697073 	strbvs	r7, [r9, #-115]!	; 0x73
 114:	6174732d 	cmnvs	r4, sp, lsr #6
 118:	68007472 	stmdavs	r0, {r1, r4, r5, r6, sl, ip, sp, lr}
 11c:	5f706165 	svcpl	0x00706165
 120:	657a6973 	ldrbvs	r6, [sl, #-2419]!	; 0x973
 124:	2e776800 	cdpcs	8, 7, cr6, cr7, cr0, {0}
 128:	656c0063 	strbvs	r0, [ip, #-99]!	; 0x63
 12c:	6e6f5f64 	cdpvs	15, 6, cr5, cr15, cr4, {3}
 130:	74657300 	strbtvc	r7, [r5], #-768	; 0x300
 134:	6369745f 	cmnvs	r9, #1593835520	; 0x5f000000
 138:	6e615f6b 	cdpvs	15, 6, cr5, cr1, cr11, {3}
 13c:	6e655f64 	cdpvs	15, 6, cr5, cr5, cr4, {3}
 140:	656c6261 	strbvs	r6, [ip, #-609]!	; 0x261
 144:	6d69745f 	cfstrdvs	mvd7, [r9, #-380]!	; 0xfffffe84
 148:	69007265 	stmdbvs	r0, {r0, r2, r5, r6, r9, ip, sp, lr}
 14c:	5f74696e 	svcpl	0x0074696e
 150:	73007768 	movwvc	r7, #1896	; 0x768
 154:	745f7465 	ldrbvc	r7, [pc], #-1125	; 15c <_start-0x7ea4>
 158:	5f6b6369 	svcpl	0x006b6369
 15c:	5f646e61 	svcpl	0x00646e61
 160:	62616e65 	rsbvs	r6, r1, #1616	; 0x650
 164:	745f656c 	ldrbvc	r6, [pc], #-1388	; 16c <_start-0x7e94>
 168:	72656d69 	rsbvc	r6, r5, #6720	; 0x1a40
 16c:	6972705f 	ldmdbvs	r2!, {r0, r1, r2, r3, r4, r6, ip, sp, lr}^
 170:	7469726f 	strbtvc	r7, [r9], #-623	; 0x26f
 174:	656c0079 	strbvs	r0, [ip, #-121]!	; 0x79
 178:	666f5f64 	strbtvs	r5, [pc], -r4, ror #30
 17c:	6f700066 	svcvs	0x00700066
 180:	64657070 	strbtvs	r7, [r5], #-112	; 0x70
 184:	656c655f 	strbvs	r6, [ip, #-1375]!	; 0x55f
 188:	746e656d 	strbtvc	r6, [lr], #-1389	; 0x56d
 18c:	4f545300 	svcmi	0x00545300
 190:	44455050 	strbmi	r5, [r5], #-80	; 0x50
 194:	756f6300 	strbvc	r6, [pc, #-768]!	; fffffe9c <__bss_end+0xffff6f1c>
 198:	7300746e 	movwvc	r7, #1134	; 0x46e
 19c:	74726174 	ldrbtvc	r6, [r2], #-372	; 0x174
 1a0:	7275635f 	rsbsvc	r6, r5, #2080374785	; 0x7c000001
 1a4:	746e6572 	strbtvc	r6, [lr], #-1394	; 0x572
 1a8:	6f72705f 	svcvs	0x0072705f
 1ac:	73736563 	cmnvc	r3, #415236096	; 0x18c00000
 1b0:	61656800 	cmnvs	r5, r0, lsl #16
 1b4:	6f705f70 	svcvs	0x00705f70
 1b8:	43410070 	movtmi	r0, #4208	; 0x1070
 1bc:	45564954 	ldrbmi	r4, [r6, #-2388]	; 0x954
 1c0:	4d4f5a00 	vstrmi	s11, [pc, #-0]	; 1c8 <_start-0x7e38>
 1c4:	00454942 	subeq	r4, r5, r2, asr #18
 1c8:	636f7250 	cmnvs	pc, #5
 1cc:	5f737365 	svcpl	0x00737365
 1d0:	74617473 	strbtvc	r7, [r1], #-1139	; 0x473
 1d4:	63700065 	cmnvs	r0, #101	; 0x65
 1d8:	00735f62 	rsbseq	r5, r3, r2, ror #30
 1dc:	70617773 	rsbvc	r7, r1, r3, ror r7
 1e0:	78746300 	ldmdavc	r4!, {r8, r9, sp, lr}^
 1e4:	6977735f 	ldmdbvs	r7!, {r0, r1, r2, r3, r4, r6, r8, r9, ip, sp, lr}^
 1e8:	00686374 	rsbeq	r6, r8, r4, ror r3
 1ec:	61746164 	cmnvs	r4, r4, ror #2
 1f0:	62637000 	rsbvs	r7, r3, #0
 1f4:	6165685f 	cmnvs	r5, pc, asr r8
 1f8:	74630064 	strbtvc	r0, [r3], #-100	; 0x64
 1fc:	00735f78 	rsbseq	r5, r3, r8, ror pc
 200:	63617473 	cmnvs	r1, #1929379840	; 0x73000000
 204:	69735f6b 	ldmdbvs	r3!, {r0, r1, r3, r5, r6, r8, r9, sl, fp, ip, lr}^
 208:	7000657a 	andvc	r6, r0, sl, ror r5
 20c:	6e657261 	cdpvs	2, 6, cr7, cr5, cr1, {3}
 210:	656e0074 	strbvs	r0, [lr, #-116]!	; 0x74
 214:	63735f77 	cmnvs	r3, #476	; 0x1dc
 218:	2e646568 	cdpcs	5, 6, cr6, cr4, cr8, {3}
 21c:	6e690063 	cdpvs	0, 6, cr0, cr9, cr3, {3}
 220:	635f7469 	cmpvs	pc, #1761607680	; 0x69000000
 224:	63007874 	movwvs	r7, #2164	; 0x874
 228:	735f7874 	cmpvc	pc, #7602176	; 0x740000
 22c:	63746977 	cmnvs	r4, #1949696	; 0x1dc000
 230:	72665f68 	rsbvc	r5, r6, #416	; 0x1a0
 234:	695f6d6f 	ldmdbvs	pc, {r0, r1, r2, r3, r5, r6, r8, sl, fp, sp, lr}^	; <UNPREDICTABLE>
 238:	75007172 	strvc	r7, [r0, #-370]	; 0x172
 23c:	33746e69 	cmncc	r4, #1680	; 0x690
 240:	65740032 	ldrbvs	r0, [r4, #-50]!	; 0x32
 244:	7700706d 	strvc	r7, [r0, -sp, rrx]
 248:	69746961 	ldmdbvs	r4!, {r0, r5, r6, r8, fp, sp, lr}^
 24c:	745f676e 	ldrbvc	r6, [pc], #-1902	; 254 <_start-0x7dac>
 250:	00656d69 	rsbeq	r6, r5, r9, ror #26
 254:	65736162 	ldrbvs	r6, [r3, #-354]!	; 0x162
 258:	7a69735f 	bvc	1a5cfdc <__bss_end+0x1a5405c>
 25c:	65680065 	strbvs	r0, [r8, #-101]!	; 0x65
 260:	65007061 	strvs	r7, [r0, #-97]	; 0x61
 264:	7463656c 	strbtvc	r6, [r3], #-1388	; 0x56c
 268:	6e756600 	cdpvs	6, 7, cr6, cr5, cr0, {0}
 26c:	00745f63 	rsbseq	r5, r4, r3, ror #30
 270:	44414552 	strbmi	r4, [r1], #-1362	; 0x552
 274:	63700059 	cmnvs	r0, #89	; 0x59
 278:	616d5f62 	cmnvs	sp, r2, ror #30
 27c:	57006e69 	strpl	r6, [r0, -r9, ror #28]
 280:	49544941 	ldmdbmi	r4, {r0, r6, r8, fp, lr}^
 284:	7000474e 	andvc	r4, r0, lr, asr #14
 288:	745f6263 	ldrbvc	r6, [pc], #-611	; 290 <_start-0x7d70>
 28c:	006c6961 	rsbeq	r6, ip, r1, ror #18
 290:	72727563 	rsbsvc	r7, r2, #415236096	; 0x18c00000
 294:	5f746e65 	svcpl	0x00746e65
 298:	00787463 	rsbseq	r7, r8, r3, ror #8
 29c:	756c6176 	strbvc	r6, [ip, #-374]!	; 0x176
 2a0:	65680065 	strbvs	r0, [r8, #-101]!	; 0x65
 2a4:	695f7061 	ldmdbvs	pc, {r0, r5, r6, ip, sp, lr}^	; <UNPREDICTABLE>
 2a8:	0074696e 	rsbseq	r6, r4, lr, ror #18
 2ac:	73677261 	cmnvc	r7, #268435462	; 0x10000006
 2b0:	696e6900 	stmdbvs	lr!, {r8, fp, sp, lr}^
 2b4:	63705f74 	cmnvs	r0, #464	; 0x1d0
 2b8:	72630062 	rsbvc	r0, r3, #98	; 0x62
 2bc:	65746165 	ldrbvs	r6, [r4, #-357]!	; 0x165
 2c0:	6f72705f 	svcvs	0x0072705f
 2c4:	73736563 	cmnvc	r3, #415236096	; 0x18c00000
 2c8:	646e6900 	strbtvs	r6, [lr], #-2304	; 0x900
 2cc:	68007865 	stmdavs	r0, {r0, r2, r5, r6, fp, ip, sp, lr}
 2d0:	5f706165 	svcpl	0x00706165
 2d4:	68737570 	ldmdavs	r3!, {r4, r5, r6, r8, sl, ip, sp, lr}^
 2d8:	69727000 	ldmdbvs	r2!, {ip, sp, lr}^
 2dc:	6575715f 	ldrbvs	r7, [r5, #-351]!	; 0x15f
 2e0:	54006575 	strpl	r6, [r0], #-1397	; 0x575
 2e4:	494d5245 	stmdbmi	sp, {r0, r2, r6, r9, ip, lr}^
 2e8:	4554414e 	ldrbmi	r4, [r4, #-334]	; 0x14e
 2ec:	746f0044 	strbtvc	r0, [pc], #-68	; 2f4 <_start-0x7d0c>
 2f0:	00726568 	rsbseq	r6, r2, r8, ror #10

Disassembly of section .debug_frame:

00000000 <.debug_frame>:
   0:	0000000c 	andeq	r0, r0, ip
   4:	ffffffff 			; <UNDEFINED> instruction: 0xffffffff
   8:	7c020001 	stcvc	0, cr0, [r2], {1}
   c:	000d0c0e 	andeq	r0, sp, lr, lsl #24
  10:	00000014 	andeq	r0, r0, r4, lsl r0
  14:	00000000 	andeq	r0, r0, r0
  18:	000080d0 	ldrdeq	r8, [r0], -r0
  1c:	00000044 	andeq	r0, r0, r4, asr #32
  20:	8e040e42 	cdphi	14, 0, cr0, cr4, cr2, {2}
  24:	100e4201 	andne	r4, lr, r1, lsl #4
  28:	00000014 	andeq	r0, r0, r4, lsl r0
  2c:	00000000 	andeq	r0, r0, r0
  30:	00008114 	andeq	r8, r0, r4, lsl r1
  34:	00000044 	andeq	r0, r0, r4, asr #32
  38:	8e040e42 	cdphi	14, 0, cr0, cr4, cr2, {2}
  3c:	100e4201 	andne	r4, lr, r1, lsl #4
  40:	00000014 	andeq	r0, r0, r4, lsl r0
  44:	00000000 	andeq	r0, r0, r0
  48:	00008158 	andeq	r8, r0, r8, asr r1
  4c:	00000058 	andeq	r0, r0, r8, asr r0
  50:	8e040e42 	cdphi	14, 0, cr0, cr4, cr2, {2}
  54:	100e4201 	andne	r4, lr, r1, lsl #4
  58:	0000000c 	andeq	r0, r0, ip
  5c:	ffffffff 			; <UNDEFINED> instruction: 0xffffffff
  60:	7c020001 	stcvc	0, cr0, [r2], {1}
  64:	000d0c0e 	andeq	r0, sp, lr, lsl #24
  68:	00000018 	andeq	r0, r0, r8, lsl r0
  6c:	00000058 	andeq	r0, r0, r8, asr r0
  70:	000081b0 			; <UNDEFINED> instruction: 0x000081b0
  74:	000000b4 	strheq	r0, [r0], -r4
  78:	84080e42 	strhi	r0, [r8], #-3650	; 0xe42
  7c:	42018502 	andmi	r8, r1, #8388608	; 0x800000
  80:	0000100e 	andeq	r1, r0, lr
  84:	00000014 	andeq	r0, r0, r4, lsl r0
  88:	00000058 	andeq	r0, r0, r8, asr r0
  8c:	00008264 	andeq	r8, r0, r4, ror #4
  90:	00000048 	andeq	r0, r0, r8, asr #32
  94:	84040e42 	strhi	r0, [r4], #-3650	; 0xe42
  98:	100e4201 	andne	r4, lr, r1, lsl #4
  9c:	00000010 	andeq	r0, r0, r0, lsl r0
  a0:	00000058 	andeq	r0, r0, r8, asr r0
  a4:	000082ac 	andeq	r8, r0, ip, lsr #5
  a8:	0000003c 	andeq	r0, r0, ip, lsr r0
  ac:	00080e42 	andeq	r0, r8, r2, asr #28
  b0:	0000000c 	andeq	r0, r0, ip
  b4:	ffffffff 			; <UNDEFINED> instruction: 0xffffffff
  b8:	7c020001 	stcvc	0, cr0, [r2], {1}
  bc:	000d0c0e 	andeq	r0, sp, lr, lsl #24
  c0:	00000014 	andeq	r0, r0, r4, lsl r0
  c4:	000000b0 	strheq	r0, [r0], -r0	; <UNPREDICTABLE>
  c8:	000082e8 	andeq	r8, r0, r8, ror #5
  cc:	0000004c 	andeq	r0, r0, ip, asr #32
  d0:	8e040e42 	cdphi	14, 0, cr0, cr4, cr2, {2}
  d4:	100e4201 	andne	r4, lr, r1, lsl #4
  d8:	00000014 	andeq	r0, r0, r4, lsl r0
  dc:	000000b0 	strheq	r0, [r0], -r0	; <UNPREDICTABLE>
  e0:	00008334 	andeq	r8, r0, r4, lsr r3
  e4:	00000058 	andeq	r0, r0, r8, asr r0
  e8:	8e040e42 	cdphi	14, 0, cr0, cr4, cr2, {2}
  ec:	180e4201 	stmdane	lr, {r0, r9, lr}
  f0:	00000014 	andeq	r0, r0, r4, lsl r0
  f4:	000000b0 	strheq	r0, [r0], -r0	; <UNPREDICTABLE>
  f8:	0000838c 	andeq	r8, r0, ip, lsl #7
  fc:	00000018 	andeq	r0, r0, r8, lsl r0
 100:	83080e42 	movwhi	r0, #36418	; 0x8e42
 104:	00018e02 	andeq	r8, r1, r2, lsl #28
 108:	00000014 	andeq	r0, r0, r4, lsl r0
 10c:	000000b0 	strheq	r0, [r0], -r0	; <UNPREDICTABLE>
 110:	000083a4 	andeq	r8, r0, r4, lsr #7
 114:	00000018 	andeq	r0, r0, r8, lsl r0
 118:	83080e42 	movwhi	r0, #36418	; 0x8e42
 11c:	00018e02 	andeq	r8, r1, r2, lsl #28
 120:	00000014 	andeq	r0, r0, r4, lsl r0
 124:	000000b0 	strheq	r0, [r0], -r0	; <UNPREDICTABLE>
 128:	000083bc 			; <UNDEFINED> instruction: 0x000083bc
 12c:	000000c0 	andeq	r0, r0, r0, asr #1
 130:	8e040e42 	cdphi	14, 0, cr0, cr4, cr2, {2}
 134:	100e4201 	andne	r4, lr, r1, lsl #4
 138:	0000000c 	andeq	r0, r0, ip
 13c:	ffffffff 			; <UNDEFINED> instruction: 0xffffffff
 140:	7c020001 	stcvc	0, cr0, [r2], {1}
 144:	000d0c0e 	andeq	r0, sp, lr, lsl #24
 148:	00000014 	andeq	r0, r0, r4, lsl r0
 14c:	00000138 	andeq	r0, r0, r8, lsr r1
 150:	0000847c 	andeq	r8, r0, ip, ror r4
 154:	000000b8 	strheq	r0, [r0], -r8
 158:	8e040e42 	cdphi	14, 0, cr0, cr4, cr2, {2}
 15c:	180e4201 	stmdane	lr, {r0, r9, lr}
 160:	00000014 	andeq	r0, r0, r4, lsl r0
 164:	00000138 	andeq	r0, r0, r8, lsr r1
 168:	00008534 	andeq	r8, r0, r4, lsr r5
 16c:	00000080 	andeq	r0, r0, r0, lsl #1
 170:	8e040e42 	cdphi	14, 0, cr0, cr4, cr2, {2}
 174:	180e4201 	stmdane	lr, {r0, r9, lr}
 178:	00000014 	andeq	r0, r0, r4, lsl r0
 17c:	00000138 	andeq	r0, r0, r8, lsr r1
 180:	000085b4 			; <UNDEFINED> instruction: 0x000085b4
 184:	0000008c 	andeq	r0, r0, ip, lsl #1
 188:	8e040e42 	cdphi	14, 0, cr0, cr4, cr2, {2}
 18c:	280e4201 	stmdacs	lr, {r0, r9, lr}
 190:	00000014 	andeq	r0, r0, r4, lsl r0
 194:	00000138 	andeq	r0, r0, r8, lsr r1
 198:	00008640 	andeq	r8, r0, r0, asr #12
 19c:	00000030 	andeq	r0, r0, r0, lsr r0
 1a0:	83080e42 	movwhi	r0, #36418	; 0x8e42
 1a4:	00018e02 	andeq	r8, r1, r2, lsl #28
 1a8:	00000014 	andeq	r0, r0, r4, lsl r0
 1ac:	00000138 	andeq	r0, r0, r8, lsr r1
 1b0:	00008670 	andeq	r8, r0, r0, ror r6
 1b4:	000000c0 	andeq	r0, r0, r0, asr #1
 1b8:	83080e42 	movwhi	r0, #36418	; 0x8e42
 1bc:	00018e02 	andeq	r8, r1, r2, lsl #28
 1c0:	00000014 	andeq	r0, r0, r4, lsl r0
 1c4:	00000138 	andeq	r0, r0, r8, lsr r1
 1c8:	00008730 	andeq	r8, r0, r0, lsr r7
 1cc:	00000098 	muleq	r0, r8, r0
 1d0:	8e040e42 	cdphi	14, 0, cr0, cr4, cr2, {2}
 1d4:	100e4201 	andne	r4, lr, r1, lsl #4
 1d8:	0000000c 	andeq	r0, r0, ip
 1dc:	00000138 	andeq	r0, r0, r8, lsr r1
 1e0:	000087c8 	andeq	r8, r0, r8, asr #15
 1e4:	00000090 	muleq	r0, r0, r0
 1e8:	0000000c 	andeq	r0, r0, ip
 1ec:	00000138 	andeq	r0, r0, r8, lsr r1
 1f0:	00008858 	andeq	r8, r0, r8, asr r8
 1f4:	000000cc 	andeq	r0, r0, ip, asr #1
 1f8:	00000014 	andeq	r0, r0, r4, lsl r0
 1fc:	00000138 	andeq	r0, r0, r8, lsr r1
 200:	00008924 	andeq	r8, r0, r4, lsr #18
 204:	00000060 	andeq	r0, r0, r0, rrx
 208:	8e040e42 	cdphi	14, 0, cr0, cr4, cr2, {2}
 20c:	180e4201 	stmdane	lr, {r0, r9, lr}
 210:	00000018 	andeq	r0, r0, r8, lsl r0
 214:	00000138 	andeq	r0, r0, r8, lsr r1
 218:	00008984 	andeq	r8, r0, r4, lsl #19
 21c:	00000264 	andeq	r0, r0, r4, ror #4
 220:	84080e42 	strhi	r0, [r8], #-3650	; 0xe42
 224:	42018e02 	andmi	r8, r1, #32
 228:	0000200e 	andeq	r2, r0, lr
 22c:	00000018 	andeq	r0, r0, r8, lsl r0
 230:	00000138 	andeq	r0, r0, r8, lsr r1
 234:	00008be8 	andeq	r8, r0, r8, ror #23
 238:	0000036c 	andeq	r0, r0, ip, ror #6
 23c:	84080e42 	strhi	r0, [r8], #-3650	; 0xe42
 240:	42018e02 	andmi	r8, r1, #32
 244:	0000400e 	andeq	r4, r0, lr
