
kernel.elf:     file format elf32-littlearm


Disassembly of section .text:

00008000 <_start>:
    8000:	e59ff018 	ldr	pc, [pc, #24]	; 8020 <reset_handler>
    8004:	e59ff018 	ldr	pc, [pc, #24]	; 8024 <undefined_handler>
    8008:	e59ff018 	ldr	pc, [pc, #24]	; 8028 <swi_handler>
    800c:	e59ff018 	ldr	pc, [pc, #24]	; 802c <prefetch_handler>
    8010:	e59ff018 	ldr	pc, [pc, #24]	; 8030 <data_handler>
    8014:	e59ff018 	ldr	pc, [pc, #24]	; 8034 <unused_handler>
    8018:	e59ff018 	ldr	pc, [pc, #24]	; 8038 <irq_handler>
    801c:	e59ff018 	ldr	pc, [pc, #24]	; 803c <fiq_handler>

00008020 <reset_handler>:
    8020:	00008040 	andeq	r8, r0, r0, asr #32

00008024 <undefined_handler>:
    8024:	00008084 	andeq	r8, r0, r4, lsl #1

00008028 <swi_handler>:
    8028:	00008088 	andeq	r8, r0, r8, lsl #1

0000802c <prefetch_handler>:
    802c:	0000808c 	andeq	r8, r0, ip, lsl #1

00008030 <data_handler>:
    8030:	00008090 	muleq	r0, r0, r0

00008034 <unused_handler>:
    8034:	00008094 	muleq	r0, r4, r0

00008038 <irq_handler>:
    8038:	000080cc 	andeq	r8, r0, ip, asr #1

0000803c <fiq_handler>:
    803c:	00008098 	muleq	r0, r8, r0

00008040 <reset>:
    8040:	e3a00902 	mov	r0, #32768	; 0x8000
    8044:	e3a01000 	mov	r1, #0
    8048:	e8b003fc 	ldm	r0!, {r2, r3, r4, r5, r6, r7, r8, r9}
    804c:	e8a103fc 	stmia	r1!, {r2, r3, r4, r5, r6, r7, r8, r9}
    8050:	e8b003fc 	ldm	r0!, {r2, r3, r4, r5, r6, r7, r8, r9}
    8054:	e8a103fc 	stmia	r1!, {r2, r3, r4, r5, r6, r7, r8, r9}
    8058:	e3a000d1 	mov	r0, #209	; 0xd1
    805c:	e121f000 	msr	CPSR_c, r0
    8060:	e3a0d90e 	mov	sp, #229376	; 0x38000
    8064:	e3a000d2 	mov	r0, #210	; 0xd2
    8068:	e121f000 	msr	CPSR_c, r0
    806c:	e3a0d701 	mov	sp, #262144	; 0x40000
    8070:	e3a000d3 	mov	r0, #211	; 0xd3
    8074:	e121f000 	msr	CPSR_c, r0
    8078:	e3a0d912 	mov	sp, #294912	; 0x48000
    807c:	eb000035 	bl	8158 <kmain>

00008080 <hang>:
    8080:	eafffffe 	b	8080 <hang>

00008084 <undefined>:
    8084:	eafffffe 	b	8084 <undefined>

00008088 <swi>:
    8088:	eafffffe 	b	8088 <swi>

0000808c <prefetch>:
    808c:	eafffffe 	b	808c <prefetch>

00008090 <data>:
    8090:	eafffffe 	b	8090 <data>

00008094 <unused>:
    8094:	eafffffe 	b	8094 <unused>

00008098 <fiq>:
    8098:	eafffffe 	b	8098 <fiq>

0000809c <PUT32>:
    809c:	e5801000 	str	r1, [r0]
    80a0:	e12fff1e 	bx	lr

000080a4 <PUT16>:
    80a4:	e1c010b0 	strh	r1, [r0]
    80a8:	e12fff1e 	bx	lr

000080ac <PUT8>:
    80ac:	e5c01000 	strb	r1, [r0]
    80b0:	e12fff1e 	bx	lr

000080b4 <GET32>:
    80b4:	e5900000 	ldr	r0, [r0]
    80b8:	e12fff1e 	bx	lr

000080bc <GETPC>:
    80bc:	e1a0000e 	mov	r0, lr
    80c0:	e12fff1e 	bx	lr

000080c4 <BRANCHTO>:
    80c4:	e12fff10 	bx	r0

000080c8 <dummy>:
    80c8:	e12fff1e 	bx	lr

000080cc <irq>:
    80cc:	ea00020a 	b	88fc <ctx_switch_from_irq>

000080d0 <funcA>:
    80d0:	e52de004 	push	{lr}		; (str lr, [sp, #-4]!)
    80d4:	e24dd00c 	sub	sp, sp, #12
    80d8:	e3a03000 	mov	r3, #0
    80dc:	e58d3004 	str	r3, [sp, #4]
    80e0:	e59f3028 	ldr	r3, [pc, #40]	; 8110 <funcA+0x40>
    80e4:	e5933000 	ldr	r3, [r3]
    80e8:	e3530000 	cmp	r3, #0
    80ec:	1a000003 	bne	8100 <funcA+0x30>
    80f0:	eb0000a5 	bl	838c <led_on>
    80f4:	e59f3014 	ldr	r3, [pc, #20]	; 8110 <funcA+0x40>
    80f8:	e3a02001 	mov	r2, #1
    80fc:	e5832000 	str	r2, [r3]
    8100:	e59d3004 	ldr	r3, [sp, #4]
    8104:	e2833001 	add	r3, r3, #1
    8108:	e58d3004 	str	r3, [sp, #4]
    810c:	eafffff3 	b	80e0 <funcA+0x10>
    8110:	000089e4 	andeq	r8, r0, r4, ror #19

00008114 <funcB>:
    8114:	e52de004 	push	{lr}		; (str lr, [sp, #-4]!)
    8118:	e24dd00c 	sub	sp, sp, #12
    811c:	e3a03001 	mov	r3, #1
    8120:	e58d3004 	str	r3, [sp, #4]
    8124:	e59f3028 	ldr	r3, [pc, #40]	; 8154 <funcB+0x40>
    8128:	e5933000 	ldr	r3, [r3]
    812c:	e3530000 	cmp	r3, #0
    8130:	0a000003 	beq	8144 <funcB+0x30>
    8134:	eb00008e 	bl	8374 <led_off>
    8138:	e59f3014 	ldr	r3, [pc, #20]	; 8154 <funcB+0x40>
    813c:	e3a02000 	mov	r2, #0
    8140:	e5832000 	str	r2, [r3]
    8144:	e59d3004 	ldr	r3, [sp, #4]
    8148:	e2833002 	add	r3, r3, #2
    814c:	e58d3004 	str	r3, [sp, #4]
    8150:	eafffff3 	b	8124 <funcB+0x10>
    8154:	000089e4 	andeq	r8, r0, r4, ror #19

00008158 <kmain>:
    8158:	e92d4008 	push	{r3, lr}
    815c:	eb000090 	bl	83a4 <init_hw>
    8160:	e59f0028 	ldr	r0, [pc, #40]	; 8190 <kmain+0x38>
    8164:	e3a01000 	mov	r1, #0
    8168:	e3a02c02 	mov	r2, #512	; 0x200
    816c:	e3a03001 	mov	r3, #1
    8170:	eb000106 	bl	8590 <create_process>
    8174:	e59f0018 	ldr	r0, [pc, #24]	; 8194 <kmain+0x3c>
    8178:	e3a01000 	mov	r1, #0
    817c:	e3a02c02 	mov	r2, #512	; 0x200
    8180:	e3a03002 	mov	r3, #2
    8184:	eb000101 	bl	8590 <create_process>
    8188:	eb000193 	bl	87dc <start_sched>
    818c:	eafffffe 	b	818c <kmain+0x34>
    8190:	00008114 	andeq	r8, r0, r4, lsl r1
    8194:	000080d0 	ldrdeq	r8, [r0], -r0

00008198 <phyAlloc_alloc>:
    8198:	e92d0030 	push	{r4, r5}
    819c:	e24dd008 	sub	sp, sp, #8
    81a0:	e58d0004 	str	r0, [sp, #4]
    81a4:	e59f3094 	ldr	r3, [pc, #148]	; 8240 <phyAlloc_alloc+0xa8>
    81a8:	e5934000 	ldr	r4, [r3]
    81ac:	e59f508c 	ldr	r5, [pc, #140]	; 8240 <phyAlloc_alloc+0xa8>
    81b0:	ea000001 	b	81bc <phyAlloc_alloc+0x24>
    81b4:	e1a05004 	mov	r5, r4
    81b8:	e5944000 	ldr	r4, [r4]
    81bc:	e3540000 	cmp	r4, #0
    81c0:	0a000003 	beq	81d4 <phyAlloc_alloc+0x3c>
    81c4:	e5942004 	ldr	r2, [r4, #4]
    81c8:	e59d3004 	ldr	r3, [sp, #4]
    81cc:	e1520003 	cmp	r2, r3
    81d0:	3afffff7 	bcc	81b4 <phyAlloc_alloc+0x1c>
    81d4:	e3540000 	cmp	r4, #0
    81d8:	1a000011 	bne	8224 <phyAlloc_alloc+0x8c>
    81dc:	e59f3060 	ldr	r3, [pc, #96]	; 8244 <phyAlloc_alloc+0xac>
    81e0:	e5934000 	ldr	r4, [r3]
    81e4:	e59f3058 	ldr	r3, [pc, #88]	; 8244 <phyAlloc_alloc+0xac>
    81e8:	e5932000 	ldr	r2, [r3]
    81ec:	e59d3004 	ldr	r3, [sp, #4]
    81f0:	e2833003 	add	r3, r3, #3
    81f4:	e3c33003 	bic	r3, r3, #3
    81f8:	e0822003 	add	r2, r2, r3
    81fc:	e59f3040 	ldr	r3, [pc, #64]	; 8244 <phyAlloc_alloc+0xac>
    8200:	e5832000 	str	r2, [r3]
    8204:	e59f3038 	ldr	r3, [pc, #56]	; 8244 <phyAlloc_alloc+0xac>
    8208:	e5932000 	ldr	r2, [r3]
    820c:	e59f3034 	ldr	r3, [pc, #52]	; 8248 <phyAlloc_alloc+0xb0>
    8210:	e5933000 	ldr	r3, [r3]
    8214:	e1520003 	cmp	r2, r3
    8218:	9a000003 	bls	822c <phyAlloc_alloc+0x94>
    821c:	e3a03000 	mov	r3, #0
    8220:	ea000002 	b	8230 <phyAlloc_alloc+0x98>
    8224:	e5943000 	ldr	r3, [r4]
    8228:	e5853000 	str	r3, [r5]
    822c:	e1a03004 	mov	r3, r4
    8230:	e1a00003 	mov	r0, r3
    8234:	e28dd008 	add	sp, sp, #8
    8238:	e8bd0030 	pop	{r4, r5}
    823c:	e12fff1e 	bx	lr
    8240:	000089c8 	andeq	r8, r0, r8, asr #19
    8244:	000089cc 	andeq	r8, r0, ip, asr #19
    8248:	000089d0 	ldrdeq	r8, [r0], -r0

0000824c <phyAlloc_free>:
    824c:	e52d4004 	push	{r4}		; (str r4, [sp, #-4]!)
    8250:	e24dd00c 	sub	sp, sp, #12
    8254:	e58d0004 	str	r0, [sp, #4]
    8258:	e58d1000 	str	r1, [sp]
    825c:	e59d4004 	ldr	r4, [sp, #4]
    8260:	e59d3000 	ldr	r3, [sp]
    8264:	e2833003 	add	r3, r3, #3
    8268:	e3c33003 	bic	r3, r3, #3
    826c:	e5843004 	str	r3, [r4, #4]
    8270:	e59f3018 	ldr	r3, [pc, #24]	; 8290 <phyAlloc_free+0x44>
    8274:	e5933000 	ldr	r3, [r3]
    8278:	e5843000 	str	r3, [r4]
    827c:	e59f300c 	ldr	r3, [pc, #12]	; 8290 <phyAlloc_free+0x44>
    8280:	e5834000 	str	r4, [r3]
    8284:	e28dd00c 	add	sp, sp, #12
    8288:	e8bd0010 	pop	{r4}
    828c:	e12fff1e 	bx	lr
    8290:	000089c8 	andeq	r8, r0, r8, asr #19

00008294 <phyAlloc_init>:
    8294:	e24dd008 	sub	sp, sp, #8
    8298:	e58d0004 	str	r0, [sp, #4]
    829c:	e58d1000 	str	r1, [sp]
    82a0:	e59f3020 	ldr	r3, [pc, #32]	; 82c8 <phyAlloc_init+0x34>
    82a4:	e59d2004 	ldr	r2, [sp, #4]
    82a8:	e5832000 	str	r2, [r3]
    82ac:	e59d2004 	ldr	r2, [sp, #4]
    82b0:	e59d3000 	ldr	r3, [sp]
    82b4:	e0822003 	add	r2, r2, r3
    82b8:	e59f300c 	ldr	r3, [pc, #12]	; 82cc <phyAlloc_init+0x38>
    82bc:	e5832000 	str	r2, [r3]
    82c0:	e28dd008 	add	sp, sp, #8
    82c4:	e12fff1e 	bx	lr
    82c8:	000089cc 	andeq	r8, r0, ip, asr #19
    82cc:	000089d0 	ldrdeq	r8, [r0], -r0

000082d0 <set_tick_and_enable_timer>:
    82d0:	e52de004 	push	{lr}		; (str lr, [sp, #-4]!)
    82d4:	e24dd00c 	sub	sp, sp, #12
    82d8:	e59f0030 	ldr	r0, [pc, #48]	; 8310 <set_tick_and_enable_timer+0x40>
    82dc:	ebffff74 	bl	80b4 <GET32>
    82e0:	e58d0004 	str	r0, [sp, #4]
    82e4:	e59d3004 	ldr	r3, [sp, #4]
    82e8:	e2833702 	add	r3, r3, #524288	; 0x80000
    82ec:	e58d3004 	str	r3, [sp, #4]
    82f0:	e59f001c 	ldr	r0, [pc, #28]	; 8314 <set_tick_and_enable_timer+0x44>
    82f4:	e59d1004 	ldr	r1, [sp, #4]
    82f8:	ebffff67 	bl	809c <PUT32>
    82fc:	e59f0014 	ldr	r0, [pc, #20]	; 8318 <set_tick_and_enable_timer+0x48>
    8300:	e3a01002 	mov	r1, #2
    8304:	ebffff64 	bl	809c <PUT32>
    8308:	e28dd00c 	add	sp, sp, #12
    830c:	e8bd8000 	pop	{pc}
    8310:	20003004 	andcs	r3, r0, r4
    8314:	20003010 	andcs	r3, r0, r0, lsl r0
    8318:	20003000 	andcs	r3, r0, r0

0000831c <set_tick_and_enable_timer_priority>:
    831c:	e52de004 	push	{lr}		; (str lr, [sp, #-4]!)
    8320:	e24dd014 	sub	sp, sp, #20
    8324:	e58d0004 	str	r0, [sp, #4]
    8328:	e59f0038 	ldr	r0, [pc, #56]	; 8368 <set_tick_and_enable_timer_priority+0x4c>
    832c:	ebffff60 	bl	80b4 <GET32>
    8330:	e58d000c 	str	r0, [sp, #12]
    8334:	e59d3004 	ldr	r3, [sp, #4]
    8338:	e1a03983 	lsl	r3, r3, #19
    833c:	e59d200c 	ldr	r2, [sp, #12]
    8340:	e0823003 	add	r3, r2, r3
    8344:	e58d300c 	str	r3, [sp, #12]
    8348:	e59f001c 	ldr	r0, [pc, #28]	; 836c <set_tick_and_enable_timer_priority+0x50>
    834c:	e59d100c 	ldr	r1, [sp, #12]
    8350:	ebffff51 	bl	809c <PUT32>
    8354:	e59f0014 	ldr	r0, [pc, #20]	; 8370 <set_tick_and_enable_timer_priority+0x54>
    8358:	e3a01002 	mov	r1, #2
    835c:	ebffff4e 	bl	809c <PUT32>
    8360:	e28dd014 	add	sp, sp, #20
    8364:	e8bd8000 	pop	{pc}
    8368:	20003004 	andcs	r3, r0, r4
    836c:	20003010 	andcs	r3, r0, r0, lsl r0
    8370:	20003000 	andcs	r3, r0, r0

00008374 <led_off>:
    8374:	e92d4008 	push	{r3, lr}
    8378:	e59f0008 	ldr	r0, [pc, #8]	; 8388 <led_off+0x14>
    837c:	e3a01801 	mov	r1, #65536	; 0x10000
    8380:	ebffff45 	bl	809c <PUT32>
    8384:	e8bd8008 	pop	{r3, pc}
    8388:	2020001c 	eorcs	r0, r0, ip, lsl r0

0000838c <led_on>:
    838c:	e92d4008 	push	{r3, lr}
    8390:	e59f0008 	ldr	r0, [pc, #8]	; 83a0 <led_on+0x14>
    8394:	e3a01801 	mov	r1, #65536	; 0x10000
    8398:	ebffff3f 	bl	809c <PUT32>
    839c:	e8bd8008 	pop	{r3, pc}
    83a0:	20200028 	eorcs	r0, r0, r8, lsr #32

000083a4 <init_hw>:
    83a4:	e52de004 	push	{lr}		; (str lr, [sp, #-4]!)
    83a8:	e24dd00c 	sub	sp, sp, #12
    83ac:	e59f0098 	ldr	r0, [pc, #152]	; 844c <init_hw+0xa8>
    83b0:	ebffff3f 	bl	80b4 <GET32>
    83b4:	e58d0004 	str	r0, [sp, #4]
    83b8:	e59d3004 	ldr	r3, [sp, #4]
    83bc:	e3c33707 	bic	r3, r3, #1835008	; 0x1c0000
    83c0:	e58d3004 	str	r3, [sp, #4]
    83c4:	e59d3004 	ldr	r3, [sp, #4]
    83c8:	e3833701 	orr	r3, r3, #262144	; 0x40000
    83cc:	e58d3004 	str	r3, [sp, #4]
    83d0:	e59f0074 	ldr	r0, [pc, #116]	; 844c <init_hw+0xa8>
    83d4:	e59d1004 	ldr	r1, [sp, #4]
    83d8:	ebffff2f 	bl	809c <PUT32>
    83dc:	e59f006c 	ldr	r0, [pc, #108]	; 8450 <init_hw+0xac>
    83e0:	e3a01801 	mov	r1, #65536	; 0x10000
    83e4:	ebffff2c 	bl	809c <PUT32>
    83e8:	e59f0064 	ldr	r0, [pc, #100]	; 8454 <init_hw+0xb0>
    83ec:	ebffff30 	bl	80b4 <GET32>
    83f0:	e58d0000 	str	r0, [sp]
    83f4:	e59d3000 	ldr	r3, [sp]
    83f8:	e2833702 	add	r3, r3, #524288	; 0x80000
    83fc:	e58d3000 	str	r3, [sp]
    8400:	e59f0050 	ldr	r0, [pc, #80]	; 8458 <init_hw+0xb4>
    8404:	e59d1000 	ldr	r1, [sp]
    8408:	ebffff23 	bl	809c <PUT32>
    840c:	e59f0048 	ldr	r0, [pc, #72]	; 845c <init_hw+0xb8>
    8410:	e3a01002 	mov	r1, #2
    8414:	ebffff20 	bl	809c <PUT32>
    8418:	e59f0040 	ldr	r0, [pc, #64]	; 8460 <init_hw+0xbc>
    841c:	e3a01002 	mov	r1, #2
    8420:	ebffff1d 	bl	809c <PUT32>
    8424:	e92d0001 	push	{r0}
    8428:	e10f0000 	mrs	r0, CPSR
    842c:	e3800080 	orr	r0, r0, #128	; 0x80
    8430:	e121f000 	msr	CPSR_c, r0
    8434:	e8bd0001 	pop	{r0}
    8438:	e3a00805 	mov	r0, #327680	; 0x50000
    843c:	e3a01a32 	mov	r1, #204800	; 0x32000
    8440:	ebffff93 	bl	8294 <phyAlloc_init>
    8444:	e28dd00c 	add	sp, sp, #12
    8448:	e8bd8000 	pop	{pc}
    844c:	20200004 	eorcs	r0, r0, r4
    8450:	2020001c 	eorcs	r0, r0, ip, lsl r0
    8454:	20003004 	andcs	r3, r0, r4
    8458:	20003010 	andcs	r3, r0, r0, lsl r0
    845c:	20003000 	andcs	r3, r0, r0
    8460:	2000b210 	andcs	fp, r0, r0, lsl r2

00008464 <init_ctx>:
    8464:	e52de004 	push	{lr}		; (str lr, [sp, #-4]!)
    8468:	e24dd014 	sub	sp, sp, #20
    846c:	e58d000c 	str	r0, [sp, #12]
    8470:	e58d1008 	str	r1, [sp, #8]
    8474:	e58d2004 	str	r2, [sp, #4]
    8478:	e59d0004 	ldr	r0, [sp, #4]
    847c:	ebffff45 	bl	8198 <phyAlloc_alloc>
    8480:	e1a02000 	mov	r2, r0
    8484:	e59d300c 	ldr	r3, [sp, #12]
    8488:	e5832000 	str	r2, [r3]
    848c:	e59d300c 	ldr	r3, [sp, #12]
    8490:	e5932000 	ldr	r2, [r3]
    8494:	e59d3004 	ldr	r3, [sp, #4]
    8498:	e1a03103 	lsl	r3, r3, #2
    849c:	e0822003 	add	r2, r2, r3
    84a0:	e59d300c 	ldr	r3, [sp, #12]
    84a4:	e5832000 	str	r2, [r3]
    84a8:	e59d300c 	ldr	r3, [sp, #12]
    84ac:	e5933000 	ldr	r3, [r3]
    84b0:	e2432004 	sub	r2, r3, #4
    84b4:	e59d300c 	ldr	r3, [sp, #12]
    84b8:	e5832000 	str	r2, [r3]
    84bc:	e59d300c 	ldr	r3, [sp, #12]
    84c0:	e5933000 	ldr	r3, [r3]
    84c4:	e3a02053 	mov	r2, #83	; 0x53
    84c8:	e5832000 	str	r2, [r3]
    84cc:	e59d300c 	ldr	r3, [sp, #12]
    84d0:	e5933000 	ldr	r3, [r3]
    84d4:	e2432004 	sub	r2, r3, #4
    84d8:	e59d300c 	ldr	r3, [sp, #12]
    84dc:	e5832000 	str	r2, [r3]
    84e0:	e59d300c 	ldr	r3, [sp, #12]
    84e4:	e5933000 	ldr	r3, [r3]
    84e8:	e59f2028 	ldr	r2, [pc, #40]	; 8518 <init_ctx+0xb4>
    84ec:	e5832000 	str	r2, [r3]
    84f0:	e59d300c 	ldr	r3, [sp, #12]
    84f4:	e5933000 	ldr	r3, [r3]
    84f8:	e2432034 	sub	r2, r3, #52	; 0x34
    84fc:	e59d300c 	ldr	r3, [sp, #12]
    8500:	e5832000 	str	r2, [r3]
    8504:	e59d300c 	ldr	r3, [sp, #12]
    8508:	e59d2008 	ldr	r2, [sp, #8]
    850c:	e5832004 	str	r2, [r3, #4]
    8510:	e28dd014 	add	sp, sp, #20
    8514:	e8bd8000 	pop	{pc}
    8518:	0000867c 	andeq	r8, r0, ip, ror r6

0000851c <init_pcb>:
    851c:	e52de004 	push	{lr}		; (str lr, [sp, #-4]!)
    8520:	e24dd014 	sub	sp, sp, #20
    8524:	e58d000c 	str	r0, [sp, #12]
    8528:	e58d1008 	str	r1, [sp, #8]
    852c:	e58d2004 	str	r2, [sp, #4]
    8530:	e58d3000 	str	r3, [sp]
    8534:	e3a00008 	mov	r0, #8
    8538:	ebffff16 	bl	8198 <phyAlloc_alloc>
    853c:	e1a02000 	mov	r2, r0
    8540:	e59d300c 	ldr	r3, [sp, #12]
    8544:	e5832004 	str	r2, [r3, #4]
    8548:	e59d300c 	ldr	r3, [sp, #12]
    854c:	e5933004 	ldr	r3, [r3, #4]
    8550:	e1a00003 	mov	r0, r3
    8554:	e59f1030 	ldr	r1, [pc, #48]	; 858c <init_pcb+0x70>
    8558:	e59d2004 	ldr	r2, [sp, #4]
    855c:	ebffffc0 	bl	8464 <init_ctx>
    8560:	e59d300c 	ldr	r3, [sp, #12]
    8564:	e3a02001 	mov	r2, #1
    8568:	e5c32000 	strb	r2, [r3]
    856c:	e59d300c 	ldr	r3, [sp, #12]
    8570:	e59d2008 	ldr	r2, [sp, #8]
    8574:	e5832010 	str	r2, [r3, #16]
    8578:	e59d300c 	ldr	r3, [sp, #12]
    857c:	e59d2000 	ldr	r2, [sp]
    8580:	e5832014 	str	r2, [r3, #20]
    8584:	e28dd014 	add	sp, sp, #20
    8588:	e8bd8000 	pop	{pc}
    858c:	0000867c 	andeq	r8, r0, ip, ror r6

00008590 <create_process>:
    8590:	e52de004 	push	{lr}		; (str lr, [sp, #-4]!)
    8594:	e24dd01c 	sub	sp, sp, #28
    8598:	e58d000c 	str	r0, [sp, #12]
    859c:	e58d1008 	str	r1, [sp, #8]
    85a0:	e58d2004 	str	r2, [sp, #4]
    85a4:	e58d3000 	str	r3, [sp]
    85a8:	e92d0001 	push	{r0}
    85ac:	e10f0000 	mrs	r0, CPSR
    85b0:	e3800080 	orr	r0, r0, #128	; 0x80
    85b4:	e121f000 	msr	CPSR_c, r0
    85b8:	e8bd0001 	pop	{r0}
    85bc:	e3a00018 	mov	r0, #24
    85c0:	ebfffef4 	bl	8198 <phyAlloc_alloc>
    85c4:	e58d0014 	str	r0, [sp, #20]
    85c8:	e59f30a4 	ldr	r3, [pc, #164]	; 8674 <create_process+0xe4>
    85cc:	e5933000 	ldr	r3, [r3]
    85d0:	e3530000 	cmp	r3, #0
    85d4:	1a00000d 	bne	8610 <create_process+0x80>
    85d8:	e59f3098 	ldr	r3, [pc, #152]	; 8678 <create_process+0xe8>
    85dc:	e5933000 	ldr	r3, [r3]
    85e0:	e3530000 	cmp	r3, #0
    85e4:	1a000009 	bne	8610 <create_process+0x80>
    85e8:	e59f3084 	ldr	r3, [pc, #132]	; 8674 <create_process+0xe4>
    85ec:	e59d2014 	ldr	r2, [sp, #20]
    85f0:	e5832000 	str	r2, [r3]
    85f4:	e59f307c 	ldr	r3, [pc, #124]	; 8678 <create_process+0xe8>
    85f8:	e59d2014 	ldr	r2, [sp, #20]
    85fc:	e5832000 	str	r2, [r3]
    8600:	e59d3014 	ldr	r3, [sp, #20]
    8604:	e59d2014 	ldr	r2, [sp, #20]
    8608:	e5832008 	str	r2, [r3, #8]
    860c:	ea00000b 	b	8640 <create_process+0xb0>
    8610:	e59f305c 	ldr	r3, [pc, #92]	; 8674 <create_process+0xe4>
    8614:	e5933000 	ldr	r3, [r3]
    8618:	e59d2014 	ldr	r2, [sp, #20]
    861c:	e5832008 	str	r2, [r3, #8]
    8620:	e59f304c 	ldr	r3, [pc, #76]	; 8674 <create_process+0xe4>
    8624:	e59d2014 	ldr	r2, [sp, #20]
    8628:	e5832000 	str	r2, [r3]
    862c:	e59f3040 	ldr	r3, [pc, #64]	; 8674 <create_process+0xe4>
    8630:	e5933000 	ldr	r3, [r3]
    8634:	e59f203c 	ldr	r2, [pc, #60]	; 8678 <create_process+0xe8>
    8638:	e5922000 	ldr	r2, [r2]
    863c:	e5832008 	str	r2, [r3, #8]
    8640:	e59d0014 	ldr	r0, [sp, #20]
    8644:	e59d100c 	ldr	r1, [sp, #12]
    8648:	e59d2004 	ldr	r2, [sp, #4]
    864c:	e59d3000 	ldr	r3, [sp]
    8650:	ebffffb1 	bl	851c <init_pcb>
    8654:	ebffff1d 	bl	82d0 <set_tick_and_enable_timer>
    8658:	e92d0001 	push	{r0}
    865c:	e10f0000 	mrs	r0, CPSR
    8660:	e3c00080 	bic	r0, r0, #128	; 0x80
    8664:	e121f000 	msr	CPSR_c, r0
    8668:	e8bd0001 	pop	{r0}
    866c:	e28dd01c 	add	sp, sp, #28
    8670:	e8bd8000 	pop	{pc}
    8674:	000089dc 	ldrdeq	r8, [r0], -ip
    8678:	000089d8 	ldrdeq	r8, [r0], -r8	; <UNPREDICTABLE>

0000867c <start_current_process>:
    867c:	e92d4008 	push	{r3, lr}
    8680:	e59f3020 	ldr	r3, [pc, #32]	; 86a8 <start_current_process+0x2c>
    8684:	e5933000 	ldr	r3, [r3]
    8688:	e5933010 	ldr	r3, [r3, #16]
    868c:	e12fff33 	blx	r3
    8690:	e59f3010 	ldr	r3, [pc, #16]	; 86a8 <start_current_process+0x2c>
    8694:	e5933000 	ldr	r3, [r3]
    8698:	e3a02005 	mov	r2, #5
    869c:	e5c32000 	strb	r2, [r3]
    86a0:	eb000071 	bl	886c <ctx_switch>
    86a4:	e8bd8008 	pop	{r3, pc}
    86a8:	000089e0 	andeq	r8, r0, r0, ror #19

000086ac <elect>:
    86ac:	e52de004 	push	{lr}		; (str lr, [sp, #-4]!)
    86b0:	e24dd00c 	sub	sp, sp, #12
    86b4:	e3a03000 	mov	r3, #0
    86b8:	e58d3004 	str	r3, [sp, #4]
    86bc:	ea000030 	b	8784 <elect+0xd8>
    86c0:	e59f310c 	ldr	r3, [pc, #268]	; 87d4 <elect+0x128>
    86c4:	e5933000 	ldr	r3, [r3]
    86c8:	e5933008 	ldr	r3, [r3, #8]
    86cc:	e58d3004 	str	r3, [sp, #4]
    86d0:	e59f30fc 	ldr	r3, [pc, #252]	; 87d4 <elect+0x128>
    86d4:	e5933000 	ldr	r3, [r3]
    86d8:	e59f20f4 	ldr	r2, [pc, #244]	; 87d4 <elect+0x128>
    86dc:	e5922000 	ldr	r2, [r2]
    86e0:	e5922008 	ldr	r2, [r2, #8]
    86e4:	e5922008 	ldr	r2, [r2, #8]
    86e8:	e5832008 	str	r2, [r3, #8]
    86ec:	e59f30e0 	ldr	r3, [pc, #224]	; 87d4 <elect+0x128>
    86f0:	e5933000 	ldr	r3, [r3]
    86f4:	e5932008 	ldr	r2, [r3, #8]
    86f8:	e59f30d4 	ldr	r3, [pc, #212]	; 87d4 <elect+0x128>
    86fc:	e5933000 	ldr	r3, [r3]
    8700:	e1520003 	cmp	r2, r3
    8704:	1a000008 	bne	872c <elect+0x80>
    8708:	e59f30c8 	ldr	r3, [pc, #200]	; 87d8 <elect+0x12c>
    870c:	e5932000 	ldr	r2, [r3]
    8710:	e59f30bc 	ldr	r3, [pc, #188]	; 87d4 <elect+0x128>
    8714:	e5832000 	str	r2, [r3]
    8718:	e59f30b4 	ldr	r3, [pc, #180]	; 87d4 <elect+0x128>
    871c:	e5933000 	ldr	r3, [r3]
    8720:	e59f20b0 	ldr	r2, [pc, #176]	; 87d8 <elect+0x12c>
    8724:	e5922000 	ldr	r2, [r2]
    8728:	e5832008 	str	r2, [r3, #8]
    872c:	e59d3004 	ldr	r3, [sp, #4]
    8730:	e5932004 	ldr	r2, [r3, #4]
    8734:	e59d3004 	ldr	r3, [sp, #4]
    8738:	e5933004 	ldr	r3, [r3, #4]
    873c:	e5933000 	ldr	r3, [r3]
    8740:	e2433e83 	sub	r3, r3, #2096	; 0x830
    8744:	e2433008 	sub	r3, r3, #8
    8748:	e5823000 	str	r3, [r2]
    874c:	e59d3004 	ldr	r3, [sp, #4]
    8750:	e5933004 	ldr	r3, [r3, #4]
    8754:	e5933000 	ldr	r3, [r3]
    8758:	e1a00003 	mov	r0, r3
    875c:	e3a01c02 	mov	r1, #512	; 0x200
    8760:	ebfffeb9 	bl	824c <phyAlloc_free>
    8764:	e59d3004 	ldr	r3, [sp, #4]
    8768:	e5933004 	ldr	r3, [r3, #4]
    876c:	e1a00003 	mov	r0, r3
    8770:	e3a01008 	mov	r1, #8
    8774:	ebfffeb4 	bl	824c <phyAlloc_free>
    8778:	e59d0004 	ldr	r0, [sp, #4]
    877c:	e3a01018 	mov	r1, #24
    8780:	ebfffeb1 	bl	824c <phyAlloc_free>
    8784:	e59f3048 	ldr	r3, [pc, #72]	; 87d4 <elect+0x128>
    8788:	e5933000 	ldr	r3, [r3]
    878c:	e5933008 	ldr	r3, [r3, #8]
    8790:	e5d33000 	ldrb	r3, [r3]
    8794:	e3530005 	cmp	r3, #5
    8798:	0affffc8 	beq	86c0 <elect+0x14>
    879c:	e59f3030 	ldr	r3, [pc, #48]	; 87d4 <elect+0x128>
    87a0:	e5933000 	ldr	r3, [r3]
    87a4:	e5932008 	ldr	r2, [r3, #8]
    87a8:	e59f3028 	ldr	r3, [pc, #40]	; 87d8 <elect+0x12c>
    87ac:	e5933000 	ldr	r3, [r3]
    87b0:	e1520003 	cmp	r2, r3
    87b4:	0a000004 	beq	87cc <elect+0x120>
    87b8:	e59f3014 	ldr	r3, [pc, #20]	; 87d4 <elect+0x128>
    87bc:	e5933000 	ldr	r3, [r3]
    87c0:	e5932008 	ldr	r2, [r3, #8]
    87c4:	e59f3008 	ldr	r3, [pc, #8]	; 87d4 <elect+0x128>
    87c8:	e5832000 	str	r2, [r3]
    87cc:	e28dd00c 	add	sp, sp, #12
    87d0:	e8bd8000 	pop	{pc}
    87d4:	000089e0 	andeq	r8, r0, r0, ror #19
    87d8:	000089d4 	ldrdeq	r8, [r0], -r4

000087dc <start_sched>:
    87dc:	e92d4008 	push	{r3, lr}
    87e0:	e3a00018 	mov	r0, #24
    87e4:	ebfffe6b 	bl	8198 <phyAlloc_alloc>
    87e8:	e1a02000 	mov	r2, r0
    87ec:	e59f306c 	ldr	r3, [pc, #108]	; 8860 <start_sched+0x84>
    87f0:	e5832000 	str	r2, [r3]
    87f4:	e59f3064 	ldr	r3, [pc, #100]	; 8860 <start_sched+0x84>
    87f8:	e5933000 	ldr	r3, [r3]
    87fc:	e1a00003 	mov	r0, r3
    8800:	e3a01000 	mov	r1, #0
    8804:	e3a02c02 	mov	r2, #512	; 0x200
    8808:	e3a03001 	mov	r3, #1
    880c:	ebffff42 	bl	851c <init_pcb>
    8810:	e59f3048 	ldr	r3, [pc, #72]	; 8860 <start_sched+0x84>
    8814:	e5933000 	ldr	r3, [r3]
    8818:	e59f2044 	ldr	r2, [pc, #68]	; 8864 <start_sched+0x88>
    881c:	e5922000 	ldr	r2, [r2]
    8820:	e5832008 	str	r2, [r3, #8]
    8824:	e59f3034 	ldr	r3, [pc, #52]	; 8860 <start_sched+0x84>
    8828:	e5932000 	ldr	r2, [r3]
    882c:	e59f3034 	ldr	r3, [pc, #52]	; 8868 <start_sched+0x8c>
    8830:	e5832000 	str	r2, [r3]
    8834:	e59f3024 	ldr	r3, [pc, #36]	; 8860 <start_sched+0x84>
    8838:	e5933000 	ldr	r3, [r3]
    883c:	e5933014 	ldr	r3, [r3, #20]
    8840:	e1a00003 	mov	r0, r3
    8844:	ebfffeb4 	bl	831c <set_tick_and_enable_timer_priority>
    8848:	e92d0001 	push	{r0}
    884c:	e10f0000 	mrs	r0, CPSR
    8850:	e3c00080 	bic	r0, r0, #128	; 0x80
    8854:	e121f000 	msr	CPSR_c, r0
    8858:	e8bd0001 	pop	{r0}
    885c:	e8bd8008 	pop	{r3, pc}
    8860:	000089d4 	ldrdeq	r8, [r0], -r4
    8864:	000089d8 	ldrdeq	r8, [r0], -r8	; <UNPREDICTABLE>
    8868:	000089e0 	andeq	r8, r0, r0, ror #19

0000886c <ctx_switch>:
    886c:	e92d0001 	push	{r0}
    8870:	e10f0000 	mrs	r0, CPSR
    8874:	e3800080 	orr	r0, r0, #128	; 0x80
    8878:	e121f000 	msr	CPSR_c, r0
    887c:	e8bd0001 	pop	{r0}
    8880:	e92d1fff 	push	{r0, r1, r2, r3, r4, r5, r6, r7, r8, r9, sl, fp, ip}
    8884:	e59f306c 	ldr	r3, [pc, #108]	; 88f8 <ctx_switch+0x8c>
    8888:	e5933000 	ldr	r3, [r3]
    888c:	e5933004 	ldr	r3, [r3, #4]
    8890:	e1a0200e 	mov	r2, lr
    8894:	e5832004 	str	r2, [r3, #4]
    8898:	e59f3058 	ldr	r3, [pc, #88]	; 88f8 <ctx_switch+0x8c>
    889c:	e5933000 	ldr	r3, [r3]
    88a0:	e5933004 	ldr	r3, [r3, #4]
    88a4:	e1a0200d 	mov	r2, sp
    88a8:	e5832000 	str	r2, [r3]
    88ac:	ebffff7e 	bl	86ac <elect>
    88b0:	e59f3040 	ldr	r3, [pc, #64]	; 88f8 <ctx_switch+0x8c>
    88b4:	e5933000 	ldr	r3, [r3]
    88b8:	e5933004 	ldr	r3, [r3, #4]
    88bc:	e5933000 	ldr	r3, [r3]
    88c0:	e1a0d003 	mov	sp, r3
    88c4:	e59f302c 	ldr	r3, [pc, #44]	; 88f8 <ctx_switch+0x8c>
    88c8:	e5933000 	ldr	r3, [r3]
    88cc:	e5933004 	ldr	r3, [r3, #4]
    88d0:	e5933004 	ldr	r3, [r3, #4]
    88d4:	e1a0e003 	mov	lr, r3
    88d8:	ebfffe7c 	bl	82d0 <set_tick_and_enable_timer>
    88dc:	e8bd1fff 	pop	{r0, r1, r2, r3, r4, r5, r6, r7, r8, r9, sl, fp, ip}
    88e0:	e92d0001 	push	{r0}
    88e4:	e10f0000 	mrs	r0, CPSR
    88e8:	e3c00080 	bic	r0, r0, #128	; 0x80
    88ec:	e121f000 	msr	CPSR_c, r0
    88f0:	e8bd0001 	pop	{r0}
    88f4:	e12fff1e 	bx	lr
    88f8:	000089e0 	andeq	r8, r0, r0, ror #19

000088fc <ctx_switch_from_irq>:
    88fc:	e92d0001 	push	{r0}
    8900:	e10f0000 	mrs	r0, CPSR
    8904:	e3800080 	orr	r0, r0, #128	; 0x80
    8908:	e121f000 	msr	CPSR_c, r0
    890c:	e8bd0001 	pop	{r0}
    8910:	e24ee004 	sub	lr, lr, #4
    8914:	f96d0513 	srsdb	sp!, #19
    8918:	f1020013 	cps	#19
    891c:	e92d1fff 	push	{r0, r1, r2, r3, r4, r5, r6, r7, r8, r9, sl, fp, ip}
    8920:	e59f309c 	ldr	r3, [pc, #156]	; 89c4 <ctx_switch_from_irq+0xc8>
    8924:	e5933000 	ldr	r3, [r3]
    8928:	e5933004 	ldr	r3, [r3, #4]
    892c:	e1a0200e 	mov	r2, lr
    8930:	e5832004 	str	r2, [r3, #4]
    8934:	e59f3088 	ldr	r3, [pc, #136]	; 89c4 <ctx_switch_from_irq+0xc8>
    8938:	e5933000 	ldr	r3, [r3]
    893c:	e5933004 	ldr	r3, [r3, #4]
    8940:	e1a0200d 	mov	r2, sp
    8944:	e5832000 	str	r2, [r3]
    8948:	e59f3074 	ldr	r3, [pc, #116]	; 89c4 <ctx_switch_from_irq+0xc8>
    894c:	e5933000 	ldr	r3, [r3]
    8950:	e3a02001 	mov	r2, #1
    8954:	e5c32000 	strb	r2, [r3]
    8958:	ebffff53 	bl	86ac <elect>
    895c:	e59f3060 	ldr	r3, [pc, #96]	; 89c4 <ctx_switch_from_irq+0xc8>
    8960:	e5933000 	ldr	r3, [r3]
    8964:	e3a02004 	mov	r2, #4
    8968:	e5c32000 	strb	r2, [r3]
    896c:	e59f3050 	ldr	r3, [pc, #80]	; 89c4 <ctx_switch_from_irq+0xc8>
    8970:	e5933000 	ldr	r3, [r3]
    8974:	e5933004 	ldr	r3, [r3, #4]
    8978:	e5933000 	ldr	r3, [r3]
    897c:	e1a0d003 	mov	sp, r3
    8980:	e59f303c 	ldr	r3, [pc, #60]	; 89c4 <ctx_switch_from_irq+0xc8>
    8984:	e5933000 	ldr	r3, [r3]
    8988:	e5933004 	ldr	r3, [r3, #4]
    898c:	e5933004 	ldr	r3, [r3, #4]
    8990:	e1a0e003 	mov	lr, r3
    8994:	e59f3028 	ldr	r3, [pc, #40]	; 89c4 <ctx_switch_from_irq+0xc8>
    8998:	e5933000 	ldr	r3, [r3]
    899c:	e5933014 	ldr	r3, [r3, #20]
    89a0:	e1a00003 	mov	r0, r3
    89a4:	ebfffe5c 	bl	831c <set_tick_and_enable_timer_priority>
    89a8:	e8bd1fff 	pop	{r0, r1, r2, r3, r4, r5, r6, r7, r8, r9, sl, fp, ip}
    89ac:	e92d0001 	push	{r0}
    89b0:	e10f0000 	mrs	r0, CPSR
    89b4:	e3c00080 	bic	r0, r0, #128	; 0x80
    89b8:	e121f000 	msr	CPSR_c, r0
    89bc:	e8bd0001 	pop	{r0}
    89c0:	f8bd0a00 	rfeia	sp!
    89c4:	000089e0 	andeq	r8, r0, r0, ror #19

Disassembly of section .bss:

000089c8 <freelist>:
    89c8:	00000000 	andeq	r0, r0, r0

000089cc <top>:
    89cc:	00000000 	andeq	r0, r0, r0

000089d0 <heap_limit>:
    89d0:	00000000 	andeq	r0, r0, r0

000089d4 <pcb_main>:
    89d4:	00000000 	andeq	r0, r0, r0

000089d8 <pcb_head>:
    89d8:	00000000 	andeq	r0, r0, r0

000089dc <pcb_tail>:
    89dc:	00000000 	andeq	r0, r0, r0

000089e0 <current_process>:
    89e0:	00000000 	andeq	r0, r0, r0

000089e4 <ledOn>:
    89e4:	00000001 	andeq	r0, r0, r1

000089e8 <current_ctx>:
    89e8:	00000000 	andeq	r0, r0, r0

Disassembly of section .ARM.attributes:

00000000 <.ARM.attributes>:
   0:	00003141 	andeq	r3, r0, r1, asr #2
   4:	61656100 	cmnvs	r5, r0, lsl #2
   8:	01006962 	tsteq	r0, r2, ror #18
   c:	00000027 	andeq	r0, r0, r7, lsr #32
  10:	005a3605 	subseq	r3, sl, r5, lsl #12
  14:	01080706 	tsteq	r8, r6, lsl #14
  18:	020a0109 	andeq	r0, sl, #1073741826	; 0x40000002
  1c:	01140412 	tsteq	r4, r2, lsl r4
  20:	03170115 	tsteq	r7, #1073741829	; 0x40000005
  24:	011a0118 	tsteq	sl, r8, lsl r1
  28:	011c031b 	tsteq	ip, fp, lsl r3
  2c:	012c0122 	teqeq	ip, r2, lsr #2
  30:	Address 0x0000000000000030 is out of bounds.


Disassembly of section .comment:

00000000 <.comment>:
   0:	3a434347 	bcc	10d0d24 <__bss_end+0x10c8338>
   4:	4e472820 	cdpmi	8, 4, cr2, cr7, cr0, {1}
   8:	34202955 	strtcc	r2, [r0], #-2389	; 0x955
   c:	312e372e 	teqcc	lr, lr, lsr #14
	...

Disassembly of section .debug_line:

00000000 <.debug_line>:
   0:	00000061 	andeq	r0, r0, r1, rrx
   4:	00200002 	eoreq	r0, r0, r2
   8:	01020000 	mrseq	r0, (UNDEF: 2)
   c:	000d0efb 	strdeq	r0, [sp], -fp
  10:	01010101 	tsteq	r1, r1, lsl #2
  14:	01000000 	mrseq	r0, (UNDEF: 0)
  18:	00010000 	andeq	r0, r1, r0
  1c:	74636576 	strbtvc	r6, [r3], #-1398	; 0x576
  20:	2e73726f 	cdpcs	2, 7, cr7, cr3, cr15, {3}
  24:	00000073 	andeq	r0, r0, r3, ror r0
  28:	05000000 	streq	r0, [r0, #-0]
  2c:	00800002 	addeq	r0, r0, r2
  30:	2f2f1900 	svccs	0x002f1900
  34:	2f2f2f2f 	svccs	0x002f2f2f
  38:	080b032f 	stmdaeq	fp, {r0, r1, r2, r3, r5, r8, r9}
  3c:	2f2f2f20 	svccs	0x002f2f20
  40:	2f322f2f 	svccs	0x00322f2f
  44:	2f2f322f 	svccs	0x002f322f
  48:	302f2f31 	eorcc	r2, pc, r1, lsr pc	; <UNPREDICTABLE>
  4c:	2f2f2f30 	svccs	0x002f2f30
  50:	322f2f2f 	eorcc	r2, pc, #188	; 0xbc
  54:	322f322f 	eorcc	r3, pc, #-268435454	; 0xf0000002
  58:	322f322f 	eorcc	r3, pc, #-268435454	; 0xf0000002
  5c:	3032322f 	eorscc	r3, r2, pc, lsr #4
  60:	01000202 	tsteq	r0, r2, lsl #4
  64:	00004901 	andeq	r4, r0, r1, lsl #18
  68:	1f000200 	svcne	0x00000200
  6c:	02000000 	andeq	r0, r0, #0
  70:	0d0efb01 	vstreq	d15, [lr, #-4]
  74:	01010100 	mrseq	r0, (UNDEF: 17)
  78:	00000001 	andeq	r0, r0, r1
  7c:	01000001 	tsteq	r0, r1
  80:	72656b00 	rsbvc	r6, r5, #0
  84:	2e6c656e 	cdpcs	5, 6, cr6, cr12, cr14, {3}
  88:	00000063 	andeq	r0, r0, r3, rrx
  8c:	05000000 	streq	r0, [r0, #-0]
  90:	0080d002 	addeq	sp, r0, r2
  94:	4c4c1a00 	mcrrmi	10, 0, r1, ip, cr0
  98:	69682f83 	stmdbvs	r8!, {r0, r1, r7, r8, r9, sl, fp, sp}^
  9c:	834c4c4e 	movthi	r4, #52302	; 0xcc4e
  a0:	4f69682f 	svcmi	0x0069682f
  a4:	9f9f2f2f 	svcls	0x009f2f2f
  a8:	01040200 	mrseq	r0, R12_usr
  ac:	0006022f 	andeq	r0, r6, pc, lsr #4
  b0:	00590101 	subseq	r0, r9, r1, lsl #2
  b4:	00020000 	andeq	r0, r2, r0
  b8:	00000021 	andeq	r0, r0, r1, lsr #32
  bc:	0efb0102 	cdpeq	1, 15, cr0, cr11, cr2, {0}
  c0:	0101000d 	tsteq	r1, sp
  c4:	00000101 	andeq	r0, r0, r1, lsl #2
  c8:	00000100 	andeq	r0, r0, r0, lsl #2
  cc:	68700001 	ldmdavs	r0!, {r0}^
  d0:	6c6c4179 	stfvse	f4, [ip], #-484	; 0xfffffe1c
  d4:	632e636f 	teqvs	lr, #-1140850687	; 0xbc000001
  d8:	00000000 	andeq	r0, r0, r0
  dc:	02050000 	andeq	r0, r5, #0
  e0:	00008198 	muleq	r0, r8, r1
  e4:	67010c03 	strvs	r0, [r1, -r3, lsl #24]
  e8:	2f2f2f4c 	svccs	0x002f2f4c
  ec:	01040200 	mrseq	r0, R12_usr
  f0:	0402002c 	streq	r0, [r2], #-44	; 0x2c
  f4:	064a0602 	strbeq	r0, [sl], -r2, lsl #12
  f8:	f44b4b86 			; <UNDEFINED> instruction: 0xf44b4b86
  fc:	2f4c4cbb 	svccs	0x004c4cbb
 100:	833083da 	teqhi	r0, #1744830467	; 0x68000003
 104:	67864b67 	strvs	r4, [r6, r7, ror #22]
 108:	08029f67 	stmdaeq	r2, {r0, r1, r2, r5, r6, r8, r9, sl, fp, ip, pc}
 10c:	4f010100 	svcmi	0x00010100
 110:	02000000 	andeq	r0, r0, #0
 114:	00001b00 	andeq	r1, r0, r0, lsl #22
 118:	fb010200 	blx	40922 <__bss_end+0x37f36>
 11c:	01000d0e 	tsteq	r0, lr, lsl #26
 120:	00010101 	andeq	r0, r1, r1, lsl #2
 124:	00010000 	andeq	r0, r1, r0
 128:	68000100 	stmdavs	r0, {r8}
 12c:	00632e77 	rsbeq	r2, r3, r7, ror lr
 130:	00000000 	andeq	r0, r0, r0
 134:	d0020500 	andle	r0, r2, r0, lsl #10
 138:	03000082 	movweq	r0, #130	; 0x82
 13c:	674b011c 	smlaldvs	r0, fp, ip, r1
 140:	a1676867 	cmnge	r7, r7, ror #16
 144:	689f6767 	ldmvs	pc, {r0, r1, r2, r5, r6, r8, r9, sl, sp, lr}	; <UNPREDICTABLE>
 148:	672fa667 	strvs	sl, [pc, -r7, ror #12]!
 14c:	51672f4e 	cmnpl	r7, lr, asr #30
 150:	6767674f 	strbvs	r6, [r7, -pc, asr #14]!
 154:	67676969 	strbvs	r6, [r7, -r9, ror #18]!
 158:	a068696a 	rsbge	r6, r8, sl, ror #18
 15c:	00100267 	andseq	r0, r0, r7, ror #4
 160:	00b30101 	adcseq	r0, r3, r1, lsl #2
 164:	00020000 	andeq	r0, r2, r0
 168:	00000034 	andeq	r0, r0, r4, lsr r0
 16c:	0efb0102 	cdpeq	1, 15, cr0, cr11, cr2, {0}
 170:	0101000d 	tsteq	r1, sp
 174:	00000101 	andeq	r0, r0, r1, lsl #2
 178:	00000100 	andeq	r0, r0, r0, lsl #2
 17c:	63730001 	cmnvs	r3, #1
 180:	2e646568 	cdpcs	5, 6, cr6, cr4, cr8, {3}
 184:	00000063 	andeq	r0, r0, r3, rrx
 188:	70797400 	rsbsvc	r7, r9, r0, lsl #8
 18c:	682e7365 	stmdavs	lr!, {r0, r2, r5, r6, r8, r9, ip, sp, lr}
 190:	00000000 	andeq	r0, r0, r0
 194:	65686373 	strbvs	r6, [r8, #-883]!	; 0x373
 198:	00682e64 	rsbeq	r2, r8, r4, ror #28
 19c:	00000000 	andeq	r0, r0, r0
 1a0:	64020500 	strvs	r0, [r2], #-1280	; 0x500
 1a4:	03000084 	movweq	r0, #132	; 0x84
 1a8:	9fa0010b 	svcls	0x00a0010b
 1ac:	9f83a0d7 	svcls	0x0083a0d7
 1b0:	68679f84 	stmdavs	r7!, {r2, r7, r8, r9, sl, fp, ip, pc}^
 1b4:	67bb9fbb 			; <UNDEFINED> instruction: 0x67bb9fbb
 1b8:	bb696767 	bllt	1a59f5c <__bss_end+0x1a51570>
 1bc:	020068a0 	andeq	r6, r0, #10485760	; 0xa00000
 1c0:	82060104 	andhi	r0, r6, #1
 1c4:	67678306 	strbvs	r8, [r7, -r6, lsl #6]!
 1c8:	a1678385 	cmnge	r7, r5, lsl #7
 1cc:	849f2f9f 	ldrhi	r2, [pc], #3999	; 1d4 <_start-0x7e2c>
 1d0:	2f838331 	svccs	0x00838331
 1d4:	2f4b4c4d 	svccs	0x004b4c4d
 1d8:	83d7d783 	bicshi	sp, r7, #34340864	; 0x20c0000
 1dc:	9fbbf3a0 	svcls	0x00bbf3a0
 1e0:	01040200 	mrseq	r0, R12_usr
 1e4:	03667603 	cmneq	r6, #3145728	; 0x300000
 1e8:	9fd7ba0c 	svcls	0x00d7ba0c
 1ec:	d79f2f84 	ldrle	r2, [pc, r4, lsl #31]
 1f0:	9f9f839f 	svcls	0x009f839f
 1f4:	14821303 	strne	r1, [r2], #771	; 0x303
 1f8:	a09f2fa1 	addsge	r2, pc, r1, lsr #31
 1fc:	2fa09f30 	svccs	0x00a09f30
 200:	134e9f2f 	movtne	r9, #61231	; 0xef2f
 204:	2f2fa014 	svccs	0x002fa014
 208:	9f9f2f30 	svcls	0x009f2f30
 20c:	9f842f83 	svcls	0x00842f83
 210:	9f2f9f9f 	svcls	0x002f9f9f
 214:	01000402 	tsteq	r0, r2, lsl #8
 218:	Address 0x0000000000000218 is out of bounds.


Disassembly of section .debug_info:

00000000 <.debug_info>:
   0:	00000051 	andeq	r0, r0, r1, asr r0
   4:	00000002 	andeq	r0, r0, r2
   8:	01040000 	mrseq	r0, (UNDEF: 4)
   c:	00000000 	andeq	r0, r0, r0
  10:	00008000 	andeq	r8, r0, r0
  14:	000080d0 	ldrdeq	r8, [r0], -r0
  18:	74636576 	strbtvc	r6, [r3], #-1398	; 0x576
  1c:	2e73726f 	cdpcs	2, 7, cr7, cr3, cr15, {3}
  20:	682f0073 	stmdavs	pc!, {r0, r1, r4, r5, r6}	; <UNPREDICTABLE>
  24:	2f656d6f 	svccs	0x00656d6f
  28:	746e616b 	strbtvc	r6, [lr], #-363	; 0x16b
  2c:	656e696f 	strbvs	r6, [lr, #-2415]!	; 0x96f
  30:	636f442f 	cmnvs	pc, #788529152	; 0x2f000000
  34:	6e656d75 	mcrvs	13, 3, r6, cr5, cr5, {3}
  38:	6f2f7374 	svcvs	0x002f7374
  3c:	65697073 	strbvs	r7, [r9, #-115]!	; 0x73
  40:	6174732d 	cmnvs	r4, sp, lsr #6
  44:	47007472 	smlsdxmi	r0, r2, r4, r7
  48:	4120554e 	teqmi	r0, lr, asr #10
  4c:	2e322053 	mrccs	0, 1, r2, cr2, cr3, {2}
  50:	01003232 	tsteq	r0, r2, lsr r2
  54:	0000ce80 	andeq	ip, r0, r0, lsl #29
  58:	14000200 	strne	r0, [r0], #-512	; 0x200
  5c:	04000000 	streq	r0, [r0], #-0
  60:	00000c01 	andeq	r0, r0, r1, lsl #24
  64:	008e0100 	addeq	r0, lr, r0, lsl #2
  68:	00220000 	eoreq	r0, r2, r0
  6c:	80d00000 	sbcshi	r0, r0, r0
  70:	81980000 	orrshi	r0, r8, r0
  74:	00650000 	rsbeq	r0, r5, r0
  78:	02020000 	andeq	r0, r2, #0
  7c:	00007b07 	andeq	r7, r0, r7, lsl #22
  80:	07040200 	streq	r0, [r4, -r0, lsl #4]
  84:	00000081 	andeq	r0, r0, r1, lsl #1
  88:	5b080102 	blpl	200498 <__bss_end+0x1f7aac>
  8c:	03000000 	movweq	r0, #0
  90:	00005501 	andeq	r5, r0, r1, lsl #10
  94:	d0080100 	andle	r0, r8, r0, lsl #2
  98:	14000080 	strne	r0, [r0], #-128	; 0x80
  9c:	00000081 	andeq	r0, r0, r1, lsl #1
  a0:	01000000 	mrseq	r0, (UNDEF: 0)
  a4:	00000062 	andeq	r0, r0, r2, rrx
  a8:	00001804 	andeq	r1, r0, r4, lsl #16
  ac:	620b0100 	andvs	r0, fp, #0
  b0:	02000000 	andeq	r0, r0, #0
  b4:	05007491 	streq	r7, [r0, #-1169]	; 0x491
  b8:	6e690504 	cdpvs	5, 6, cr0, cr9, cr4, {0}
  bc:	01030074 	tsteq	r3, r4, ror r0
  c0:	00000069 	andeq	r0, r0, r9, rrx
  c4:	81141701 	tsthi	r4, r1, lsl #14
  c8:	81580000 	cmphi	r8, r0
  cc:	002c0000 	eoreq	r0, ip, r0
  d0:	91010000 	mrsls	r0, (UNDEF: 1)
  d4:	04000000 	streq	r0, [r0], #-0
  d8:	0000001d 	andeq	r0, r0, sp, lsl r0
  dc:	00621a01 	rsbeq	r1, r2, r1, lsl #20
  e0:	91020000 	mrsls	r0, (UNDEF: 2)
  e4:	01060074 	tsteq	r6, r4, ror r0
  e8:	00000000 	andeq	r0, r0, r0
  ec:	62012701 	andvs	r2, r1, #262144	; 0x40000
  f0:	58000000 	stmdapl	r0, {}	; <UNPREDICTABLE>
  f4:	98000081 	stmdals	r0, {r0, r7}
  f8:	58000081 	stmdapl	r0, {r0, r7}
  fc:	01000000 	mrseq	r0, (UNDEF: 0)
 100:	000000bf 	strheq	r0, [r0], -pc	; <UNPREDICTABLE>
 104:	006f0107 	rsbeq	r0, pc, r7, lsl #2
 108:	2c010000 	stccs	0, cr0, [r1], {-0}
 10c:	00000062 	andeq	r0, r0, r2, rrx
 110:	00000801 	andeq	r0, r0, r1, lsl #16
 114:	00000609 	andeq	r0, r0, r9, lsl #12
 118:	62060100 	andvs	r0, r6, #0
 11c:	01000000 	mrseq	r0, (UNDEF: 0)
 120:	89e40305 	stmibhi	r4!, {r0, r2, r8, r9}^
 124:	5e000000 	cdppl	0, 0, cr0, cr0, cr0, {0}
 128:	02000001 	andeq	r0, r0, #1
 12c:	0000a800 	andeq	sl, r0, r0, lsl #16
 130:	0c010400 	cfstrseq	mvf0, [r1], {-0}
 134:	01000000 	mrseq	r0, (UNDEF: 0)
 138:	00000097 	muleq	r0, r7, r0
 13c:	000000f6 	strdeq	r0, [r0], -r6
 140:	00008198 	muleq	r0, r8, r1
 144:	000082d0 	ldrdeq	r8, [r0], -r0
 148:	000000b2 	strheq	r0, [r0], -r2
 14c:	006c6602 	rsbeq	r6, ip, r2, lsl #12
 150:	4d030108 	stfmis	f0, [r3, #-32]	; 0xffffffe0
 154:	03000000 	movweq	r0, #0
 158:	000000c9 	andeq	r0, r0, r9, asr #1
 15c:	004d0401 	subeq	r0, sp, r1, lsl #8
 160:	23020000 	movwcs	r0, #8192	; 0x2000
 164:	01eb0300 	mvneq	r0, r0, lsl #6
 168:	05010000 	streq	r0, [r1, #-0]
 16c:	00000053 	andeq	r0, r0, r3, asr r0
 170:	00042302 	andeq	r2, r4, r2, lsl #6
 174:	00250404 	eoreq	r0, r5, r4, lsl #8
 178:	04050000 	streq	r0, [r5], #-0
 17c:	00008107 	andeq	r8, r0, r7, lsl #2
 180:	ce010600 	cfmadd32gt	mvax0, mvfx0, mvfx1, mvfx0
 184:	01000000 	mrseq	r0, (UNDEF: 0)
 188:	009f010c 	addseq	r0, pc, ip, lsl #2
 18c:	81980000 	orrshi	r0, r8, r0
 190:	824c0000 	subhi	r0, ip, #0
 194:	00780000 	rsbseq	r0, r8, r0
 198:	9f010000 	svcls	0x00010000
 19c:	07000000 	streq	r0, [r0, -r0]
 1a0:	000001eb 	andeq	r0, r0, fp, ror #3
 1a4:	00530c01 	subseq	r0, r3, r1, lsl #24
 1a8:	91020000 	mrsls	r0, (UNDEF: 2)
 1ac:	00660874 	rsbeq	r0, r6, r4, ror r8
 1b0:	004d0e01 	subeq	r0, sp, r1, lsl #28
 1b4:	54010000 	strpl	r0, [r1], #-0
 1b8:	0000a209 	andeq	sl, r0, r9, lsl #4
 1bc:	a10e0100 	mrsge	r0, (UNDEF: 30)
 1c0:	01000000 	mrseq	r0, (UNDEF: 0)
 1c4:	040a0055 	streq	r0, [sl], #-85	; 0x55
 1c8:	004d0404 	subeq	r0, sp, r4, lsl #8
 1cc:	010b0000 	mrseq	r0, (UNDEF: 11)
 1d0:	000000b0 	strheq	r0, [r0], -r0	; <UNPREDICTABLE>
 1d4:	4c012201 	sfmmi	f2, 4, [r1], {1}
 1d8:	94000082 	strls	r0, [r0], #-130	; 0x82
 1dc:	a4000082 	strge	r0, [r0], #-130	; 0x82
 1e0:	01000000 	mrseq	r0, (UNDEF: 0)
 1e4:	000000e9 	andeq	r0, r0, r9, ror #1
 1e8:	7274700c 	rsbsvc	r7, r4, #12
 1ec:	9f220100 	svcls	0x00220100
 1f0:	02000000 	andeq	r0, r0, #0
 1f4:	eb077491 	bl	1dd440 <__bss_end+0x1d4a54>
 1f8:	01000001 	tsteq	r0, r1
 1fc:	00005322 	andeq	r5, r0, r2, lsr #6
 200:	70910200 	addsvc	r0, r1, r0, lsl #4
 204:	01006608 	tsteq	r0, r8, lsl #12
 208:	00004d24 	andeq	r4, r0, r4, lsr #26
 20c:	00540100 	subseq	r0, r4, r0, lsl #2
 210:	00dd010b 	sbcseq	r0, sp, fp, lsl #2
 214:	2c010000 	stccs	0, cr0, [r1], {-0}
 218:	00829401 	addeq	r9, r2, r1, lsl #8
 21c:	0082d000 	addeq	sp, r2, r0
 220:	0000d000 	andeq	sp, r0, r0
 224:	01200100 	teqeq	r0, r0, lsl #2
 228:	be070000 	cdplt	0, 0, cr0, cr7, cr0, {0}
 22c:	01000000 	mrseq	r0, (UNDEF: 0)
 230:	0001202c 	andeq	r2, r1, ip, lsr #32
 234:	7c910200 	lfmvc	f0, 4, [r1], {0}
 238:	00011b07 	andeq	r1, r1, r7, lsl #22
 23c:	532c0100 	teqpl	ip, #0
 240:	02000000 	andeq	r0, r0, #0
 244:	04007891 	streq	r7, [r0], #-2193	; 0x891
 248:	00012604 	andeq	r2, r1, r4, lsl #12
 24c:	08010500 	stmdaeq	r1, {r8, sl}
 250:	00000064 	andeq	r0, r0, r4, rrx
 254:	706f7408 	rsbvc	r7, pc, r8, lsl #8
 258:	20080100 	andcs	r0, r8, r0, lsl #2
 25c:	05000001 	streq	r0, [r0, #-1]
 260:	0089cc03 	addeq	ip, r9, r3, lsl #24
 264:	00eb0900 	rsceq	r0, fp, r0, lsl #18
 268:	09010000 	stmdbeq	r1, {}	; <UNPREDICTABLE>
 26c:	00000120 	andeq	r0, r0, r0, lsr #2
 270:	89d00305 	ldmibhi	r0, {r0, r2, r8, r9}^
 274:	a70d0000 	strge	r0, [sp, -r0]
 278:	01000000 	mrseq	r0, (UNDEF: 0)
 27c:	00004d06 	andeq	r4, r0, r6, lsl #26
 280:	03050100 	movweq	r0, #20736	; 0x5100
 284:	000089c8 	andeq	r8, r0, r8, asr #19
 288:	0000ee00 	andeq	lr, r0, r0, lsl #28
 28c:	78000200 	stmdavc	r0, {r9}
 290:	04000001 	streq	r0, [r0], #-1
 294:	00000c01 	andeq	r0, r0, r1, lsl #24
 298:	01250100 	teqeq	r5, r0, lsl #2
 29c:	00220000 	eoreq	r0, r2, r0
 2a0:	82d00000 	sbcshi	r0, r0, #0
 2a4:	84640000 	strbthi	r0, [r4], #-0
 2a8:	010f0000 	mrseq	r0, CPSR
 2ac:	02020000 	andeq	r0, r2, #0
 2b0:	00007b07 	andeq	r7, r0, r7, lsl #22
 2b4:	07040200 	streq	r0, [r4, -r0, lsl #4]
 2b8:	00000081 	andeq	r0, r0, r1, lsl #1
 2bc:	5b080102 	blpl	2006cc <__bss_end+0x1f7ce0>
 2c0:	03000000 	movweq	r0, #0
 2c4:	00013101 	andeq	r3, r1, r1, lsl #2
 2c8:	d01c0100 	andsle	r0, ip, r0, lsl #2
 2cc:	1c000082 	stcne	0, cr0, [r0], {130}	; 0x82
 2d0:	f0000083 			; <UNDEFINED> instruction: 0xf0000083
 2d4:	01000000 	mrseq	r0, (UNDEF: 0)
 2d8:	00000061 	andeq	r0, r0, r1, rrx
 2dc:	00787204 	rsbseq	r7, r8, r4, lsl #4
 2e0:	002c1e01 	eoreq	r1, ip, r1, lsl #28
 2e4:	91020000 	mrsls	r0, (UNDEF: 2)
 2e8:	01050074 	tsteq	r5, r4, ror r0
 2ec:	00000153 	andeq	r0, r0, r3, asr r1
 2f0:	1c012501 	cfstr32ne	mvfx2, [r1], {1}
 2f4:	74000083 	strvc	r0, [r0], #-131	; 0x83
 2f8:	1c000083 	stcne	0, cr0, [r0], {131}	; 0x83
 2fc:	01000001 	tsteq	r0, r1
 300:	00000097 	muleq	r0, r7, r0
 304:	00016d06 	andeq	r6, r1, r6, lsl #26
 308:	2c250100 	stfcss	f0, [r5], #-0
 30c:	02000000 	andeq	r0, r0, #0
 310:	72046c91 	andvc	r6, r4, #37120	; 0x9100
 314:	27010078 	smlsdxcs	r1, r8, r0, r0
 318:	0000002c 	andeq	r0, r0, ip, lsr #32
 31c:	00749102 	rsbseq	r9, r4, r2, lsl #2
 320:	01760107 	cmneq	r6, r7, lsl #2
 324:	33010000 	movwcc	r0, #4096	; 0x1000
 328:	00008374 	andeq	r8, r0, r4, ror r3
 32c:	0000838c 	andeq	r8, r0, ip, lsl #7
 330:	00000148 	andeq	r0, r0, r8, asr #2
 334:	2a010701 	bcs	41f40 <__bss_end+0x39554>
 338:	01000001 	tsteq	r0, r1
 33c:	00838c39 	addeq	r8, r3, r9, lsr ip
 340:	0083a400 	addeq	sl, r3, r0, lsl #8
 344:	00016800 	andeq	r6, r1, r0, lsl #16
 348:	01080100 	mrseq	r0, (UNDEF: 24)
 34c:	0000014b 	andeq	r0, r0, fp, asr #2
 350:	83a44201 			; <UNDEFINED> instruction: 0x83a44201
 354:	84640000 	strbthi	r0, [r4], #-0
 358:	01880000 	orreq	r0, r8, r0
 35c:	04010000 	streq	r0, [r1], #-0
 360:	01006172 	tsteq	r0, r2, ror r1
 364:	00002c44 	andeq	r2, r0, r4, asr #24
 368:	74910200 	ldrvc	r0, [r1], #512	; 0x200
 36c:	00787204 	rsbseq	r7, r8, r4, lsl #4
 370:	002c4501 	eoreq	r4, ip, r1, lsl #10
 374:	91020000 	mrsls	r0, (UNDEF: 2)
 378:	ee000070 	mcr	0, 0, r0, cr0, cr0, {3}
 37c:	02000002 	andeq	r0, r0, #2
 380:	00021300 	andeq	r1, r2, r0, lsl #6
 384:	0c010400 	cfstrseq	mvf0, [r1], {-0}
 388:	01000000 	mrseq	r0, (UNDEF: 0)
 38c:	000001c5 	andeq	r0, r0, r5, asr #3
 390:	00000022 	andeq	r0, r0, r2, lsr #32
 394:	00008464 	andeq	r8, r0, r4, ror #8
 398:	000089c8 	andeq	r8, r0, r8, asr #19
 39c:	00000162 	andeq	r0, r0, r2, ror #2
 3a0:	7b070202 	blvc	1c0bb0 <__bss_end+0x1b81c4>
 3a4:	03000000 	movweq	r0, #0
 3a8:	0000017e 	andeq	r0, r0, lr, ror r1
 3ac:	00370502 	eorseq	r0, r7, r2, lsl #10
 3b0:	04020000 	streq	r0, [r2], #-0
 3b4:	00008107 	andeq	r8, r0, r7, lsl #2
 3b8:	08010200 	stmdaeq	r1, {r9}
 3bc:	0000005b 	andeq	r0, r0, fp, asr r0
 3c0:	00025903 	andeq	r5, r2, r3, lsl #18
 3c4:	50070300 	andpl	r0, r7, r0, lsl #6
 3c8:	04000000 	streq	r0, [r0], #-0
 3cc:	00005604 	andeq	r5, r0, r4, lsl #12
 3d0:	06010500 	streq	r0, [r1], -r0, lsl #10
 3d4:	85080301 	strhi	r0, [r8, #-769]	; 0x301
 3d8:	07000000 	streq	r0, [r0, -r0]
 3dc:	0000023c 	andeq	r0, r0, ip, lsr r2
 3e0:	01d40700 	bicseq	r0, r4, r0, lsl #14
 3e4:	07010000 	streq	r0, [r1, -r0]
 3e8:	00000234 	andeq	r0, r0, r4, lsr r2
 3ec:	01cd0702 	biceq	r0, sp, r2, lsl #14
 3f0:	07030000 	streq	r0, [r3, -r0]
 3f4:	0000018e 	andeq	r0, r0, lr, lsl #3
 3f8:	01da0704 	bicseq	r0, sl, r4, lsl #14
 3fc:	00050000 	andeq	r0, r5, r0
 400:	0001f003 	andeq	pc, r1, r3
 404:	580f0300 	stmdapl	pc, {r8, r9}	; <UNPREDICTABLE>
 408:	08000000 	stmdaeq	r0, {}	; <UNPREDICTABLE>
 40c:	000001fe 	strdeq	r0, [r0], -lr
 410:	b7120308 	ldrlt	r0, [r2, -r8, lsl #6]
 414:	09000000 	stmdbeq	r0, {}	; <UNPREDICTABLE>
 418:	03007073 	movweq	r7, #115	; 0x73
 41c:	0000b713 	andeq	fp, r0, r3, lsl r7
 420:	00230200 	eoreq	r0, r3, r0, lsl #4
 424:	00726c09 	rsbseq	r6, r2, r9, lsl #24
 428:	00b71403 	adcseq	r1, r7, r3, lsl #8
 42c:	23020000 	movwcs	r0, #8192	; 0x2000
 430:	04040004 	streq	r0, [r4], #-4
 434:	0000002c 	andeq	r0, r0, ip, lsr #32
 438:	00020408 	andeq	r0, r2, r8, lsl #8
 43c:	19031800 	stmdbne	r3, {fp, ip}
 440:	0000011c 	andeq	r0, r0, ip, lsl r1
 444:	0001f80a 	andeq	pc, r1, sl, lsl #16
 448:	851a0300 	ldrhi	r0, [sl, #-768]	; 0x300
 44c:	02000000 	andeq	r0, r0, #0
 450:	63090023 	movwvs	r0, #36899	; 0x9023
 454:	03007874 	movweq	r7, #2164	; 0x874
 458:	00011c1b 	andeq	r1, r1, fp, lsl ip
 45c:	04230200 	strteq	r0, [r3], #-512	; 0x200
 460:	0000c90a 	andeq	ip, r0, sl, lsl #18
 464:	221c0300 	andscs	r0, ip, #0
 468:	02000001 	andeq	r0, r0, #1
 46c:	6c0a0823 	stcvs	8, cr0, [sl], {35}	; 0x23
 470:	03000002 	movweq	r0, #2
 474:	0001281d 	andeq	r2, r1, sp, lsl r8
 478:	0c230200 	sfmeq	f0, 4, [r3], #-0
 47c:	03006609 	movweq	r6, #1545	; 0x609
 480:	0000451e 	andeq	r4, r0, lr, lsl r5
 484:	10230200 	eorne	r0, r3, r0, lsl #4
 488:	00016d0a 	andeq	r6, r1, sl, lsl #26
 48c:	371f0300 	ldrcc	r0, [pc, -r0, lsl #6]
 490:	02000000 	andeq	r0, r0, #0
 494:	04001423 	streq	r1, [r0], #-1059	; 0x423
 498:	00009004 	andeq	r9, r0, r4
 49c:	bd040400 	cfstrslt	mvf0, [r4, #-0]
 4a0:	0b000000 	bleq	4a8 <_start-0x7b58>
 4a4:	7a010c04 	bvc	434bc <__bss_end+0x3aad0>
 4a8:	01000002 	tsteq	r0, r2
 4ac:	8464010c 	strbthi	r0, [r4], #-268	; 0x10c
 4b0:	851c0000 	ldrhi	r0, [ip, #-0]
 4b4:	01b40000 			; <UNDEFINED> instruction: 0x01b40000
 4b8:	6d010000 	stcvs	0, cr0, [r1, #-0]
 4bc:	0d000001 	stceq	0, cr0, [r0, #-4]
 4c0:	00787463 	rsbseq	r7, r8, r3, ror #8
 4c4:	011c0c01 	tsteq	ip, r1, lsl #24
 4c8:	91020000 	mrsls	r0, (UNDEF: 2)
 4cc:	00660d74 	rsbeq	r0, r6, r4, ror sp
 4d0:	00450c01 	subeq	r0, r5, r1, lsl #24
 4d4:	91020000 	mrsls	r0, (UNDEF: 2)
 4d8:	01e50e70 	mvneq	r0, r0, ror lr
 4dc:	0c010000 	stceq	0, cr0, [r1], {-0}
 4e0:	00000037 	andeq	r0, r0, r7, lsr r0
 4e4:	006c9102 	rsbeq	r9, ip, r2, lsl #2
 4e8:	0185010c 	orreq	r0, r5, ip, lsl #2
 4ec:	1a010000 	bne	404f4 <__bss_end+0x37b08>
 4f0:	00851c01 	addeq	r1, r5, r1, lsl #24
 4f4:	00859000 	addeq	r9, r5, r0
 4f8:	0001e000 	andeq	lr, r1, r0
 4fc:	01be0100 			; <UNDEFINED> instruction: 0x01be0100
 500:	700d0000 	andvc	r0, sp, r0
 504:	01006263 	tsteq	r0, r3, ror #4
 508:	0001221a 	andeq	r2, r1, sl, lsl r2
 50c:	74910200 	ldrvc	r0, [r1], #512	; 0x200
 510:	0100660d 	tsteq	r0, sp, lsl #12
 514:	0000451a 	andeq	r4, r0, sl, lsl r5
 518:	70910200 	addsvc	r0, r1, r0, lsl #4
 51c:	0001e50e 	andeq	lr, r1, lr, lsl #10
 520:	371a0100 	ldrcc	r0, [sl, -r0, lsl #2]
 524:	02000000 	andeq	r0, r0, #0
 528:	6d0e6c91 	stcvs	12, cr6, [lr, #-580]	; 0xfffffdbc
 52c:	01000001 	tsteq	r0, r1
 530:	0000371a 	andeq	r3, r0, sl, lsl r7
 534:	68910200 	ldmvs	r1, {r9}
 538:	44010c00 	strmi	r0, [r1], #-3072	; 0xc00
 53c:	01000002 	tsteq	r0, r2
 540:	85900123 	ldrhi	r0, [r0, #291]	; 0x123
 544:	867c0000 	ldrbthi	r0, [ip], -r0
 548:	020c0000 	andeq	r0, ip, #0
 54c:	1d010000 	stcne	0, cr0, [r1, #-0]
 550:	0d000002 	stceq	0, cr0, [r0, #-8]
 554:	23010066 	movwcs	r0, #4198	; 0x1066
 558:	00000045 	andeq	r0, r0, r5, asr #32
 55c:	0e6c9102 	lgneqe	f1, f2
 560:	0000026c 	andeq	r0, r0, ip, ror #4
 564:	01282301 	teqeq	r8, r1, lsl #6
 568:	91020000 	mrsls	r0, (UNDEF: 2)
 56c:	01e50e68 	mvneq	r0, r8, ror #28
 570:	23010000 	movwcs	r0, #4096	; 0x1000
 574:	00000037 	andeq	r0, r0, r7, lsr r0
 578:	0e649102 	lgneqs	f1, f2
 57c:	0000016d 	andeq	r0, r0, sp, ror #2
 580:	00372301 	eorseq	r2, r7, r1, lsl #6
 584:	91020000 	mrsls	r0, (UNDEF: 2)
 588:	63700f60 	cmnvs	r0, #384	; 0x180
 58c:	26010062 	strcs	r0, [r1], -r2, rrx
 590:	00000122 	andeq	r0, r0, r2, lsr #2
 594:	00749102 	rsbseq	r9, r4, r2, lsl #2
 598:	02150110 	andseq	r0, r5, #4
 59c:	38010000 	stmdacc	r1, {}	; <UNPREDICTABLE>
 5a0:	0000867c 	andeq	r8, r0, ip, ror r6
 5a4:	000086ac 	andeq	r8, r0, ip, lsr #13
 5a8:	00000238 	andeq	r0, r0, r8, lsr r2
 5ac:	53011101 	movwpl	r1, #4353	; 0x1101
 5b0:	01000002 	tsteq	r0, r2
 5b4:	0086ac41 	addeq	sl, r6, r1, asr #24
 5b8:	0087dc00 	addeq	sp, r7, r0, lsl #24
 5bc:	00025800 	andeq	r5, r2, r0, lsl #16
 5c0:	025a0100 	subseq	r0, sl, #0
 5c4:	b2120000 	andslt	r0, r2, #0
 5c8:	01000001 	tsteq	r0, r1
 5cc:	00012243 	andeq	r2, r1, r3, asr #4
 5d0:	74910200 	ldrvc	r0, [r1], #512	; 0x200
 5d4:	6f011000 	svcvs	0x00011000
 5d8:	01000000 	mrseq	r0, (UNDEF: 0)
 5dc:	0087dc54 	addeq	sp, r7, r4, asr ip
 5e0:	00886c00 	addeq	r6, r8, r0, lsl #24
 5e4:	00028400 	andeq	r8, r2, r0, lsl #8
 5e8:	01130100 	tsteq	r3, r0, lsl #2
 5ec:	0000020a 	andeq	r0, r0, sl, lsl #4
 5f0:	886c6e01 	stmdahi	ip!, {r0, r9, sl, fp, sp, lr}^
 5f4:	88fc0000 	ldmhi	ip!, {}^	; <UNPREDICTABLE>
 5f8:	7d020000 	stcvc	0, cr0, [r2, #-0]
 5fc:	01130100 	tsteq	r3, r0, lsl #2
 600:	0000019e 	muleq	r0, lr, r1
 604:	88fc8401 	ldmhi	ip!, {r0, sl, pc}^
 608:	89c80000 	stmibhi	r8, {}^	; <UNPREDICTABLE>
 60c:	7d020000 	stcvc	0, cr0, [r2, #-0]
 610:	60140100 	andsvs	r0, r4, r0, lsl #2
 614:	01000002 	tsteq	r0, r2
 618:	00011c06 	andeq	r1, r1, r6, lsl #24
 61c:	03050100 	movweq	r0, #20736	; 0x5100
 620:	000089e8 	andeq	r8, r0, r8, ror #19
 624:	00019514 	andeq	r9, r1, r4, lsl r5
 628:	22070100 	andcs	r0, r7, #0
 62c:	01000001 	tsteq	r0, r1
 630:	89d40305 	ldmibhi	r4, {r0, r2, r8, r9}^
 634:	2b140000 	blcs	50063c <__bss_end+0x4f7c50>
 638:	01000002 	tsteq	r0, r2
 63c:	00012208 	andeq	r2, r1, r8, lsl #4
 640:	03050100 	movweq	r0, #20736	; 0x5100
 644:	000089d8 	ldrdeq	r8, [r0], -r8	; <UNPREDICTABLE>
 648:	00027114 	andeq	r7, r2, r4, lsl r1
 64c:	22090100 	andcs	r0, r9, #0
 650:	01000001 	tsteq	r0, r1
 654:	89dc0305 	ldmibhi	ip, {r0, r2, r8, r9}^
 658:	1b140000 	blne	500660 <__bss_end+0x4f7c74>
 65c:	01000002 	tsteq	r0, r2
 660:	0001220a 	andeq	r2, r1, sl, lsl #4
 664:	03050100 	movweq	r0, #20736	; 0x5100
 668:	000089e0 	andeq	r8, r0, r0, ror #19
	...

Disassembly of section .debug_abbrev:

00000000 <.debug_abbrev>:
   0:	10001101 	andne	r1, r0, r1, lsl #2
   4:	12011106 	andne	r1, r1, #-2147483647	; 0x80000001
   8:	1b080301 	blne	200c14 <__bss_end+0x1f8228>
   c:	13082508 	movwne	r2, #34056	; 0x8508
  10:	00000005 	andeq	r0, r0, r5
  14:	25011101 	strcs	r1, [r1, #-257]	; 0x101
  18:	030b130e 	movweq	r1, #45838	; 0xb30e
  1c:	110e1b0e 	tstne	lr, lr, lsl #22
  20:	10011201 	andne	r1, r1, r1, lsl #4
  24:	02000006 	andeq	r0, r0, #6
  28:	0b0b0024 	bleq	2c00c0 <__bss_end+0x2b76d4>
  2c:	0e030b3e 	vmoveq.16	d3[0], r0
  30:	2e030000 	cdpcs	0, 0, cr0, cr3, cr0, {0}
  34:	030c3f01 	movweq	r3, #52993	; 0xcf01
  38:	3b0b3a0e 	blcc	2ce878 <__bss_end+0x2c5e8c>
  3c:	1201110b 	andne	r1, r1, #-1073741822	; 0xc0000002
  40:	96064001 	strls	r4, [r6], -r1
  44:	13010c42 	movwne	r0, #7234	; 0x1c42
  48:	34040000 	strcc	r0, [r4], #-0
  4c:	3a0e0300 	bcc	380c54 <__bss_end+0x378268>
  50:	490b3b0b 	stmdbmi	fp, {r0, r1, r3, r8, r9, fp, ip, sp}
  54:	000a0213 	andeq	r0, sl, r3, lsl r2
  58:	00240500 	eoreq	r0, r4, r0, lsl #10
  5c:	0b3e0b0b 	bleq	f82c90 <__bss_end+0xf7a2a4>
  60:	00000803 	andeq	r0, r0, r3, lsl #16
  64:	3f012e06 	svccc	0x00012e06
  68:	3a0e030c 	bcc	380ca0 <__bss_end+0x3782b4>
  6c:	270b3b0b 	strcs	r3, [fp, -fp, lsl #22]
  70:	1113490c 	tstne	r3, ip, lsl #18
  74:	40011201 	andmi	r1, r1, r1, lsl #4
  78:	0c429606 	mcrreq	6, 0, r9, r2, cr6
  7c:	00001301 	andeq	r1, r0, r1, lsl #6
  80:	3f012e07 	svccc	0x00012e07
  84:	3a0e030c 	bcc	380cbc <__bss_end+0x3782d0>
  88:	490b3b0b 	stmdbmi	fp, {r0, r1, r3, r8, r9, fp, ip, sp}
  8c:	000c3c13 	andeq	r3, ip, r3, lsl ip
  90:	00180800 	andseq	r0, r8, r0, lsl #16
  94:	34090000 	strcc	r0, [r9], #-0
  98:	3a0e0300 	bcc	380ca0 <__bss_end+0x3782b4>
  9c:	490b3b0b 	stmdbmi	fp, {r0, r1, r3, r8, r9, fp, ip, sp}
  a0:	020c3f13 	andeq	r3, ip, #76	; 0x4c
  a4:	0000000a 	andeq	r0, r0, sl
  a8:	25011101 	strcs	r1, [r1, #-257]	; 0x101
  ac:	030b130e 	movweq	r1, #45838	; 0xb30e
  b0:	110e1b0e 	tstne	lr, lr, lsl #22
  b4:	10011201 	andne	r1, r1, r1, lsl #4
  b8:	02000006 	andeq	r0, r0, #6
  bc:	08030113 	stmdaeq	r3, {r0, r1, r4, r8}
  c0:	0b3a0b0b 	bleq	e82cf4 <__bss_end+0xe7a308>
  c4:	13010b3b 	movwne	r0, #6971	; 0x1b3b
  c8:	0d030000 	stceq	0, cr0, [r3, #-0]
  cc:	3a0e0300 	bcc	380cd4 <__bss_end+0x3782e8>
  d0:	490b3b0b 	stmdbmi	fp, {r0, r1, r3, r8, r9, fp, ip, sp}
  d4:	000a3813 	andeq	r3, sl, r3, lsl r8
  d8:	000f0400 	andeq	r0, pc, r0, lsl #8
  dc:	13490b0b 	movtne	r0, #39691	; 0x9b0b
  e0:	24050000 	strcs	r0, [r5], #-0
  e4:	3e0b0b00 	vmlacc.f64	d0, d11, d0
  e8:	000e030b 	andeq	r0, lr, fp, lsl #6
  ec:	012e0600 	teqeq	lr, r0, lsl #12
  f0:	0e030c3f 	mcreq	12, 0, r0, cr3, cr15, {1}
  f4:	0b3b0b3a 	bleq	ec2de4 <__bss_end+0xeba3f8>
  f8:	13490c27 	movtne	r0, #39975	; 0x9c27
  fc:	01120111 	tsteq	r2, r1, lsl r1
 100:	42970640 	addsmi	r0, r7, #67108864	; 0x4000000
 104:	0013010c 	andseq	r0, r3, ip, lsl #2
 108:	00050700 	andeq	r0, r5, r0, lsl #14
 10c:	0b3a0e03 	bleq	e83920 <__bss_end+0xe7af34>
 110:	13490b3b 	movtne	r0, #39739	; 0x9b3b
 114:	00000a02 	andeq	r0, r0, r2, lsl #20
 118:	03003408 	movweq	r3, #1032	; 0x408
 11c:	3b0b3a08 	blcc	2ce944 <__bss_end+0x2c5f58>
 120:	0213490b 	andseq	r4, r3, #180224	; 0x2c000
 124:	0900000a 	stmdbeq	r0, {r1, r3}
 128:	0e030034 	mcreq	0, 0, r0, cr3, cr4, {1}
 12c:	0b3b0b3a 	bleq	ec2e1c <__bss_end+0xeba430>
 130:	0a021349 	beq	84e5c <__bss_end+0x7c470>
 134:	0f0a0000 	svceq	0x000a0000
 138:	000b0b00 	andeq	r0, fp, r0, lsl #22
 13c:	012e0b00 	teqeq	lr, r0, lsl #22
 140:	0e030c3f 	mcreq	12, 0, r0, cr3, cr15, {1}
 144:	0b3b0b3a 	bleq	ec2e34 <__bss_end+0xeba448>
 148:	01110c27 	tsteq	r1, r7, lsr #24
 14c:	06400112 			; <UNDEFINED> instruction: 0x06400112
 150:	010c4297 			; <UNDEFINED> instruction: 0x010c4297
 154:	0c000013 	stceq	0, cr0, [r0], {19}
 158:	08030005 	stmdaeq	r3, {r0, r2}
 15c:	0b3b0b3a 	bleq	ec2e4c <__bss_end+0xeba460>
 160:	0a021349 	beq	84e8c <__bss_end+0x7c4a0>
 164:	340d0000 	strcc	r0, [sp], #-0
 168:	3a0e0300 	bcc	380d70 <__bss_end+0x378384>
 16c:	490b3b0b 	stmdbmi	fp, {r0, r1, r3, r8, r9, fp, ip, sp}
 170:	020c3f13 	andeq	r3, ip, #76	; 0x4c
 174:	0000000a 	andeq	r0, r0, sl
 178:	25011101 	strcs	r1, [r1, #-257]	; 0x101
 17c:	030b130e 	movweq	r1, #45838	; 0xb30e
 180:	110e1b0e 	tstne	lr, lr, lsl #22
 184:	10011201 	andne	r1, r1, r1, lsl #4
 188:	02000006 	andeq	r0, r0, #6
 18c:	0b0b0024 	bleq	2c0224 <__bss_end+0x2b7838>
 190:	0e030b3e 	vmoveq.16	d3[0], r0
 194:	2e030000 	cdpcs	0, 0, cr0, cr3, cr0, {0}
 198:	030c3f01 	movweq	r3, #52993	; 0xcf01
 19c:	3b0b3a0e 	blcc	2ce9dc <__bss_end+0x2c5ff0>
 1a0:	1201110b 	andne	r1, r1, #-1073741822	; 0xc0000002
 1a4:	96064001 	strls	r4, [r6], -r1
 1a8:	13010c42 	movwne	r0, #7234	; 0x1c42
 1ac:	34040000 	strcc	r0, [r4], #-0
 1b0:	3a080300 	bcc	200db8 <__bss_end+0x1f83cc>
 1b4:	490b3b0b 	stmdbmi	fp, {r0, r1, r3, r8, r9, fp, ip, sp}
 1b8:	000a0213 	andeq	r0, sl, r3, lsl r2
 1bc:	012e0500 	teqeq	lr, r0, lsl #10
 1c0:	0e030c3f 	mcreq	12, 0, r0, cr3, cr15, {1}
 1c4:	0b3b0b3a 	bleq	ec2eb4 <__bss_end+0xeba4c8>
 1c8:	01110c27 	tsteq	r1, r7, lsr #24
 1cc:	06400112 			; <UNDEFINED> instruction: 0x06400112
 1d0:	010c4296 			; <UNDEFINED> instruction: 0x010c4296
 1d4:	06000013 			; <UNDEFINED> instruction: 0x06000013
 1d8:	0e030005 	cdpeq	0, 0, cr0, cr3, cr5, {0}
 1dc:	0b3b0b3a 	bleq	ec2ecc <__bss_end+0xeba4e0>
 1e0:	0a021349 	beq	84f0c <__bss_end+0x7c520>
 1e4:	2e070000 	cdpcs	0, 0, cr0, cr7, cr0, {0}
 1e8:	030c3f00 	movweq	r3, #52992	; 0xcf00
 1ec:	3b0b3a0e 	blcc	2cea2c <__bss_end+0x2c6040>
 1f0:	1201110b 	andne	r1, r1, #-1073741822	; 0xc0000002
 1f4:	96064001 	strls	r4, [r6], -r1
 1f8:	00000c42 	andeq	r0, r0, r2, asr #24
 1fc:	3f012e08 	svccc	0x00012e08
 200:	3a0e030c 	bcc	380e38 <__bss_end+0x37844c>
 204:	110b3b0b 	tstne	fp, fp, lsl #22
 208:	40011201 	andmi	r1, r1, r1, lsl #4
 20c:	0c429606 	mcrreq	6, 0, r9, r2, cr6
 210:	01000000 	mrseq	r0, (UNDEF: 0)
 214:	0e250111 	mcreq	1, 1, r0, cr5, cr1, {0}
 218:	0e030b13 	vmoveq.32	d3[0], r0
 21c:	01110e1b 	tsteq	r1, fp, lsl lr
 220:	06100112 			; <UNDEFINED> instruction: 0x06100112
 224:	24020000 	strcs	r0, [r2], #-0
 228:	3e0b0b00 	vmlacc.f64	d0, d11, d0
 22c:	000e030b 	andeq	r0, lr, fp, lsl #6
 230:	00160300 	andseq	r0, r6, r0, lsl #6
 234:	0b3a0e03 	bleq	e83a48 <__bss_end+0xe7b05c>
 238:	13490b3b 	movtne	r0, #39739	; 0x9b3b
 23c:	0f040000 	svceq	0x00040000
 240:	490b0b00 	stmdbmi	fp, {r8, r9, fp}
 244:	05000013 	streq	r0, [r0, #-19]
 248:	0c270015 	stceq	0, cr0, [r7], #-84	; 0xffffffac
 24c:	04060000 	streq	r0, [r6], #-0
 250:	3a0b0b01 	bcc	2c2e5c <__bss_end+0x2ba470>
 254:	010b3b0b 	tsteq	fp, fp, lsl #22
 258:	07000013 	smladeq	r0, r3, r0, r0
 25c:	0e030028 	cdpeq	0, 0, cr0, cr3, cr8, {1}
 260:	00000d1c 	andeq	r0, r0, ip, lsl sp
 264:	03011308 	movweq	r1, #4872	; 0x1308
 268:	3a0b0b0e 	bcc	2c2ea8 <__bss_end+0x2ba4bc>
 26c:	010b3b0b 	tsteq	fp, fp, lsl #22
 270:	09000013 	stmdbeq	r0, {r0, r1, r4}
 274:	0803000d 	stmdaeq	r3, {r0, r2, r3}
 278:	0b3b0b3a 	bleq	ec2f68 <__bss_end+0xeba57c>
 27c:	0a381349 	beq	e04fa8 <__bss_end+0xdfc5bc>
 280:	0d0a0000 	stceq	0, cr0, [sl, #-0]
 284:	3a0e0300 	bcc	380e8c <__bss_end+0x3784a0>
 288:	490b3b0b 	stmdbmi	fp, {r0, r1, r3, r8, r9, fp, ip, sp}
 28c:	000a3813 	andeq	r3, sl, r3, lsl r8
 290:	000f0b00 	andeq	r0, pc, r0, lsl #22
 294:	00000b0b 	andeq	r0, r0, fp, lsl #22
 298:	3f012e0c 	svccc	0x00012e0c
 29c:	3a0e030c 	bcc	380ed4 <__bss_end+0x3784e8>
 2a0:	270b3b0b 	strcs	r3, [fp, -fp, lsl #22]
 2a4:	1201110c 	andne	r1, r1, #3
 2a8:	96064001 	strls	r4, [r6], -r1
 2ac:	13010c42 	movwne	r0, #7234	; 0x1c42
 2b0:	050d0000 	streq	r0, [sp, #-0]
 2b4:	3a080300 	bcc	200ebc <__bss_end+0x1f84d0>
 2b8:	490b3b0b 	stmdbmi	fp, {r0, r1, r3, r8, r9, fp, ip, sp}
 2bc:	000a0213 	andeq	r0, sl, r3, lsl r2
 2c0:	00050e00 	andeq	r0, r5, r0, lsl #28
 2c4:	0b3a0e03 	bleq	e83ad8 <__bss_end+0xe7b0ec>
 2c8:	13490b3b 	movtne	r0, #39739	; 0x9b3b
 2cc:	00000a02 	andeq	r0, r0, r2, lsl #20
 2d0:	0300340f 	movweq	r3, #1039	; 0x40f
 2d4:	3b0b3a08 	blcc	2ceafc <__bss_end+0x2c6110>
 2d8:	0213490b 	andseq	r4, r3, #180224	; 0x2c000
 2dc:	1000000a 	andne	r0, r0, sl
 2e0:	0c3f002e 	ldceq	0, cr0, [pc], #-184	; 230 <_start-0x7dd0>
 2e4:	0b3a0e03 	bleq	e83af8 <__bss_end+0xe7b10c>
 2e8:	01110b3b 	tsteq	r1, fp, lsr fp
 2ec:	06400112 			; <UNDEFINED> instruction: 0x06400112
 2f0:	000c4296 	muleq	ip, r6, r2
 2f4:	012e1100 	teqeq	lr, r0, lsl #2
 2f8:	0e030c3f 	mcreq	12, 0, r0, cr3, cr15, {1}
 2fc:	0b3b0b3a 	bleq	ec2fec <__bss_end+0xeba600>
 300:	01120111 	tsteq	r2, r1, lsl r1
 304:	42960640 	addsmi	r0, r6, #67108864	; 0x4000000
 308:	0013010c 	andseq	r0, r3, ip, lsl #2
 30c:	00341200 	eorseq	r1, r4, r0, lsl #4
 310:	0b3a0e03 	bleq	e83b24 <__bss_end+0xe7b138>
 314:	13490b3b 	movtne	r0, #39739	; 0x9b3b
 318:	00000a02 	andeq	r0, r0, r2, lsl #20
 31c:	3f002e13 	svccc	0x00002e13
 320:	3a0e030c 	bcc	380f58 <__bss_end+0x37856c>
 324:	110b3b0b 	tstne	fp, fp, lsl #22
 328:	40011201 	andmi	r1, r1, r1, lsl #4
 32c:	0c42960a 	mcrreq	6, 0, r9, r2, cr10
 330:	34140000 	ldrcc	r0, [r4], #-0
 334:	3a0e0300 	bcc	380f3c <__bss_end+0x378550>
 338:	490b3b0b 	stmdbmi	fp, {r0, r1, r3, r8, r9, fp, ip, sp}
 33c:	020c3f13 	andeq	r3, ip, #76	; 0x4c
 340:	0000000a 	andeq	r0, r0, sl

Disassembly of section .debug_aranges:

00000000 <.debug_aranges>:
   0:	0000001c 	andeq	r0, r0, ip, lsl r0
   4:	00000002 	andeq	r0, r0, r2
   8:	00040000 	andeq	r0, r4, r0
   c:	00000000 	andeq	r0, r0, r0
  10:	00008000 	andeq	r8, r0, r0
  14:	000000d0 	ldrdeq	r0, [r0], -r0	; <UNPREDICTABLE>
	...
  20:	0000001c 	andeq	r0, r0, ip, lsl r0
  24:	00550002 	subseq	r0, r5, r2
  28:	00040000 	andeq	r0, r4, r0
  2c:	00000000 	andeq	r0, r0, r0
  30:	000080d0 	ldrdeq	r8, [r0], -r0
  34:	000000c8 	andeq	r0, r0, r8, asr #1
	...
  40:	0000001c 	andeq	r0, r0, ip, lsl r0
  44:	01270002 	teqeq	r7, r2
  48:	00040000 	andeq	r0, r4, r0
  4c:	00000000 	andeq	r0, r0, r0
  50:	00008198 	muleq	r0, r8, r1
  54:	00000138 	andeq	r0, r0, r8, lsr r1
	...
  60:	0000001c 	andeq	r0, r0, ip, lsl r0
  64:	02890002 	addeq	r0, r9, #2
  68:	00040000 	andeq	r0, r4, r0
  6c:	00000000 	andeq	r0, r0, r0
  70:	000082d0 	ldrdeq	r8, [r0], -r0
  74:	00000194 	muleq	r0, r4, r1
	...
  80:	0000001c 	andeq	r0, r0, ip, lsl r0
  84:	037b0002 	cmneq	fp, #2
  88:	00040000 	andeq	r0, r4, r0
  8c:	00000000 	andeq	r0, r0, r0
  90:	00008464 	andeq	r8, r0, r4, ror #8
  94:	00000564 	andeq	r0, r0, r4, ror #10
	...

Disassembly of section .debug_loc:

00000000 <.debug_loc>:
   0:	00000000 	andeq	r0, r0, r0
   4:	00000004 	andeq	r0, r0, r4
   8:	007d0002 	rsbseq	r0, sp, r2
   c:	00000004 	andeq	r0, r0, r4
  10:	00000008 	andeq	r0, r0, r8
  14:	047d0002 	ldrbteq	r0, [sp], #-2
  18:	00000008 	andeq	r0, r0, r8
  1c:	00000044 	andeq	r0, r0, r4, asr #32
  20:	107d0002 	rsbsne	r0, sp, r2
	...
  2c:	00000044 	andeq	r0, r0, r4, asr #32
  30:	00000048 	andeq	r0, r0, r8, asr #32
  34:	007d0002 	rsbseq	r0, sp, r2
  38:	00000048 	andeq	r0, r0, r8, asr #32
  3c:	0000004c 	andeq	r0, r0, ip, asr #32
  40:	047d0002 	ldrbteq	r0, [sp], #-2
  44:	0000004c 	andeq	r0, r0, ip, asr #32
  48:	00000088 	andeq	r0, r0, r8, lsl #1
  4c:	107d0002 	rsbsne	r0, sp, r2
	...
  58:	00000088 	andeq	r0, r0, r8, lsl #1
  5c:	0000008c 	andeq	r0, r0, ip, lsl #1
  60:	007d0002 	rsbseq	r0, sp, r2
  64:	0000008c 	andeq	r0, r0, ip, lsl #1
  68:	000000c8 	andeq	r0, r0, r8, asr #1
  6c:	087d0002 	ldmdaeq	sp!, {r1}^
	...
  7c:	00000004 	andeq	r0, r0, r4
  80:	007d0002 	rsbseq	r0, sp, r2
  84:	00000004 	andeq	r0, r0, r4
  88:	00000008 	andeq	r0, r0, r8
  8c:	087d0002 	ldmdaeq	sp!, {r1}^
  90:	00000008 	andeq	r0, r0, r8
  94:	000000b4 	strheq	r0, [r0], -r4
  98:	107d0002 	rsbsne	r0, sp, r2
	...
  a4:	000000b4 	strheq	r0, [r0], -r4
  a8:	000000b8 	strheq	r0, [r0], -r8
  ac:	007d0002 	rsbseq	r0, sp, r2
  b0:	000000b8 	strheq	r0, [r0], -r8
  b4:	000000bc 	strheq	r0, [r0], -ip
  b8:	047d0002 	ldrbteq	r0, [sp], #-2
  bc:	000000bc 	strheq	r0, [r0], -ip
  c0:	000000fc 	strdeq	r0, [r0], -ip
  c4:	107d0002 	rsbsne	r0, sp, r2
	...
  d0:	000000fc 	strdeq	r0, [r0], -ip
  d4:	00000100 	andeq	r0, r0, r0, lsl #2
  d8:	007d0002 	rsbseq	r0, sp, r2
  dc:	00000100 	andeq	r0, r0, r0, lsl #2
  e0:	00000138 	andeq	r0, r0, r8, lsr r1
  e4:	087d0002 	ldmdaeq	sp!, {r1}^
	...
  f4:	00000004 	andeq	r0, r0, r4
  f8:	007d0002 	rsbseq	r0, sp, r2
  fc:	00000004 	andeq	r0, r0, r4
 100:	00000008 	andeq	r0, r0, r8
 104:	047d0002 	ldrbteq	r0, [sp], #-2
 108:	00000008 	andeq	r0, r0, r8
 10c:	0000004c 	andeq	r0, r0, ip, asr #32
 110:	107d0002 	rsbsne	r0, sp, r2
	...
 11c:	0000004c 	andeq	r0, r0, ip, asr #32
 120:	00000050 	andeq	r0, r0, r0, asr r0
 124:	007d0002 	rsbseq	r0, sp, r2
 128:	00000050 	andeq	r0, r0, r0, asr r0
 12c:	00000054 	andeq	r0, r0, r4, asr r0
 130:	047d0002 	ldrbteq	r0, [sp], #-2
 134:	00000054 	andeq	r0, r0, r4, asr r0
 138:	000000a4 	andeq	r0, r0, r4, lsr #1
 13c:	187d0002 	ldmdane	sp!, {r1}^
	...
 148:	000000a4 	andeq	r0, r0, r4, lsr #1
 14c:	000000a8 	andeq	r0, r0, r8, lsr #1
 150:	007d0002 	rsbseq	r0, sp, r2
 154:	000000a8 	andeq	r0, r0, r8, lsr #1
 158:	000000bc 	strheq	r0, [r0], -ip
 15c:	087d0002 	ldmdaeq	sp!, {r1}^
	...
 168:	000000bc 	strheq	r0, [r0], -ip
 16c:	000000c0 	andeq	r0, r0, r0, asr #1
 170:	007d0002 	rsbseq	r0, sp, r2
 174:	000000c0 	andeq	r0, r0, r0, asr #1
 178:	000000d4 	ldrdeq	r0, [r0], -r4
 17c:	087d0002 	ldmdaeq	sp!, {r1}^
	...
 188:	000000d4 	ldrdeq	r0, [r0], -r4
 18c:	000000d8 	ldrdeq	r0, [r0], -r8
 190:	007d0002 	rsbseq	r0, sp, r2
 194:	000000d8 	ldrdeq	r0, [r0], -r8
 198:	000000dc 	ldrdeq	r0, [r0], -ip
 19c:	047d0002 	ldrbteq	r0, [sp], #-2
 1a0:	000000dc 	ldrdeq	r0, [r0], -ip
 1a4:	00000194 	muleq	r0, r4, r1
 1a8:	107d0002 	rsbsne	r0, sp, r2
	...
 1b8:	00000004 	andeq	r0, r0, r4
 1bc:	007d0002 	rsbseq	r0, sp, r2
 1c0:	00000004 	andeq	r0, r0, r4
 1c4:	00000008 	andeq	r0, r0, r8
 1c8:	047d0002 	ldrbteq	r0, [sp], #-2
 1cc:	00000008 	andeq	r0, r0, r8
 1d0:	000000b8 	strheq	r0, [r0], -r8
 1d4:	187d0002 	ldmdane	sp!, {r1}^
	...
 1e0:	000000b8 	strheq	r0, [r0], -r8
 1e4:	000000bc 	strheq	r0, [r0], -ip
 1e8:	007d0002 	rsbseq	r0, sp, r2
 1ec:	000000bc 	strheq	r0, [r0], -ip
 1f0:	000000c0 	andeq	r0, r0, r0, asr #1
 1f4:	047d0002 	ldrbteq	r0, [sp], #-2
 1f8:	000000c0 	andeq	r0, r0, r0, asr #1
 1fc:	0000012c 	andeq	r0, r0, ip, lsr #2
 200:	187d0002 	ldmdane	sp!, {r1}^
	...
 20c:	0000012c 	andeq	r0, r0, ip, lsr #2
 210:	00000130 	andeq	r0, r0, r0, lsr r1
 214:	007d0002 	rsbseq	r0, sp, r2
 218:	00000130 	andeq	r0, r0, r0, lsr r1
 21c:	00000134 	andeq	r0, r0, r4, lsr r1
 220:	047d0002 	ldrbteq	r0, [sp], #-2
 224:	00000134 	andeq	r0, r0, r4, lsr r1
 228:	00000218 	andeq	r0, r0, r8, lsl r2
 22c:	207d0002 	rsbscs	r0, sp, r2
	...
 238:	00000218 	andeq	r0, r0, r8, lsl r2
 23c:	0000021c 	andeq	r0, r0, ip, lsl r2
 240:	007d0002 	rsbseq	r0, sp, r2
 244:	0000021c 	andeq	r0, r0, ip, lsl r2
 248:	00000248 	andeq	r0, r0, r8, asr #4
 24c:	087d0002 	ldmdaeq	sp!, {r1}^
	...
 258:	00000248 	andeq	r0, r0, r8, asr #4
 25c:	0000024c 	andeq	r0, r0, ip, asr #4
 260:	007d0002 	rsbseq	r0, sp, r2
 264:	0000024c 	andeq	r0, r0, ip, asr #4
 268:	00000250 	andeq	r0, r0, r0, asr r2
 26c:	047d0002 	ldrbteq	r0, [sp], #-2
 270:	00000250 	andeq	r0, r0, r0, asr r2
 274:	00000378 	andeq	r0, r0, r8, ror r3
 278:	107d0002 	rsbsne	r0, sp, r2
	...
 284:	00000378 	andeq	r0, r0, r8, ror r3
 288:	0000037c 	andeq	r0, r0, ip, ror r3
 28c:	007d0002 	rsbseq	r0, sp, r2
 290:	0000037c 	andeq	r0, r0, ip, ror r3
 294:	00000408 	andeq	r0, r0, r8, lsl #8
 298:	087d0002 	ldmdaeq	sp!, {r1}^
	...

Disassembly of section .debug_str:

00000000 <.debug_str>:
   0:	69616d6b 	stmdbvs	r1!, {r0, r1, r3, r5, r6, r8, sl, fp, sp, lr}^
   4:	656c006e 	strbvs	r0, [ip, #-110]!	; 0x6e
   8:	006e4f64 	rsbeq	r4, lr, r4, ror #30
   c:	20554e47 	subscs	r4, r5, r7, asr #28
  10:	2e342043 	cdpcs	0, 3, cr2, cr4, cr3, {2}
  14:	00312e37 	eorseq	r2, r1, r7, lsr lr
  18:	41747063 	cmnmi	r4, r3, rrx
  1c:	74706300 	ldrbtvc	r6, [r0], #-768	; 0x300
  20:	682f0042 	stmdavs	pc!, {r1, r6}	; <UNPREDICTABLE>
  24:	2f656d6f 	svccs	0x00656d6f
  28:	746e616b 	strbtvc	r6, [lr], #-363	; 0x16b
  2c:	656e696f 	strbvs	r6, [lr, #-2415]!	; 0x96f
  30:	636f442f 	cmnvs	pc, #788529152	; 0x2f000000
  34:	6e656d75 	mcrvs	13, 3, r6, cr5, cr5, {3}
  38:	532f7374 	teqpl	pc, #-805306367	; 0xd0000001
  3c:	65747379 	ldrbvs	r7, [r4, #-889]!	; 0x379
  40:	7845656d 	stmdavc	r5, {r0, r2, r3, r5, r6, r8, sl, sp, lr}^
  44:	696f6c70 	stmdbvs	pc!, {r4, r5, r6, sl, fp, sp, lr}^	; <UNPREDICTABLE>
  48:	69746174 	ldmdbvs	r4!, {r2, r4, r5, r6, r8, sp, lr}^
  4c:	76416e6f 	strbvc	r6, [r1], -pc, ror #28
  50:	65636e61 	strbvs	r6, [r3, #-3681]!	; 0xe61
  54:	6e756600 	cdpvs	6, 7, cr6, cr5, cr0, {0}
  58:	75004163 	strvc	r4, [r0, #-355]	; 0x163
  5c:	6769736e 	strbvs	r7, [r9, -lr, ror #6]!
  60:	2064656e 	rsbcs	r6, r4, lr, ror #10
  64:	72616863 	rsbvc	r6, r1, #6488064	; 0x630000
  68:	6e756600 	cdpvs	6, 7, cr6, cr5, cr0, {0}
  6c:	73004263 	movwvc	r4, #611	; 0x263
  70:	74726174 	ldrbtvc	r6, [r2], #-372	; 0x174
  74:	6863735f 	stmdavs	r3!, {r0, r1, r2, r3, r4, r6, r8, r9, ip, sp, lr}^
  78:	73006465 	movwvc	r6, #1125	; 0x465
  7c:	74726f68 	ldrbtvc	r6, [r2], #-3944	; 0xf68
  80:	736e7520 	cmnvc	lr, #134217728	; 0x8000000
  84:	656e6769 	strbvs	r6, [lr, #-1897]!	; 0x769
  88:	6e692064 	cdpvs	0, 6, cr2, cr9, cr4, {3}
  8c:	656b0074 	strbvs	r0, [fp, #-116]!	; 0x74
  90:	6c656e72 	stclvs	14, cr6, [r5], #-456	; 0xfffffe38
  94:	7000632e 	andvc	r6, r0, lr, lsr #6
  98:	6c417968 	mcrrvs	9, 6, r7, r1, cr8
  9c:	2e636f6c 	cdpcs	15, 6, cr6, cr3, cr12, {3}
  a0:	72700063 	rsbsvc	r0, r0, #99	; 0x63
  a4:	66007665 	strvs	r7, [r0], -r5, ror #12
  a8:	6c656572 	cfstr64vs	mvdx6, [r5], #-456	; 0xfffffe38
  ac:	00747369 	rsbseq	r7, r4, r9, ror #6
  b0:	41796870 	cmnmi	r9, r0, ror r8
  b4:	636f6c6c 	cmnvs	pc, #27648	; 0x6c00
  b8:	6572665f 	ldrbvs	r6, [r2, #-1631]!	; 0x65f
  bc:	65680065 	strbvs	r0, [r8, #-101]!	; 0x65
  c0:	735f7061 	cmpvc	pc, #97	; 0x61
  c4:	74726174 	ldrbtvc	r6, [r2], #-372	; 0x174
  c8:	78656e00 	stmdavc	r5!, {r9, sl, fp, sp, lr}^
  cc:	68700074 	ldmdavs	r0!, {r2, r4, r5, r6}^
  d0:	6c6c4179 	stfvse	f4, [ip], #-484	; 0xfffffe1c
  d4:	615f636f 	cmpvs	pc, pc, ror #6
  d8:	636f6c6c 	cmnvs	pc, #27648	; 0x6c00
  dc:	79687000 	stmdbvc	r8!, {ip, sp, lr}^
  e0:	6f6c6c41 	svcvs	0x006c6c41
  e4:	6e695f63 	cdpvs	15, 6, cr5, cr9, cr3, {3}
  e8:	68007469 	stmdavs	r0, {r0, r3, r5, r6, sl, ip, sp, lr}
  ec:	5f706165 	svcpl	0x00706165
  f0:	696d696c 	stmdbvs	sp!, {r2, r3, r5, r6, r8, fp, sp, lr}^
  f4:	682f0074 	stmdavs	pc!, {r2, r4, r5, r6}	; <UNPREDICTABLE>
  f8:	2f656d6f 	svccs	0x00656d6f
  fc:	746e616b 	strbtvc	r6, [lr], #-363	; 0x16b
 100:	656e696f 	strbvs	r6, [lr, #-2415]!	; 0x96f
 104:	636f442f 	cmnvs	pc, #788529152	; 0x2f000000
 108:	6e656d75 	mcrvs	13, 3, r6, cr5, cr5, {3}
 10c:	6f2f7374 	svcvs	0x002f7374
 110:	65697073 	strbvs	r7, [r9, #-115]!	; 0x73
 114:	6174732d 	cmnvs	r4, sp, lsr #6
 118:	68007472 	stmdavs	r0, {r1, r4, r5, r6, sl, ip, sp, lr}
 11c:	5f706165 	svcpl	0x00706165
 120:	657a6973 	ldrbvs	r6, [sl, #-2419]!	; 0x973
 124:	2e776800 	cdpcs	8, 7, cr6, cr7, cr0, {0}
 128:	656c0063 	strbvs	r0, [ip, #-99]!	; 0x63
 12c:	6e6f5f64 	cdpvs	15, 6, cr5, cr15, cr4, {3}
 130:	74657300 	strbtvc	r7, [r5], #-768	; 0x300
 134:	6369745f 	cmnvs	r9, #1593835520	; 0x5f000000
 138:	6e615f6b 	cdpvs	15, 6, cr5, cr1, cr11, {3}
 13c:	6e655f64 	cdpvs	15, 6, cr5, cr5, cr4, {3}
 140:	656c6261 	strbvs	r6, [ip, #-609]!	; 0x261
 144:	6d69745f 	cfstrdvs	mvd7, [r9, #-380]!	; 0xfffffe84
 148:	69007265 	stmdbvs	r0, {r0, r2, r5, r6, r9, ip, sp, lr}
 14c:	5f74696e 	svcpl	0x0074696e
 150:	73007768 	movwvc	r7, #1896	; 0x768
 154:	745f7465 	ldrbvc	r7, [pc], #-1125	; 15c <_start-0x7ea4>
 158:	5f6b6369 	svcpl	0x006b6369
 15c:	5f646e61 	svcpl	0x00646e61
 160:	62616e65 	rsbvs	r6, r1, #1616	; 0x650
 164:	745f656c 	ldrbvc	r6, [pc], #-1388	; 16c <_start-0x7e94>
 168:	72656d69 	rsbvc	r6, r5, #6720	; 0x1a40
 16c:	6972705f 	ldmdbvs	r2!, {r0, r1, r2, r3, r4, r6, ip, sp, lr}^
 170:	7469726f 	strbtvc	r7, [r9], #-623	; 0x26f
 174:	656c0079 	strbvs	r0, [ip, #-121]!	; 0x79
 178:	666f5f64 	strbtvs	r5, [pc], -r4, ror #30
 17c:	69750066 	ldmdbvs	r5!, {r1, r2, r5, r6}^
 180:	3233746e 	eorscc	r7, r3, #1845493760	; 0x6e000000
 184:	696e6900 	stmdbvs	lr!, {r8, fp, sp, lr}^
 188:	63705f74 	cmnvs	r0, #464	; 0x1d0
 18c:	43410062 	movtmi	r0, #4194	; 0x1062
 190:	45564954 	ldrbmi	r4, [r6, #-2388]	; 0x954
 194:	62637000 	rsbvs	r7, r3, #0
 198:	69616d5f 	stmdbvs	r1!, {r0, r1, r2, r3, r4, r6, r8, sl, fp, sp, lr}^
 19c:	7463006e 	strbtvc	r0, [r3], #-110	; 0x6e
 1a0:	77735f78 			; <UNDEFINED> instruction: 0x77735f78
 1a4:	68637469 	stmdavs	r3!, {r0, r3, r5, r6, sl, ip, sp, lr}^
 1a8:	6f72665f 	svcvs	0x0072665f
 1ac:	72695f6d 	rsbvc	r5, r9, #436	; 0x1b4
 1b0:	65740071 	ldrbvs	r0, [r4, #-113]!	; 0x71
 1b4:	6e696d72 	mcrvs	13, 3, r6, cr9, cr2, {3}
 1b8:	64657461 	strbtvs	r7, [r5], #-1121	; 0x461
 1bc:	6f72705f 	svcvs	0x0072705f
 1c0:	73736563 	cmnvc	r3, #415236096	; 0x18c00000
 1c4:	68637300 	stmdavs	r3!, {r8, r9, ip, sp, lr}^
 1c8:	632e6465 	teqvs	lr, #1694498816	; 0x65000000
 1cc:	4d4f5a00 	vstrmi	s11, [pc, #-0]	; 1d4 <_start-0x7e2c>
 1d0:	00454942 	subeq	r4, r5, r2, asr #18
 1d4:	44414552 	strbmi	r4, [r1], #-1362	; 0x552
 1d8:	45540059 	ldrbmi	r0, [r4, #-89]	; 0x59
 1dc:	4e494d52 	mcrmi	13, 2, r4, cr9, cr2, {2}
 1e0:	44455441 	strbmi	r5, [r5], #-1089	; 0x441
 1e4:	61747300 	cmnvs	r4, r0, lsl #6
 1e8:	735f6b63 	cmpvc	pc, #101376	; 0x18c00
 1ec:	00657a69 	rsbeq	r7, r5, r9, ror #20
 1f0:	636f7250 	cmnvs	pc, #5
 1f4:	5f737365 	svcpl	0x00737365
 1f8:	74617473 	strbtvc	r7, [r1], #-1139	; 0x473
 1fc:	74630065 	strbtvc	r0, [r3], #-101	; 0x65
 200:	00735f78 	rsbseq	r5, r3, r8, ror pc
 204:	5f626370 	svcpl	0x00626370
 208:	74630073 	strbtvc	r0, [r3], #-115	; 0x73
 20c:	77735f78 			; <UNDEFINED> instruction: 0x77735f78
 210:	68637469 	stmdavs	r3!, {r0, r3, r5, r6, sl, ip, sp, lr}^
 214:	61747300 	cmnvs	r4, r0, lsl #6
 218:	635f7472 	cmpvs	pc, #1912602624	; 0x72000000
 21c:	65727275 	ldrbvs	r7, [r2, #-629]!	; 0x275
 220:	705f746e 	subsvc	r7, pc, lr, ror #8
 224:	65636f72 	strbvs	r6, [r3, #-3954]!	; 0xf72
 228:	70007373 	andvc	r7, r0, r3, ror r3
 22c:	685f6263 	ldmdavs	pc, {r0, r1, r5, r6, r9, sp, lr}^	; <UNPREDICTABLE>
 230:	00646165 	rsbeq	r6, r4, r5, ror #2
 234:	504f5453 	subpl	r5, pc, r3, asr r4	; <UNPREDICTABLE>
 238:	00444550 	subeq	r4, r4, r0, asr r5
 23c:	54494157 	strbpl	r4, [r9], #-343	; 0x157
 240:	00474e49 	subeq	r4, r7, r9, asr #28
 244:	61657263 	cmnvs	r5, r3, ror #4
 248:	705f6574 	subsvc	r6, pc, r4, ror r5	; <UNPREDICTABLE>
 24c:	65636f72 	strbvs	r6, [r3, #-3954]!	; 0xf72
 250:	65007373 	strvs	r7, [r0, #-883]	; 0x373
 254:	7463656c 	strbtvc	r6, [r3], #-1388	; 0x56c
 258:	6e756600 	cdpvs	6, 7, cr6, cr5, cr0, {0}
 25c:	00745f63 	rsbseq	r5, r4, r3, ror #30
 260:	72727563 	rsbsvc	r7, r2, #415236096	; 0x18c00000
 264:	5f746e65 	svcpl	0x00746e65
 268:	00787463 	rsbseq	r7, r8, r3, ror #8
 26c:	73677261 	cmnvc	r7, #268435462	; 0x10000006
 270:	62637000 	rsbvs	r7, r3, #0
 274:	6961745f 	stmdbvs	r1!, {r0, r1, r2, r3, r4, r6, sl, ip, sp, lr}^
 278:	6e69006c 	cdpvs	0, 6, cr0, cr9, cr12, {3}
 27c:	635f7469 	cmpvs	pc, #1761607680	; 0x69000000
 280:	Address 0x0000000000000280 is out of bounds.


Disassembly of section .debug_frame:

00000000 <.debug_frame>:
   0:	0000000c 	andeq	r0, r0, ip
   4:	ffffffff 			; <UNDEFINED> instruction: 0xffffffff
   8:	7c020001 	stcvc	0, cr0, [r2], {1}
   c:	000d0c0e 	andeq	r0, sp, lr, lsl #24
  10:	00000014 	andeq	r0, r0, r4, lsl r0
  14:	00000000 	andeq	r0, r0, r0
  18:	000080d0 	ldrdeq	r8, [r0], -r0
  1c:	00000044 	andeq	r0, r0, r4, asr #32
  20:	8e040e42 	cdphi	14, 0, cr0, cr4, cr2, {2}
  24:	100e4201 	andne	r4, lr, r1, lsl #4
  28:	00000014 	andeq	r0, r0, r4, lsl r0
  2c:	00000000 	andeq	r0, r0, r0
  30:	00008114 	andeq	r8, r0, r4, lsl r1
  34:	00000044 	andeq	r0, r0, r4, asr #32
  38:	8e040e42 	cdphi	14, 0, cr0, cr4, cr2, {2}
  3c:	100e4201 	andne	r4, lr, r1, lsl #4
  40:	00000014 	andeq	r0, r0, r4, lsl r0
  44:	00000000 	andeq	r0, r0, r0
  48:	00008158 	andeq	r8, r0, r8, asr r1
  4c:	00000040 	andeq	r0, r0, r0, asr #32
  50:	83080e42 	movwhi	r0, #36418	; 0x8e42
  54:	00018e02 	andeq	r8, r1, r2, lsl #28
  58:	0000000c 	andeq	r0, r0, ip
  5c:	ffffffff 			; <UNDEFINED> instruction: 0xffffffff
  60:	7c020001 	stcvc	0, cr0, [r2], {1}
  64:	000d0c0e 	andeq	r0, sp, lr, lsl #24
  68:	00000018 	andeq	r0, r0, r8, lsl r0
  6c:	00000058 	andeq	r0, r0, r8, asr r0
  70:	00008198 	muleq	r0, r8, r1
  74:	000000b4 	strheq	r0, [r0], -r4
  78:	84080e42 	strhi	r0, [r8], #-3650	; 0xe42
  7c:	42018502 	andmi	r8, r1, #8388608	; 0x800000
  80:	0000100e 	andeq	r1, r0, lr
  84:	00000014 	andeq	r0, r0, r4, lsl r0
  88:	00000058 	andeq	r0, r0, r8, asr r0
  8c:	0000824c 	andeq	r8, r0, ip, asr #4
  90:	00000048 	andeq	r0, r0, r8, asr #32
  94:	84040e42 	strhi	r0, [r4], #-3650	; 0xe42
  98:	100e4201 	andne	r4, lr, r1, lsl #4
  9c:	00000010 	andeq	r0, r0, r0, lsl r0
  a0:	00000058 	andeq	r0, r0, r8, asr r0
  a4:	00008294 	muleq	r0, r4, r2
  a8:	0000003c 	andeq	r0, r0, ip, lsr r0
  ac:	00080e42 	andeq	r0, r8, r2, asr #28
  b0:	0000000c 	andeq	r0, r0, ip
  b4:	ffffffff 			; <UNDEFINED> instruction: 0xffffffff
  b8:	7c020001 	stcvc	0, cr0, [r2], {1}
  bc:	000d0c0e 	andeq	r0, sp, lr, lsl #24
  c0:	00000014 	andeq	r0, r0, r4, lsl r0
  c4:	000000b0 	strheq	r0, [r0], -r0	; <UNPREDICTABLE>
  c8:	000082d0 	ldrdeq	r8, [r0], -r0
  cc:	0000004c 	andeq	r0, r0, ip, asr #32
  d0:	8e040e42 	cdphi	14, 0, cr0, cr4, cr2, {2}
  d4:	100e4201 	andne	r4, lr, r1, lsl #4
  d8:	00000014 	andeq	r0, r0, r4, lsl r0
  dc:	000000b0 	strheq	r0, [r0], -r0	; <UNPREDICTABLE>
  e0:	0000831c 	andeq	r8, r0, ip, lsl r3
  e4:	00000058 	andeq	r0, r0, r8, asr r0
  e8:	8e040e42 	cdphi	14, 0, cr0, cr4, cr2, {2}
  ec:	180e4201 	stmdane	lr, {r0, r9, lr}
  f0:	00000014 	andeq	r0, r0, r4, lsl r0
  f4:	000000b0 	strheq	r0, [r0], -r0	; <UNPREDICTABLE>
  f8:	00008374 	andeq	r8, r0, r4, ror r3
  fc:	00000018 	andeq	r0, r0, r8, lsl r0
 100:	83080e42 	movwhi	r0, #36418	; 0x8e42
 104:	00018e02 	andeq	r8, r1, r2, lsl #28
 108:	00000014 	andeq	r0, r0, r4, lsl r0
 10c:	000000b0 	strheq	r0, [r0], -r0	; <UNPREDICTABLE>
 110:	0000838c 	andeq	r8, r0, ip, lsl #7
 114:	00000018 	andeq	r0, r0, r8, lsl r0
 118:	83080e42 	movwhi	r0, #36418	; 0x8e42
 11c:	00018e02 	andeq	r8, r1, r2, lsl #28
 120:	00000014 	andeq	r0, r0, r4, lsl r0
 124:	000000b0 	strheq	r0, [r0], -r0	; <UNPREDICTABLE>
 128:	000083a4 	andeq	r8, r0, r4, lsr #7
 12c:	000000c0 	andeq	r0, r0, r0, asr #1
 130:	8e040e42 	cdphi	14, 0, cr0, cr4, cr2, {2}
 134:	100e4201 	andne	r4, lr, r1, lsl #4
 138:	0000000c 	andeq	r0, r0, ip
 13c:	ffffffff 			; <UNDEFINED> instruction: 0xffffffff
 140:	7c020001 	stcvc	0, cr0, [r2], {1}
 144:	000d0c0e 	andeq	r0, sp, lr, lsl #24
 148:	00000014 	andeq	r0, r0, r4, lsl r0
 14c:	00000138 	andeq	r0, r0, r8, lsr r1
 150:	00008464 	andeq	r8, r0, r4, ror #8
 154:	000000b8 	strheq	r0, [r0], -r8
 158:	8e040e42 	cdphi	14, 0, cr0, cr4, cr2, {2}
 15c:	180e4201 	stmdane	lr, {r0, r9, lr}
 160:	00000014 	andeq	r0, r0, r4, lsl r0
 164:	00000138 	andeq	r0, r0, r8, lsr r1
 168:	0000851c 	andeq	r8, r0, ip, lsl r5
 16c:	00000074 	andeq	r0, r0, r4, ror r0
 170:	8e040e42 	cdphi	14, 0, cr0, cr4, cr2, {2}
 174:	180e4201 	stmdane	lr, {r0, r9, lr}
 178:	00000014 	andeq	r0, r0, r4, lsl r0
 17c:	00000138 	andeq	r0, r0, r8, lsr r1
 180:	00008590 	muleq	r0, r0, r5
 184:	000000ec 	andeq	r0, r0, ip, ror #1
 188:	8e040e42 	cdphi	14, 0, cr0, cr4, cr2, {2}
 18c:	200e4201 	andcs	r4, lr, r1, lsl #4
 190:	00000014 	andeq	r0, r0, r4, lsl r0
 194:	00000138 	andeq	r0, r0, r8, lsr r1
 198:	0000867c 	andeq	r8, r0, ip, ror r6
 19c:	00000030 	andeq	r0, r0, r0, lsr r0
 1a0:	83080e42 	movwhi	r0, #36418	; 0x8e42
 1a4:	00018e02 	andeq	r8, r1, r2, lsl #28
 1a8:	00000014 	andeq	r0, r0, r4, lsl r0
 1ac:	00000138 	andeq	r0, r0, r8, lsr r1
 1b0:	000086ac 	andeq	r8, r0, ip, lsr #13
 1b4:	00000130 	andeq	r0, r0, r0, lsr r1
 1b8:	8e040e42 	cdphi	14, 0, cr0, cr4, cr2, {2}
 1bc:	100e4201 	andne	r4, lr, r1, lsl #4
 1c0:	00000014 	andeq	r0, r0, r4, lsl r0
 1c4:	00000138 	andeq	r0, r0, r8, lsr r1
 1c8:	000087dc 	ldrdeq	r8, [r0], -ip
 1cc:	00000090 	muleq	r0, r0, r0
 1d0:	83080e42 	movwhi	r0, #36418	; 0x8e42
 1d4:	00018e02 	andeq	r8, r1, r2, lsl #28
 1d8:	0000000c 	andeq	r0, r0, ip
 1dc:	00000138 	andeq	r0, r0, r8, lsr r1
 1e0:	0000886c 	andeq	r8, r0, ip, ror #16
 1e4:	00000090 	muleq	r0, r0, r0
 1e8:	0000000c 	andeq	r0, r0, ip
 1ec:	00000138 	andeq	r0, r0, r8, lsr r1
 1f0:	000088fc 	strdeq	r8, [r0], -ip
 1f4:	000000cc 	andeq	r0, r0, ip, asr #1
