
kernel.elf:     file format elf32-littlearm


Disassembly of section .text:

00008000 <_start>:
    8000:	e59ff018 	ldr	pc, [pc, #24]	; 8020 <reset_handler>
    8004:	e59ff018 	ldr	pc, [pc, #24]	; 8024 <undefined_handler>
    8008:	e59ff018 	ldr	pc, [pc, #24]	; 8028 <swi_handler>
    800c:	e59ff018 	ldr	pc, [pc, #24]	; 802c <prefetch_handler>
    8010:	e59ff018 	ldr	pc, [pc, #24]	; 8030 <data_handler>
    8014:	e59ff018 	ldr	pc, [pc, #24]	; 8034 <unused_handler>
    8018:	e59ff018 	ldr	pc, [pc, #24]	; 8038 <irq_handler>
    801c:	e59ff018 	ldr	pc, [pc, #24]	; 803c <fiq_handler>

00008020 <reset_handler>:
    8020:	00008040 	andeq	r8, r0, r0, asr #32

00008024 <undefined_handler>:
    8024:	00008084 	andeq	r8, r0, r4, lsl #1

00008028 <swi_handler>:
    8028:	00008088 	andeq	r8, r0, r8, lsl #1

0000802c <prefetch_handler>:
    802c:	0000808c 	andeq	r8, r0, ip, lsl #1

00008030 <data_handler>:
    8030:	00008090 	muleq	r0, r0, r0

00008034 <unused_handler>:
    8034:	00008094 	muleq	r0, r4, r0

00008038 <irq_handler>:
    8038:	000080cc 	andeq	r8, r0, ip, asr #1

0000803c <fiq_handler>:
    803c:	00008098 	muleq	r0, r8, r0

00008040 <reset>:
    8040:	e3a00902 	mov	r0, #32768	; 0x8000
    8044:	e3a01000 	mov	r1, #0
    8048:	e8b003fc 	ldm	r0!, {r2, r3, r4, r5, r6, r7, r8, r9}
    804c:	e8a103fc 	stmia	r1!, {r2, r3, r4, r5, r6, r7, r8, r9}
    8050:	e8b003fc 	ldm	r0!, {r2, r3, r4, r5, r6, r7, r8, r9}
    8054:	e8a103fc 	stmia	r1!, {r2, r3, r4, r5, r6, r7, r8, r9}
    8058:	e3a000d1 	mov	r0, #209	; 0xd1
    805c:	e121f000 	msr	CPSR_c, r0
    8060:	e3a0d90e 	mov	sp, #229376	; 0x38000
    8064:	e3a000d2 	mov	r0, #210	; 0xd2
    8068:	e121f000 	msr	CPSR_c, r0
    806c:	e3a0d701 	mov	sp, #262144	; 0x40000
    8070:	e3a000d3 	mov	r0, #211	; 0xd3
    8074:	e121f000 	msr	CPSR_c, r0
    8078:	e3a0d912 	mov	sp, #294912	; 0x48000
    807c:	eb00003d 	bl	8178 <kmain>

00008080 <hang>:
    8080:	eafffffe 	b	8080 <hang>

00008084 <undefined>:
    8084:	eafffffe 	b	8084 <undefined>

00008088 <swi>:
    8088:	eafffffe 	b	8088 <swi>

0000808c <prefetch>:
    808c:	eafffffe 	b	808c <prefetch>

00008090 <data>:
    8090:	eafffffe 	b	8090 <data>

00008094 <unused>:
    8094:	eafffffe 	b	8094 <unused>

00008098 <fiq>:
    8098:	eafffffe 	b	8098 <fiq>

0000809c <PUT32>:
    809c:	e5801000 	str	r1, [r0]
    80a0:	e12fff1e 	bx	lr

000080a4 <PUT16>:
    80a4:	e1c010b0 	strh	r1, [r0]
    80a8:	e12fff1e 	bx	lr

000080ac <PUT8>:
    80ac:	e5c01000 	strb	r1, [r0]
    80b0:	e12fff1e 	bx	lr

000080b4 <GET32>:
    80b4:	e5900000 	ldr	r0, [r0]
    80b8:	e12fff1e 	bx	lr

000080bc <GETPC>:
    80bc:	e1a0000e 	mov	r0, lr
    80c0:	e12fff1e 	bx	lr

000080c4 <BRANCHTO>:
    80c4:	e12fff10 	bx	r0

000080c8 <dummy>:
    80c8:	e12fff1e 	bx	lr

000080cc <irq>:
    80cc:	ea00021a 	b	893c <ctx_switch_from_irq>

000080d0 <funcA>:
    80d0:	e92d4008 	push	{r3, lr}
    80d4:	e59f3028 	ldr	r3, [pc, #40]	; 8104 <funcA+0x34>
    80d8:	e5933000 	ldr	r3, [r3]
    80dc:	e1a00003 	mov	r0, r3
    80e0:	eb000477 	bl	92c4 <drawRed>
    80e4:	e59f3018 	ldr	r3, [pc, #24]	; 8104 <funcA+0x34>
    80e8:	e5933000 	ldr	r3, [r3]
    80ec:	e1a00003 	mov	r0, r3
    80f0:	eb0004e4 	bl	9488 <increaseY>
    80f4:	e1a02000 	mov	r2, r0
    80f8:	e59f3004 	ldr	r3, [pc, #4]	; 8104 <funcA+0x34>
    80fc:	e5832000 	str	r2, [r3]
    8100:	eafffff3 	b	80d4 <funcA+0x4>
    8104:	000094cc 	andeq	r9, r0, ip, asr #9

00008108 <funcB>:
    8108:	e92d4008 	push	{r3, lr}
    810c:	e59f3028 	ldr	r3, [pc, #40]	; 813c <funcB+0x34>
    8110:	e5933000 	ldr	r3, [r3]
    8114:	e1a00003 	mov	r0, r3
    8118:	eb000490 	bl	9360 <drawWhite>
    811c:	e59f3018 	ldr	r3, [pc, #24]	; 813c <funcB+0x34>
    8120:	e5933000 	ldr	r3, [r3]
    8124:	e1a00003 	mov	r0, r3
    8128:	eb0004d6 	bl	9488 <increaseY>
    812c:	e1a02000 	mov	r2, r0
    8130:	e59f3004 	ldr	r3, [pc, #4]	; 813c <funcB+0x34>
    8134:	e5832000 	str	r2, [r3]
    8138:	eafffff3 	b	810c <funcB+0x4>
    813c:	000094cc 	andeq	r9, r0, ip, asr #9

00008140 <funcC>:
    8140:	e92d4008 	push	{r3, lr}
    8144:	e59f3028 	ldr	r3, [pc, #40]	; 8174 <funcC+0x34>
    8148:	e5933000 	ldr	r3, [r3]
    814c:	e1a00003 	mov	r0, r3
    8150:	eb0004a7 	bl	93f4 <drawBlue>
    8154:	e59f3018 	ldr	r3, [pc, #24]	; 8174 <funcC+0x34>
    8158:	e5933000 	ldr	r3, [r3]
    815c:	e1a00003 	mov	r0, r3
    8160:	eb0004c8 	bl	9488 <increaseY>
    8164:	e1a02000 	mov	r2, r0
    8168:	e59f3004 	ldr	r3, [pc, #4]	; 8174 <funcC+0x34>
    816c:	e5832000 	str	r2, [r3]
    8170:	eafffff3 	b	8144 <funcC+0x4>
    8174:	000094cc 	andeq	r9, r0, ip, asr #9

00008178 <kmain>:
    8178:	e92d4008 	push	{r3, lr}
    817c:	eb000098 	bl	83e4 <init_hw>
    8180:	eb00027d 	bl	8b7c <FramebufferInitialize>
    8184:	eb000406 	bl	91a4 <draw>
    8188:	e59f003c 	ldr	r0, [pc, #60]	; 81cc <kmain+0x54>
    818c:	e3a01000 	mov	r1, #0
    8190:	e3a02c02 	mov	r2, #512	; 0x200
    8194:	e3a03001 	mov	r3, #1
    8198:	eb00010c 	bl	85d0 <create_process>
    819c:	e59f002c 	ldr	r0, [pc, #44]	; 81d0 <kmain+0x58>
    81a0:	e3a01000 	mov	r1, #0
    81a4:	e3a02c02 	mov	r2, #512	; 0x200
    81a8:	e3a03002 	mov	r3, #2
    81ac:	eb000107 	bl	85d0 <create_process>
    81b0:	e59f001c 	ldr	r0, [pc, #28]	; 81d4 <kmain+0x5c>
    81b4:	e3a01000 	mov	r1, #0
    81b8:	e3a02c02 	mov	r2, #512	; 0x200
    81bc:	e3a03003 	mov	r3, #3
    81c0:	eb000102 	bl	85d0 <create_process>
    81c4:	eb000194 	bl	881c <start_sched>
    81c8:	eafffffe 	b	81c8 <kmain+0x50>
    81cc:	000080d0 	ldrdeq	r8, [r0], -r0
    81d0:	00008108 	andeq	r8, r0, r8, lsl #2
    81d4:	00008140 	andeq	r8, r0, r0, asr #2

000081d8 <phyAlloc_alloc>:
    81d8:	e92d0030 	push	{r4, r5}
    81dc:	e24dd008 	sub	sp, sp, #8
    81e0:	e58d0004 	str	r0, [sp, #4]
    81e4:	e59f3094 	ldr	r3, [pc, #148]	; 8280 <phyAlloc_alloc+0xa8>
    81e8:	e5934000 	ldr	r4, [r3]
    81ec:	e59f508c 	ldr	r5, [pc, #140]	; 8280 <phyAlloc_alloc+0xa8>
    81f0:	ea000001 	b	81fc <phyAlloc_alloc+0x24>
    81f4:	e1a05004 	mov	r5, r4
    81f8:	e5944000 	ldr	r4, [r4]
    81fc:	e3540000 	cmp	r4, #0
    8200:	0a000003 	beq	8214 <phyAlloc_alloc+0x3c>
    8204:	e5942004 	ldr	r2, [r4, #4]
    8208:	e59d3004 	ldr	r3, [sp, #4]
    820c:	e1520003 	cmp	r2, r3
    8210:	3afffff7 	bcc	81f4 <phyAlloc_alloc+0x1c>
    8214:	e3540000 	cmp	r4, #0
    8218:	1a000011 	bne	8264 <phyAlloc_alloc+0x8c>
    821c:	e59f3060 	ldr	r3, [pc, #96]	; 8284 <phyAlloc_alloc+0xac>
    8220:	e5934000 	ldr	r4, [r3]
    8224:	e59f3058 	ldr	r3, [pc, #88]	; 8284 <phyAlloc_alloc+0xac>
    8228:	e5932000 	ldr	r2, [r3]
    822c:	e59d3004 	ldr	r3, [sp, #4]
    8230:	e2833003 	add	r3, r3, #3
    8234:	e3c33003 	bic	r3, r3, #3
    8238:	e0822003 	add	r2, r2, r3
    823c:	e59f3040 	ldr	r3, [pc, #64]	; 8284 <phyAlloc_alloc+0xac>
    8240:	e5832000 	str	r2, [r3]
    8244:	e59f3038 	ldr	r3, [pc, #56]	; 8284 <phyAlloc_alloc+0xac>
    8248:	e5932000 	ldr	r2, [r3]
    824c:	e59f3034 	ldr	r3, [pc, #52]	; 8288 <phyAlloc_alloc+0xb0>
    8250:	e5933000 	ldr	r3, [r3]
    8254:	e1520003 	cmp	r2, r3
    8258:	9a000003 	bls	826c <phyAlloc_alloc+0x94>
    825c:	e3a03000 	mov	r3, #0
    8260:	ea000002 	b	8270 <phyAlloc_alloc+0x98>
    8264:	e5943000 	ldr	r3, [r4]
    8268:	e5853000 	str	r3, [r5]
    826c:	e1a03004 	mov	r3, r4
    8270:	e1a00003 	mov	r0, r3
    8274:	e28dd008 	add	sp, sp, #8
    8278:	e8bd0030 	pop	{r4, r5}
    827c:	e12fff1e 	bx	lr
    8280:	000094d0 	ldrdeq	r9, [r0], -r0
    8284:	000094d4 	ldrdeq	r9, [r0], -r4
    8288:	000094d8 	ldrdeq	r9, [r0], -r8

0000828c <phyAlloc_free>:
    828c:	e52d4004 	push	{r4}		; (str r4, [sp, #-4]!)
    8290:	e24dd00c 	sub	sp, sp, #12
    8294:	e58d0004 	str	r0, [sp, #4]
    8298:	e58d1000 	str	r1, [sp]
    829c:	e59d4004 	ldr	r4, [sp, #4]
    82a0:	e59d3000 	ldr	r3, [sp]
    82a4:	e2833003 	add	r3, r3, #3
    82a8:	e3c33003 	bic	r3, r3, #3
    82ac:	e5843004 	str	r3, [r4, #4]
    82b0:	e59f3018 	ldr	r3, [pc, #24]	; 82d0 <phyAlloc_free+0x44>
    82b4:	e5933000 	ldr	r3, [r3]
    82b8:	e5843000 	str	r3, [r4]
    82bc:	e59f300c 	ldr	r3, [pc, #12]	; 82d0 <phyAlloc_free+0x44>
    82c0:	e5834000 	str	r4, [r3]
    82c4:	e28dd00c 	add	sp, sp, #12
    82c8:	e8bd0010 	pop	{r4}
    82cc:	e12fff1e 	bx	lr
    82d0:	000094d0 	ldrdeq	r9, [r0], -r0

000082d4 <phyAlloc_init>:
    82d4:	e24dd008 	sub	sp, sp, #8
    82d8:	e58d0004 	str	r0, [sp, #4]
    82dc:	e58d1000 	str	r1, [sp]
    82e0:	e59f3020 	ldr	r3, [pc, #32]	; 8308 <phyAlloc_init+0x34>
    82e4:	e59d2004 	ldr	r2, [sp, #4]
    82e8:	e5832000 	str	r2, [r3]
    82ec:	e59d2004 	ldr	r2, [sp, #4]
    82f0:	e59d3000 	ldr	r3, [sp]
    82f4:	e0822003 	add	r2, r2, r3
    82f8:	e59f300c 	ldr	r3, [pc, #12]	; 830c <phyAlloc_init+0x38>
    82fc:	e5832000 	str	r2, [r3]
    8300:	e28dd008 	add	sp, sp, #8
    8304:	e12fff1e 	bx	lr
    8308:	000094d4 	ldrdeq	r9, [r0], -r4
    830c:	000094d8 	ldrdeq	r9, [r0], -r8

00008310 <set_tick_and_enable_timer>:
    8310:	e52de004 	push	{lr}		; (str lr, [sp, #-4]!)
    8314:	e24dd00c 	sub	sp, sp, #12
    8318:	e59f0030 	ldr	r0, [pc, #48]	; 8350 <set_tick_and_enable_timer+0x40>
    831c:	ebffff64 	bl	80b4 <GET32>
    8320:	e58d0004 	str	r0, [sp, #4]
    8324:	e59d3004 	ldr	r3, [sp, #4]
    8328:	e2833702 	add	r3, r3, #524288	; 0x80000
    832c:	e58d3004 	str	r3, [sp, #4]
    8330:	e59f001c 	ldr	r0, [pc, #28]	; 8354 <set_tick_and_enable_timer+0x44>
    8334:	e59d1004 	ldr	r1, [sp, #4]
    8338:	ebffff57 	bl	809c <PUT32>
    833c:	e59f0014 	ldr	r0, [pc, #20]	; 8358 <set_tick_and_enable_timer+0x48>
    8340:	e3a01002 	mov	r1, #2
    8344:	ebffff54 	bl	809c <PUT32>
    8348:	e28dd00c 	add	sp, sp, #12
    834c:	e8bd8000 	pop	{pc}
    8350:	20003004 	andcs	r3, r0, r4
    8354:	20003010 	andcs	r3, r0, r0, lsl r0
    8358:	20003000 	andcs	r3, r0, r0

0000835c <set_tick_and_enable_timer_priority>:
    835c:	e52de004 	push	{lr}		; (str lr, [sp, #-4]!)
    8360:	e24dd014 	sub	sp, sp, #20
    8364:	e58d0004 	str	r0, [sp, #4]
    8368:	e59f0038 	ldr	r0, [pc, #56]	; 83a8 <set_tick_and_enable_timer_priority+0x4c>
    836c:	ebffff50 	bl	80b4 <GET32>
    8370:	e58d000c 	str	r0, [sp, #12]
    8374:	e59d3004 	ldr	r3, [sp, #4]
    8378:	e1a03983 	lsl	r3, r3, #19
    837c:	e59d200c 	ldr	r2, [sp, #12]
    8380:	e0823003 	add	r3, r2, r3
    8384:	e58d300c 	str	r3, [sp, #12]
    8388:	e59f001c 	ldr	r0, [pc, #28]	; 83ac <set_tick_and_enable_timer_priority+0x50>
    838c:	e59d100c 	ldr	r1, [sp, #12]
    8390:	ebffff41 	bl	809c <PUT32>
    8394:	e59f0014 	ldr	r0, [pc, #20]	; 83b0 <set_tick_and_enable_timer_priority+0x54>
    8398:	e3a01002 	mov	r1, #2
    839c:	ebffff3e 	bl	809c <PUT32>
    83a0:	e28dd014 	add	sp, sp, #20
    83a4:	e8bd8000 	pop	{pc}
    83a8:	20003004 	andcs	r3, r0, r4
    83ac:	20003010 	andcs	r3, r0, r0, lsl r0
    83b0:	20003000 	andcs	r3, r0, r0

000083b4 <led_off>:
    83b4:	e92d4008 	push	{r3, lr}
    83b8:	e59f0008 	ldr	r0, [pc, #8]	; 83c8 <led_off+0x14>
    83bc:	e3a01801 	mov	r1, #65536	; 0x10000
    83c0:	ebffff35 	bl	809c <PUT32>
    83c4:	e8bd8008 	pop	{r3, pc}
    83c8:	2020001c 	eorcs	r0, r0, ip, lsl r0

000083cc <led_on>:
    83cc:	e92d4008 	push	{r3, lr}
    83d0:	e59f0008 	ldr	r0, [pc, #8]	; 83e0 <led_on+0x14>
    83d4:	e3a01801 	mov	r1, #65536	; 0x10000
    83d8:	ebffff2f 	bl	809c <PUT32>
    83dc:	e8bd8008 	pop	{r3, pc}
    83e0:	20200028 	eorcs	r0, r0, r8, lsr #32

000083e4 <init_hw>:
    83e4:	e52de004 	push	{lr}		; (str lr, [sp, #-4]!)
    83e8:	e24dd00c 	sub	sp, sp, #12
    83ec:	e59f0098 	ldr	r0, [pc, #152]	; 848c <init_hw+0xa8>
    83f0:	ebffff2f 	bl	80b4 <GET32>
    83f4:	e58d0004 	str	r0, [sp, #4]
    83f8:	e59d3004 	ldr	r3, [sp, #4]
    83fc:	e3c33707 	bic	r3, r3, #1835008	; 0x1c0000
    8400:	e58d3004 	str	r3, [sp, #4]
    8404:	e59d3004 	ldr	r3, [sp, #4]
    8408:	e3833701 	orr	r3, r3, #262144	; 0x40000
    840c:	e58d3004 	str	r3, [sp, #4]
    8410:	e59f0074 	ldr	r0, [pc, #116]	; 848c <init_hw+0xa8>
    8414:	e59d1004 	ldr	r1, [sp, #4]
    8418:	ebffff1f 	bl	809c <PUT32>
    841c:	e59f006c 	ldr	r0, [pc, #108]	; 8490 <init_hw+0xac>
    8420:	e3a01801 	mov	r1, #65536	; 0x10000
    8424:	ebffff1c 	bl	809c <PUT32>
    8428:	e59f0064 	ldr	r0, [pc, #100]	; 8494 <init_hw+0xb0>
    842c:	ebffff20 	bl	80b4 <GET32>
    8430:	e58d0000 	str	r0, [sp]
    8434:	e59d3000 	ldr	r3, [sp]
    8438:	e2833702 	add	r3, r3, #524288	; 0x80000
    843c:	e58d3000 	str	r3, [sp]
    8440:	e59f0050 	ldr	r0, [pc, #80]	; 8498 <init_hw+0xb4>
    8444:	e59d1000 	ldr	r1, [sp]
    8448:	ebffff13 	bl	809c <PUT32>
    844c:	e59f0048 	ldr	r0, [pc, #72]	; 849c <init_hw+0xb8>
    8450:	e3a01002 	mov	r1, #2
    8454:	ebffff10 	bl	809c <PUT32>
    8458:	e59f0040 	ldr	r0, [pc, #64]	; 84a0 <init_hw+0xbc>
    845c:	e3a01002 	mov	r1, #2
    8460:	ebffff0d 	bl	809c <PUT32>
    8464:	e92d0001 	push	{r0}
    8468:	e10f0000 	mrs	r0, CPSR
    846c:	e3800080 	orr	r0, r0, #128	; 0x80
    8470:	e121f000 	msr	CPSR_c, r0
    8474:	e8bd0001 	pop	{r0}
    8478:	e3a00805 	mov	r0, #327680	; 0x50000
    847c:	e3a01a32 	mov	r1, #204800	; 0x32000
    8480:	ebffff93 	bl	82d4 <phyAlloc_init>
    8484:	e28dd00c 	add	sp, sp, #12
    8488:	e8bd8000 	pop	{pc}
    848c:	20200004 	eorcs	r0, r0, r4
    8490:	2020001c 	eorcs	r0, r0, ip, lsl r0
    8494:	20003004 	andcs	r3, r0, r4
    8498:	20003010 	andcs	r3, r0, r0, lsl r0
    849c:	20003000 	andcs	r3, r0, r0
    84a0:	2000b210 	andcs	fp, r0, r0, lsl r2

000084a4 <init_ctx>:
    84a4:	e52de004 	push	{lr}		; (str lr, [sp, #-4]!)
    84a8:	e24dd014 	sub	sp, sp, #20
    84ac:	e58d000c 	str	r0, [sp, #12]
    84b0:	e58d1008 	str	r1, [sp, #8]
    84b4:	e58d2004 	str	r2, [sp, #4]
    84b8:	e59d0004 	ldr	r0, [sp, #4]
    84bc:	ebffff45 	bl	81d8 <phyAlloc_alloc>
    84c0:	e1a02000 	mov	r2, r0
    84c4:	e59d300c 	ldr	r3, [sp, #12]
    84c8:	e5832000 	str	r2, [r3]
    84cc:	e59d300c 	ldr	r3, [sp, #12]
    84d0:	e5932000 	ldr	r2, [r3]
    84d4:	e59d3004 	ldr	r3, [sp, #4]
    84d8:	e1a03103 	lsl	r3, r3, #2
    84dc:	e0822003 	add	r2, r2, r3
    84e0:	e59d300c 	ldr	r3, [sp, #12]
    84e4:	e5832000 	str	r2, [r3]
    84e8:	e59d300c 	ldr	r3, [sp, #12]
    84ec:	e5933000 	ldr	r3, [r3]
    84f0:	e2432004 	sub	r2, r3, #4
    84f4:	e59d300c 	ldr	r3, [sp, #12]
    84f8:	e5832000 	str	r2, [r3]
    84fc:	e59d300c 	ldr	r3, [sp, #12]
    8500:	e5933000 	ldr	r3, [r3]
    8504:	e3a02053 	mov	r2, #83	; 0x53
    8508:	e5832000 	str	r2, [r3]
    850c:	e59d300c 	ldr	r3, [sp, #12]
    8510:	e5933000 	ldr	r3, [r3]
    8514:	e2432004 	sub	r2, r3, #4
    8518:	e59d300c 	ldr	r3, [sp, #12]
    851c:	e5832000 	str	r2, [r3]
    8520:	e59d300c 	ldr	r3, [sp, #12]
    8524:	e5933000 	ldr	r3, [r3]
    8528:	e59f2028 	ldr	r2, [pc, #40]	; 8558 <init_ctx+0xb4>
    852c:	e5832000 	str	r2, [r3]
    8530:	e59d300c 	ldr	r3, [sp, #12]
    8534:	e5933000 	ldr	r3, [r3]
    8538:	e2432034 	sub	r2, r3, #52	; 0x34
    853c:	e59d300c 	ldr	r3, [sp, #12]
    8540:	e5832000 	str	r2, [r3]
    8544:	e59d300c 	ldr	r3, [sp, #12]
    8548:	e59d2008 	ldr	r2, [sp, #8]
    854c:	e5832004 	str	r2, [r3, #4]
    8550:	e28dd014 	add	sp, sp, #20
    8554:	e8bd8000 	pop	{pc}
    8558:	000086bc 			; <UNDEFINED> instruction: 0x000086bc

0000855c <init_pcb>:
    855c:	e52de004 	push	{lr}		; (str lr, [sp, #-4]!)
    8560:	e24dd014 	sub	sp, sp, #20
    8564:	e58d000c 	str	r0, [sp, #12]
    8568:	e58d1008 	str	r1, [sp, #8]
    856c:	e58d2004 	str	r2, [sp, #4]
    8570:	e58d3000 	str	r3, [sp]
    8574:	e3a00008 	mov	r0, #8
    8578:	ebffff16 	bl	81d8 <phyAlloc_alloc>
    857c:	e1a02000 	mov	r2, r0
    8580:	e59d300c 	ldr	r3, [sp, #12]
    8584:	e5832004 	str	r2, [r3, #4]
    8588:	e59d300c 	ldr	r3, [sp, #12]
    858c:	e5933004 	ldr	r3, [r3, #4]
    8590:	e1a00003 	mov	r0, r3
    8594:	e59f1030 	ldr	r1, [pc, #48]	; 85cc <init_pcb+0x70>
    8598:	e59d2004 	ldr	r2, [sp, #4]
    859c:	ebffffc0 	bl	84a4 <init_ctx>
    85a0:	e59d300c 	ldr	r3, [sp, #12]
    85a4:	e3a02001 	mov	r2, #1
    85a8:	e5c32000 	strb	r2, [r3]
    85ac:	e59d300c 	ldr	r3, [sp, #12]
    85b0:	e59d2008 	ldr	r2, [sp, #8]
    85b4:	e5832010 	str	r2, [r3, #16]
    85b8:	e59d300c 	ldr	r3, [sp, #12]
    85bc:	e59d2000 	ldr	r2, [sp]
    85c0:	e5832014 	str	r2, [r3, #20]
    85c4:	e28dd014 	add	sp, sp, #20
    85c8:	e8bd8000 	pop	{pc}
    85cc:	000086bc 			; <UNDEFINED> instruction: 0x000086bc

000085d0 <create_process>:
    85d0:	e52de004 	push	{lr}		; (str lr, [sp, #-4]!)
    85d4:	e24dd01c 	sub	sp, sp, #28
    85d8:	e58d000c 	str	r0, [sp, #12]
    85dc:	e58d1008 	str	r1, [sp, #8]
    85e0:	e58d2004 	str	r2, [sp, #4]
    85e4:	e58d3000 	str	r3, [sp]
    85e8:	e92d0001 	push	{r0}
    85ec:	e10f0000 	mrs	r0, CPSR
    85f0:	e3800080 	orr	r0, r0, #128	; 0x80
    85f4:	e121f000 	msr	CPSR_c, r0
    85f8:	e8bd0001 	pop	{r0}
    85fc:	e3a00018 	mov	r0, #24
    8600:	ebfffef4 	bl	81d8 <phyAlloc_alloc>
    8604:	e58d0014 	str	r0, [sp, #20]
    8608:	e59f30a4 	ldr	r3, [pc, #164]	; 86b4 <create_process+0xe4>
    860c:	e5933000 	ldr	r3, [r3]
    8610:	e3530000 	cmp	r3, #0
    8614:	1a00000d 	bne	8650 <create_process+0x80>
    8618:	e59f3098 	ldr	r3, [pc, #152]	; 86b8 <create_process+0xe8>
    861c:	e5933000 	ldr	r3, [r3]
    8620:	e3530000 	cmp	r3, #0
    8624:	1a000009 	bne	8650 <create_process+0x80>
    8628:	e59f3084 	ldr	r3, [pc, #132]	; 86b4 <create_process+0xe4>
    862c:	e59d2014 	ldr	r2, [sp, #20]
    8630:	e5832000 	str	r2, [r3]
    8634:	e59f307c 	ldr	r3, [pc, #124]	; 86b8 <create_process+0xe8>
    8638:	e59d2014 	ldr	r2, [sp, #20]
    863c:	e5832000 	str	r2, [r3]
    8640:	e59d3014 	ldr	r3, [sp, #20]
    8644:	e59d2014 	ldr	r2, [sp, #20]
    8648:	e5832008 	str	r2, [r3, #8]
    864c:	ea00000b 	b	8680 <create_process+0xb0>
    8650:	e59f305c 	ldr	r3, [pc, #92]	; 86b4 <create_process+0xe4>
    8654:	e5933000 	ldr	r3, [r3]
    8658:	e59d2014 	ldr	r2, [sp, #20]
    865c:	e5832008 	str	r2, [r3, #8]
    8660:	e59f304c 	ldr	r3, [pc, #76]	; 86b4 <create_process+0xe4>
    8664:	e59d2014 	ldr	r2, [sp, #20]
    8668:	e5832000 	str	r2, [r3]
    866c:	e59f3040 	ldr	r3, [pc, #64]	; 86b4 <create_process+0xe4>
    8670:	e5933000 	ldr	r3, [r3]
    8674:	e59f203c 	ldr	r2, [pc, #60]	; 86b8 <create_process+0xe8>
    8678:	e5922000 	ldr	r2, [r2]
    867c:	e5832008 	str	r2, [r3, #8]
    8680:	e59d0014 	ldr	r0, [sp, #20]
    8684:	e59d100c 	ldr	r1, [sp, #12]
    8688:	e59d2004 	ldr	r2, [sp, #4]
    868c:	e59d3000 	ldr	r3, [sp]
    8690:	ebffffb1 	bl	855c <init_pcb>
    8694:	ebffff1d 	bl	8310 <set_tick_and_enable_timer>
    8698:	e92d0001 	push	{r0}
    869c:	e10f0000 	mrs	r0, CPSR
    86a0:	e3c00080 	bic	r0, r0, #128	; 0x80
    86a4:	e121f000 	msr	CPSR_c, r0
    86a8:	e8bd0001 	pop	{r0}
    86ac:	e28dd01c 	add	sp, sp, #28
    86b0:	e8bd8000 	pop	{pc}
    86b4:	000094e4 	andeq	r9, r0, r4, ror #9
    86b8:	000094e0 	andeq	r9, r0, r0, ror #9

000086bc <start_current_process>:
    86bc:	e92d4008 	push	{r3, lr}
    86c0:	e59f3020 	ldr	r3, [pc, #32]	; 86e8 <start_current_process+0x2c>
    86c4:	e5933000 	ldr	r3, [r3]
    86c8:	e5933010 	ldr	r3, [r3, #16]
    86cc:	e12fff33 	blx	r3
    86d0:	e59f3010 	ldr	r3, [pc, #16]	; 86e8 <start_current_process+0x2c>
    86d4:	e5933000 	ldr	r3, [r3]
    86d8:	e3a02005 	mov	r2, #5
    86dc:	e5c32000 	strb	r2, [r3]
    86e0:	eb000071 	bl	88ac <ctx_switch>
    86e4:	e8bd8008 	pop	{r3, pc}
    86e8:	000094e8 	andeq	r9, r0, r8, ror #9

000086ec <elect>:
    86ec:	e52de004 	push	{lr}		; (str lr, [sp, #-4]!)
    86f0:	e24dd00c 	sub	sp, sp, #12
    86f4:	e3a03000 	mov	r3, #0
    86f8:	e58d3004 	str	r3, [sp, #4]
    86fc:	ea000030 	b	87c4 <elect+0xd8>
    8700:	e59f310c 	ldr	r3, [pc, #268]	; 8814 <elect+0x128>
    8704:	e5933000 	ldr	r3, [r3]
    8708:	e5933008 	ldr	r3, [r3, #8]
    870c:	e58d3004 	str	r3, [sp, #4]
    8710:	e59f30fc 	ldr	r3, [pc, #252]	; 8814 <elect+0x128>
    8714:	e5933000 	ldr	r3, [r3]
    8718:	e59f20f4 	ldr	r2, [pc, #244]	; 8814 <elect+0x128>
    871c:	e5922000 	ldr	r2, [r2]
    8720:	e5922008 	ldr	r2, [r2, #8]
    8724:	e5922008 	ldr	r2, [r2, #8]
    8728:	e5832008 	str	r2, [r3, #8]
    872c:	e59f30e0 	ldr	r3, [pc, #224]	; 8814 <elect+0x128>
    8730:	e5933000 	ldr	r3, [r3]
    8734:	e5932008 	ldr	r2, [r3, #8]
    8738:	e59f30d4 	ldr	r3, [pc, #212]	; 8814 <elect+0x128>
    873c:	e5933000 	ldr	r3, [r3]
    8740:	e1520003 	cmp	r2, r3
    8744:	1a000008 	bne	876c <elect+0x80>
    8748:	e59f30c8 	ldr	r3, [pc, #200]	; 8818 <elect+0x12c>
    874c:	e5932000 	ldr	r2, [r3]
    8750:	e59f30bc 	ldr	r3, [pc, #188]	; 8814 <elect+0x128>
    8754:	e5832000 	str	r2, [r3]
    8758:	e59f30b4 	ldr	r3, [pc, #180]	; 8814 <elect+0x128>
    875c:	e5933000 	ldr	r3, [r3]
    8760:	e59f20b0 	ldr	r2, [pc, #176]	; 8818 <elect+0x12c>
    8764:	e5922000 	ldr	r2, [r2]
    8768:	e5832008 	str	r2, [r3, #8]
    876c:	e59d3004 	ldr	r3, [sp, #4]
    8770:	e5932004 	ldr	r2, [r3, #4]
    8774:	e59d3004 	ldr	r3, [sp, #4]
    8778:	e5933004 	ldr	r3, [r3, #4]
    877c:	e5933000 	ldr	r3, [r3]
    8780:	e2433e83 	sub	r3, r3, #2096	; 0x830
    8784:	e2433008 	sub	r3, r3, #8
    8788:	e5823000 	str	r3, [r2]
    878c:	e59d3004 	ldr	r3, [sp, #4]
    8790:	e5933004 	ldr	r3, [r3, #4]
    8794:	e5933000 	ldr	r3, [r3]
    8798:	e1a00003 	mov	r0, r3
    879c:	e3a01c02 	mov	r1, #512	; 0x200
    87a0:	ebfffeb9 	bl	828c <phyAlloc_free>
    87a4:	e59d3004 	ldr	r3, [sp, #4]
    87a8:	e5933004 	ldr	r3, [r3, #4]
    87ac:	e1a00003 	mov	r0, r3
    87b0:	e3a01008 	mov	r1, #8
    87b4:	ebfffeb4 	bl	828c <phyAlloc_free>
    87b8:	e59d0004 	ldr	r0, [sp, #4]
    87bc:	e3a01018 	mov	r1, #24
    87c0:	ebfffeb1 	bl	828c <phyAlloc_free>
    87c4:	e59f3048 	ldr	r3, [pc, #72]	; 8814 <elect+0x128>
    87c8:	e5933000 	ldr	r3, [r3]
    87cc:	e5933008 	ldr	r3, [r3, #8]
    87d0:	e5d33000 	ldrb	r3, [r3]
    87d4:	e3530005 	cmp	r3, #5
    87d8:	0affffc8 	beq	8700 <elect+0x14>
    87dc:	e59f3030 	ldr	r3, [pc, #48]	; 8814 <elect+0x128>
    87e0:	e5933000 	ldr	r3, [r3]
    87e4:	e5932008 	ldr	r2, [r3, #8]
    87e8:	e59f3028 	ldr	r3, [pc, #40]	; 8818 <elect+0x12c>
    87ec:	e5933000 	ldr	r3, [r3]
    87f0:	e1520003 	cmp	r2, r3
    87f4:	0a000004 	beq	880c <elect+0x120>
    87f8:	e59f3014 	ldr	r3, [pc, #20]	; 8814 <elect+0x128>
    87fc:	e5933000 	ldr	r3, [r3]
    8800:	e5932008 	ldr	r2, [r3, #8]
    8804:	e59f3008 	ldr	r3, [pc, #8]	; 8814 <elect+0x128>
    8808:	e5832000 	str	r2, [r3]
    880c:	e28dd00c 	add	sp, sp, #12
    8810:	e8bd8000 	pop	{pc}
    8814:	000094e8 	andeq	r9, r0, r8, ror #9
    8818:	000094dc 	ldrdeq	r9, [r0], -ip

0000881c <start_sched>:
    881c:	e92d4008 	push	{r3, lr}
    8820:	e3a00018 	mov	r0, #24
    8824:	ebfffe6b 	bl	81d8 <phyAlloc_alloc>
    8828:	e1a02000 	mov	r2, r0
    882c:	e59f306c 	ldr	r3, [pc, #108]	; 88a0 <start_sched+0x84>
    8830:	e5832000 	str	r2, [r3]
    8834:	e59f3064 	ldr	r3, [pc, #100]	; 88a0 <start_sched+0x84>
    8838:	e5933000 	ldr	r3, [r3]
    883c:	e1a00003 	mov	r0, r3
    8840:	e3a01000 	mov	r1, #0
    8844:	e3a02c02 	mov	r2, #512	; 0x200
    8848:	e3a03001 	mov	r3, #1
    884c:	ebffff42 	bl	855c <init_pcb>
    8850:	e59f3048 	ldr	r3, [pc, #72]	; 88a0 <start_sched+0x84>
    8854:	e5933000 	ldr	r3, [r3]
    8858:	e59f2044 	ldr	r2, [pc, #68]	; 88a4 <start_sched+0x88>
    885c:	e5922000 	ldr	r2, [r2]
    8860:	e5832008 	str	r2, [r3, #8]
    8864:	e59f3034 	ldr	r3, [pc, #52]	; 88a0 <start_sched+0x84>
    8868:	e5932000 	ldr	r2, [r3]
    886c:	e59f3034 	ldr	r3, [pc, #52]	; 88a8 <start_sched+0x8c>
    8870:	e5832000 	str	r2, [r3]
    8874:	e59f3024 	ldr	r3, [pc, #36]	; 88a0 <start_sched+0x84>
    8878:	e5933000 	ldr	r3, [r3]
    887c:	e5933014 	ldr	r3, [r3, #20]
    8880:	e1a00003 	mov	r0, r3
    8884:	ebfffeb4 	bl	835c <set_tick_and_enable_timer_priority>
    8888:	e92d0001 	push	{r0}
    888c:	e10f0000 	mrs	r0, CPSR
    8890:	e3c00080 	bic	r0, r0, #128	; 0x80
    8894:	e121f000 	msr	CPSR_c, r0
    8898:	e8bd0001 	pop	{r0}
    889c:	e8bd8008 	pop	{r3, pc}
    88a0:	000094dc 	ldrdeq	r9, [r0], -ip
    88a4:	000094e0 	andeq	r9, r0, r0, ror #9
    88a8:	000094e8 	andeq	r9, r0, r8, ror #9

000088ac <ctx_switch>:
    88ac:	e92d0001 	push	{r0}
    88b0:	e10f0000 	mrs	r0, CPSR
    88b4:	e3800080 	orr	r0, r0, #128	; 0x80
    88b8:	e121f000 	msr	CPSR_c, r0
    88bc:	e8bd0001 	pop	{r0}
    88c0:	e92d1fff 	push	{r0, r1, r2, r3, r4, r5, r6, r7, r8, r9, sl, fp, ip}
    88c4:	e59f306c 	ldr	r3, [pc, #108]	; 8938 <ctx_switch+0x8c>
    88c8:	e5933000 	ldr	r3, [r3]
    88cc:	e5933004 	ldr	r3, [r3, #4]
    88d0:	e1a0200e 	mov	r2, lr
    88d4:	e5832004 	str	r2, [r3, #4]
    88d8:	e59f3058 	ldr	r3, [pc, #88]	; 8938 <ctx_switch+0x8c>
    88dc:	e5933000 	ldr	r3, [r3]
    88e0:	e5933004 	ldr	r3, [r3, #4]
    88e4:	e1a0200d 	mov	r2, sp
    88e8:	e5832000 	str	r2, [r3]
    88ec:	ebffff7e 	bl	86ec <elect>
    88f0:	e59f3040 	ldr	r3, [pc, #64]	; 8938 <ctx_switch+0x8c>
    88f4:	e5933000 	ldr	r3, [r3]
    88f8:	e5933004 	ldr	r3, [r3, #4]
    88fc:	e5933000 	ldr	r3, [r3]
    8900:	e1a0d003 	mov	sp, r3
    8904:	e59f302c 	ldr	r3, [pc, #44]	; 8938 <ctx_switch+0x8c>
    8908:	e5933000 	ldr	r3, [r3]
    890c:	e5933004 	ldr	r3, [r3, #4]
    8910:	e5933004 	ldr	r3, [r3, #4]
    8914:	e1a0e003 	mov	lr, r3
    8918:	ebfffe7c 	bl	8310 <set_tick_and_enable_timer>
    891c:	e8bd1fff 	pop	{r0, r1, r2, r3, r4, r5, r6, r7, r8, r9, sl, fp, ip}
    8920:	e92d0001 	push	{r0}
    8924:	e10f0000 	mrs	r0, CPSR
    8928:	e3c00080 	bic	r0, r0, #128	; 0x80
    892c:	e121f000 	msr	CPSR_c, r0
    8930:	e8bd0001 	pop	{r0}
    8934:	e12fff1e 	bx	lr
    8938:	000094e8 	andeq	r9, r0, r8, ror #9

0000893c <ctx_switch_from_irq>:
    893c:	e92d0001 	push	{r0}
    8940:	e10f0000 	mrs	r0, CPSR
    8944:	e3800080 	orr	r0, r0, #128	; 0x80
    8948:	e121f000 	msr	CPSR_c, r0
    894c:	e8bd0001 	pop	{r0}
    8950:	e24ee004 	sub	lr, lr, #4
    8954:	f96d0513 	srsdb	sp!, #19
    8958:	f1020013 	cps	#19
    895c:	e92d1fff 	push	{r0, r1, r2, r3, r4, r5, r6, r7, r8, r9, sl, fp, ip}
    8960:	e59f309c 	ldr	r3, [pc, #156]	; 8a04 <ctx_switch_from_irq+0xc8>
    8964:	e5933000 	ldr	r3, [r3]
    8968:	e5933004 	ldr	r3, [r3, #4]
    896c:	e1a0200e 	mov	r2, lr
    8970:	e5832004 	str	r2, [r3, #4]
    8974:	e59f3088 	ldr	r3, [pc, #136]	; 8a04 <ctx_switch_from_irq+0xc8>
    8978:	e5933000 	ldr	r3, [r3]
    897c:	e5933004 	ldr	r3, [r3, #4]
    8980:	e1a0200d 	mov	r2, sp
    8984:	e5832000 	str	r2, [r3]
    8988:	e59f3074 	ldr	r3, [pc, #116]	; 8a04 <ctx_switch_from_irq+0xc8>
    898c:	e5933000 	ldr	r3, [r3]
    8990:	e3a02001 	mov	r2, #1
    8994:	e5c32000 	strb	r2, [r3]
    8998:	ebffff53 	bl	86ec <elect>
    899c:	e59f3060 	ldr	r3, [pc, #96]	; 8a04 <ctx_switch_from_irq+0xc8>
    89a0:	e5933000 	ldr	r3, [r3]
    89a4:	e3a02004 	mov	r2, #4
    89a8:	e5c32000 	strb	r2, [r3]
    89ac:	e59f3050 	ldr	r3, [pc, #80]	; 8a04 <ctx_switch_from_irq+0xc8>
    89b0:	e5933000 	ldr	r3, [r3]
    89b4:	e5933004 	ldr	r3, [r3, #4]
    89b8:	e5933000 	ldr	r3, [r3]
    89bc:	e1a0d003 	mov	sp, r3
    89c0:	e59f303c 	ldr	r3, [pc, #60]	; 8a04 <ctx_switch_from_irq+0xc8>
    89c4:	e5933000 	ldr	r3, [r3]
    89c8:	e5933004 	ldr	r3, [r3, #4]
    89cc:	e5933004 	ldr	r3, [r3, #4]
    89d0:	e1a0e003 	mov	lr, r3
    89d4:	e59f3028 	ldr	r3, [pc, #40]	; 8a04 <ctx_switch_from_irq+0xc8>
    89d8:	e5933000 	ldr	r3, [r3]
    89dc:	e5933014 	ldr	r3, [r3, #20]
    89e0:	e1a00003 	mov	r0, r3
    89e4:	ebfffe5c 	bl	835c <set_tick_and_enable_timer_priority>
    89e8:	e8bd1fff 	pop	{r0, r1, r2, r3, r4, r5, r6, r7, r8, r9, sl, fp, ip}
    89ec:	e92d0001 	push	{r0}
    89f0:	e10f0000 	mrs	r0, CPSR
    89f4:	e3c00080 	bic	r0, r0, #128	; 0x80
    89f8:	e121f000 	msr	CPSR_c, r0
    89fc:	e8bd0001 	pop	{r0}
    8a00:	f8bd0a00 	rfeia	sp!
    8a04:	000094e8 	andeq	r9, r0, r8, ror #9

00008a08 <mmio_write>:
    8a08:	e24dd010 	sub	sp, sp, #16
    8a0c:	e58d0004 	str	r0, [sp, #4]
    8a10:	e58d1000 	str	r1, [sp]
    8a14:	e59d3004 	ldr	r3, [sp, #4]
    8a18:	e58d300c 	str	r3, [sp, #12]
    8a1c:	e59d300c 	ldr	r3, [sp, #12]
    8a20:	e59d2000 	ldr	r2, [sp]
    8a24:	e5832000 	str	r2, [r3]
    8a28:	e28dd010 	add	sp, sp, #16
    8a2c:	e12fff1e 	bx	lr

00008a30 <mmio_read>:
    8a30:	e52d4004 	push	{r4}		; (str r4, [sp, #-4]!)
    8a34:	e24dd014 	sub	sp, sp, #20
    8a38:	e58d0004 	str	r0, [sp, #4]
    8a3c:	e59d3004 	ldr	r3, [sp, #4]
    8a40:	e58d300c 	str	r3, [sp, #12]
    8a44:	e59d300c 	ldr	r3, [sp, #12]
    8a48:	e5934000 	ldr	r4, [r3]
    8a4c:	e58d4008 	str	r4, [sp, #8]
    8a50:	e59d3008 	ldr	r3, [sp, #8]
    8a54:	e1a00003 	mov	r0, r3
    8a58:	e28dd014 	add	sp, sp, #20
    8a5c:	e8bd0010 	pop	{r4}
    8a60:	e12fff1e 	bx	lr

00008a64 <MailboxWrite>:
    8a64:	e52de004 	push	{lr}		; (str lr, [sp, #-4]!)
    8a68:	e24dd014 	sub	sp, sp, #20
    8a6c:	e58d0004 	str	r0, [sp, #4]
    8a70:	e58d1000 	str	r1, [sp]
    8a74:	e59d3000 	ldr	r3, [sp]
    8a78:	e353000a 	cmp	r3, #10
    8a7c:	8a000012 	bhi	8acc <MailboxWrite+0x68>
    8a80:	e3a03000 	mov	r3, #0
    8a84:	ee073fba 	mcr	15, 0, r3, cr7, cr10, {5}
    8a88:	e59f0048 	ldr	r0, [pc, #72]	; 8ad8 <MailboxWrite+0x74>
    8a8c:	ebffffe7 	bl	8a30 <mmio_read>
    8a90:	e58d000c 	str	r0, [sp, #12]
    8a94:	e3a03000 	mov	r3, #0
    8a98:	ee073fba 	mcr	15, 0, r3, cr7, cr10, {5}
    8a9c:	e59d300c 	ldr	r3, [sp, #12]
    8aa0:	e3530000 	cmp	r3, #0
    8aa4:	bafffff5 	blt	8a80 <MailboxWrite+0x1c>
    8aa8:	e3a03000 	mov	r3, #0
    8aac:	ee073fba 	mcr	15, 0, r3, cr7, cr10, {5}
    8ab0:	e59d2004 	ldr	r2, [sp, #4]
    8ab4:	e59d3000 	ldr	r3, [sp]
    8ab8:	e1823003 	orr	r3, r2, r3
    8abc:	e59f0018 	ldr	r0, [pc, #24]	; 8adc <MailboxWrite+0x78>
    8ac0:	e1a01003 	mov	r1, r3
    8ac4:	ebffffcf 	bl	8a08 <mmio_write>
    8ac8:	ea000000 	b	8ad0 <MailboxWrite+0x6c>
    8acc:	e1a00000 	nop			; (mov r0, r0)
    8ad0:	e28dd014 	add	sp, sp, #20
    8ad4:	e8bd8000 	pop	{pc}
    8ad8:	2000b898 	mulcs	r0, r8, r8
    8adc:	2000b8a0 	andcs	fp, r0, r0, lsr #17

00008ae0 <MailboxRead>:
    8ae0:	e52de004 	push	{lr}		; (str lr, [sp, #-4]!)
    8ae4:	e24dd014 	sub	sp, sp, #20
    8ae8:	e58d0004 	str	r0, [sp, #4]
    8aec:	e59d3004 	ldr	r3, [sp, #4]
    8af0:	e353000a 	cmp	r3, #10
    8af4:	9a000002 	bls	8b04 <MailboxRead+0x24>
    8af8:	e3a03000 	mov	r3, #0
    8afc:	ea000019 	b	8b68 <MailboxRead+0x88>
    8b00:	e1a00000 	nop			; (mov r0, r0)
    8b04:	e3a03000 	mov	r3, #0
    8b08:	ee073fba 	mcr	15, 0, r3, cr7, cr10, {5}
    8b0c:	e59f0060 	ldr	r0, [pc, #96]	; 8b74 <MailboxRead+0x94>
    8b10:	ebffffc6 	bl	8a30 <mmio_read>
    8b14:	e58d000c 	str	r0, [sp, #12]
    8b18:	e3a03000 	mov	r3, #0
    8b1c:	ee073fba 	mcr	15, 0, r3, cr7, cr10, {5}
    8b20:	e59d300c 	ldr	r3, [sp, #12]
    8b24:	e2033101 	and	r3, r3, #1073741824	; 0x40000000
    8b28:	e3530000 	cmp	r3, #0
    8b2c:	1afffff4 	bne	8b04 <MailboxRead+0x24>
    8b30:	e3a03000 	mov	r3, #0
    8b34:	ee073fba 	mcr	15, 0, r3, cr7, cr10, {5}
    8b38:	e59f0038 	ldr	r0, [pc, #56]	; 8b78 <MailboxRead+0x98>
    8b3c:	ebffffbb 	bl	8a30 <mmio_read>
    8b40:	e58d000c 	str	r0, [sp, #12]
    8b44:	e3a03000 	mov	r3, #0
    8b48:	ee073fba 	mcr	15, 0, r3, cr7, cr10, {5}
    8b4c:	e59d300c 	ldr	r3, [sp, #12]
    8b50:	e203200f 	and	r2, r3, #15
    8b54:	e59d3004 	ldr	r3, [sp, #4]
    8b58:	e1520003 	cmp	r2, r3
    8b5c:	1affffe7 	bne	8b00 <MailboxRead+0x20>
    8b60:	e59d300c 	ldr	r3, [sp, #12]
    8b64:	e203300f 	and	r3, r3, #15
    8b68:	e1a00003 	mov	r0, r3
    8b6c:	e28dd014 	add	sp, sp, #20
    8b70:	e8bd8000 	pop	{pc}
    8b74:	2000b898 	mulcs	r0, r8, r8
    8b78:	2000b880 	andcs	fp, r0, r0, lsl #17

00008b7c <FramebufferInitialize>:
    8b7c:	e92d4810 	push	{r4, fp, lr}
    8b80:	e28db008 	add	fp, sp, #8
    8b84:	e24dd014 	sub	sp, sp, #20
    8b88:	e24dde1a 	sub	sp, sp, #416	; 0x1a0
    8b8c:	e1a0300d 	mov	r3, sp
    8b90:	e283300f 	add	r3, r3, #15
    8b94:	e1a03223 	lsr	r3, r3, #4
    8b98:	e1a04203 	lsl	r4, r3, #4
    8b9c:	e3a03000 	mov	r3, #0
    8ba0:	e50b3014 	str	r3, [fp, #-20]
    8ba4:	e59f352c 	ldr	r3, [pc, #1324]	; 90d8 <FramebufferInitialize+0x55c>
    8ba8:	e3a02018 	mov	r2, #24
    8bac:	e5832000 	str	r2, [r3]
    8bb0:	e3a03020 	mov	r3, #32
    8bb4:	e5843000 	str	r3, [r4]
    8bb8:	e3a03000 	mov	r3, #0
    8bbc:	e5843004 	str	r3, [r4, #4]
    8bc0:	e59f3514 	ldr	r3, [pc, #1300]	; 90dc <FramebufferInitialize+0x560>
    8bc4:	e5843008 	str	r3, [r4, #8]
    8bc8:	e3a03008 	mov	r3, #8
    8bcc:	e584300c 	str	r3, [r4, #12]
    8bd0:	e3a03000 	mov	r3, #0
    8bd4:	e5843010 	str	r3, [r4, #16]
    8bd8:	e3a03000 	mov	r3, #0
    8bdc:	e5843014 	str	r3, [r4, #20]
    8be0:	e3a03000 	mov	r3, #0
    8be4:	e5843018 	str	r3, [r4, #24]
    8be8:	e3a03000 	mov	r3, #0
    8bec:	e584301c 	str	r3, [r4, #28]
    8bf0:	e1a03004 	mov	r3, r4
    8bf4:	e1a00003 	mov	r0, r3
    8bf8:	e3a01008 	mov	r1, #8
    8bfc:	ebffff98 	bl	8a64 <MailboxWrite>
    8c00:	e3a00008 	mov	r0, #8
    8c04:	ebffffb5 	bl	8ae0 <MailboxRead>
    8c08:	e50b0014 	str	r0, [fp, #-20]
    8c0c:	e51b3014 	ldr	r3, [fp, #-20]
    8c10:	e3530000 	cmp	r3, #0
    8c14:	0a000002 	beq	8c24 <FramebufferInitialize+0xa8>
    8c18:	e5943004 	ldr	r3, [r4, #4]
    8c1c:	e3530102 	cmp	r3, #-2147483648	; 0x80000000
    8c20:	0a000001 	beq	8c2c <FramebufferInitialize+0xb0>
    8c24:	e3a03000 	mov	r3, #0
    8c28:	ea000127 	b	90cc <FramebufferInitialize+0x550>
    8c2c:	e5942014 	ldr	r2, [r4, #20]
    8c30:	e59f34a8 	ldr	r3, [pc, #1192]	; 90e0 <FramebufferInitialize+0x564>
    8c34:	e5832000 	str	r2, [r3]
    8c38:	e5942018 	ldr	r2, [r4, #24]
    8c3c:	e59f34a0 	ldr	r3, [pc, #1184]	; 90e4 <FramebufferInitialize+0x568>
    8c40:	e5832000 	str	r2, [r3]
    8c44:	e3a03001 	mov	r3, #1
    8c48:	e50b3010 	str	r3, [fp, #-16]
    8c4c:	e51b3010 	ldr	r3, [fp, #-16]
    8c50:	e3a02000 	mov	r2, #0
    8c54:	e7842103 	str	r2, [r4, r3, lsl #2]
    8c58:	e51b3010 	ldr	r3, [fp, #-16]
    8c5c:	e2833001 	add	r3, r3, #1
    8c60:	e50b3010 	str	r3, [fp, #-16]
    8c64:	e51b3010 	ldr	r3, [fp, #-16]
    8c68:	e59f2478 	ldr	r2, [pc, #1144]	; 90e8 <FramebufferInitialize+0x56c>
    8c6c:	e7842103 	str	r2, [r4, r3, lsl #2]
    8c70:	e51b3010 	ldr	r3, [fp, #-16]
    8c74:	e2833001 	add	r3, r3, #1
    8c78:	e50b3010 	str	r3, [fp, #-16]
    8c7c:	e51b3010 	ldr	r3, [fp, #-16]
    8c80:	e3a02008 	mov	r2, #8
    8c84:	e7842103 	str	r2, [r4, r3, lsl #2]
    8c88:	e51b3010 	ldr	r3, [fp, #-16]
    8c8c:	e2833001 	add	r3, r3, #1
    8c90:	e50b3010 	str	r3, [fp, #-16]
    8c94:	e51b3010 	ldr	r3, [fp, #-16]
    8c98:	e3a02008 	mov	r2, #8
    8c9c:	e7842103 	str	r2, [r4, r3, lsl #2]
    8ca0:	e51b3010 	ldr	r3, [fp, #-16]
    8ca4:	e2833001 	add	r3, r3, #1
    8ca8:	e50b3010 	str	r3, [fp, #-16]
    8cac:	e59f342c 	ldr	r3, [pc, #1068]	; 90e0 <FramebufferInitialize+0x564>
    8cb0:	e5932000 	ldr	r2, [r3]
    8cb4:	e51b3010 	ldr	r3, [fp, #-16]
    8cb8:	e7842103 	str	r2, [r4, r3, lsl #2]
    8cbc:	e51b3010 	ldr	r3, [fp, #-16]
    8cc0:	e2833001 	add	r3, r3, #1
    8cc4:	e50b3010 	str	r3, [fp, #-16]
    8cc8:	e59f3414 	ldr	r3, [pc, #1044]	; 90e4 <FramebufferInitialize+0x568>
    8ccc:	e5932000 	ldr	r2, [r3]
    8cd0:	e51b3010 	ldr	r3, [fp, #-16]
    8cd4:	e7842103 	str	r2, [r4, r3, lsl #2]
    8cd8:	e51b3010 	ldr	r3, [fp, #-16]
    8cdc:	e2833001 	add	r3, r3, #1
    8ce0:	e50b3010 	str	r3, [fp, #-16]
    8ce4:	e51b3010 	ldr	r3, [fp, #-16]
    8ce8:	e59f23fc 	ldr	r2, [pc, #1020]	; 90ec <FramebufferInitialize+0x570>
    8cec:	e7842103 	str	r2, [r4, r3, lsl #2]
    8cf0:	e51b3010 	ldr	r3, [fp, #-16]
    8cf4:	e2833001 	add	r3, r3, #1
    8cf8:	e50b3010 	str	r3, [fp, #-16]
    8cfc:	e51b3010 	ldr	r3, [fp, #-16]
    8d00:	e3a02008 	mov	r2, #8
    8d04:	e7842103 	str	r2, [r4, r3, lsl #2]
    8d08:	e51b3010 	ldr	r3, [fp, #-16]
    8d0c:	e2833001 	add	r3, r3, #1
    8d10:	e50b3010 	str	r3, [fp, #-16]
    8d14:	e51b3010 	ldr	r3, [fp, #-16]
    8d18:	e3a02008 	mov	r2, #8
    8d1c:	e7842103 	str	r2, [r4, r3, lsl #2]
    8d20:	e51b3010 	ldr	r3, [fp, #-16]
    8d24:	e2833001 	add	r3, r3, #1
    8d28:	e50b3010 	str	r3, [fp, #-16]
    8d2c:	e59f33ac 	ldr	r3, [pc, #940]	; 90e0 <FramebufferInitialize+0x564>
    8d30:	e5932000 	ldr	r2, [r3]
    8d34:	e51b3010 	ldr	r3, [fp, #-16]
    8d38:	e7842103 	str	r2, [r4, r3, lsl #2]
    8d3c:	e51b3010 	ldr	r3, [fp, #-16]
    8d40:	e2833001 	add	r3, r3, #1
    8d44:	e50b3010 	str	r3, [fp, #-16]
    8d48:	e59f3394 	ldr	r3, [pc, #916]	; 90e4 <FramebufferInitialize+0x568>
    8d4c:	e5932000 	ldr	r2, [r3]
    8d50:	e51b3010 	ldr	r3, [fp, #-16]
    8d54:	e7842103 	str	r2, [r4, r3, lsl #2]
    8d58:	e51b3010 	ldr	r3, [fp, #-16]
    8d5c:	e2833001 	add	r3, r3, #1
    8d60:	e50b3010 	str	r3, [fp, #-16]
    8d64:	e51b3010 	ldr	r3, [fp, #-16]
    8d68:	e59f2380 	ldr	r2, [pc, #896]	; 90f0 <FramebufferInitialize+0x574>
    8d6c:	e7842103 	str	r2, [r4, r3, lsl #2]
    8d70:	e51b3010 	ldr	r3, [fp, #-16]
    8d74:	e2833001 	add	r3, r3, #1
    8d78:	e50b3010 	str	r3, [fp, #-16]
    8d7c:	e51b3010 	ldr	r3, [fp, #-16]
    8d80:	e3a02004 	mov	r2, #4
    8d84:	e7842103 	str	r2, [r4, r3, lsl #2]
    8d88:	e51b3010 	ldr	r3, [fp, #-16]
    8d8c:	e2833001 	add	r3, r3, #1
    8d90:	e50b3010 	str	r3, [fp, #-16]
    8d94:	e51b3010 	ldr	r3, [fp, #-16]
    8d98:	e3a02004 	mov	r2, #4
    8d9c:	e7842103 	str	r2, [r4, r3, lsl #2]
    8da0:	e51b3010 	ldr	r3, [fp, #-16]
    8da4:	e2833001 	add	r3, r3, #1
    8da8:	e50b3010 	str	r3, [fp, #-16]
    8dac:	e59f3324 	ldr	r3, [pc, #804]	; 90d8 <FramebufferInitialize+0x55c>
    8db0:	e5932000 	ldr	r2, [r3]
    8db4:	e51b3010 	ldr	r3, [fp, #-16]
    8db8:	e7842103 	str	r2, [r4, r3, lsl #2]
    8dbc:	e51b3010 	ldr	r3, [fp, #-16]
    8dc0:	e2833001 	add	r3, r3, #1
    8dc4:	e50b3010 	str	r3, [fp, #-16]
    8dc8:	e51b3010 	ldr	r3, [fp, #-16]
    8dcc:	e59f2320 	ldr	r2, [pc, #800]	; 90f4 <FramebufferInitialize+0x578>
    8dd0:	e7842103 	str	r2, [r4, r3, lsl #2]
    8dd4:	e51b3010 	ldr	r3, [fp, #-16]
    8dd8:	e2833001 	add	r3, r3, #1
    8ddc:	e50b3010 	str	r3, [fp, #-16]
    8de0:	e51b3010 	ldr	r3, [fp, #-16]
    8de4:	e3a02008 	mov	r2, #8
    8de8:	e7842103 	str	r2, [r4, r3, lsl #2]
    8dec:	e51b3010 	ldr	r3, [fp, #-16]
    8df0:	e2833001 	add	r3, r3, #1
    8df4:	e50b3010 	str	r3, [fp, #-16]
    8df8:	e51b3010 	ldr	r3, [fp, #-16]
    8dfc:	e3a02008 	mov	r2, #8
    8e00:	e7842103 	str	r2, [r4, r3, lsl #2]
    8e04:	e51b3010 	ldr	r3, [fp, #-16]
    8e08:	e2833001 	add	r3, r3, #1
    8e0c:	e50b3010 	str	r3, [fp, #-16]
    8e10:	e51b3010 	ldr	r3, [fp, #-16]
    8e14:	e3a02010 	mov	r2, #16
    8e18:	e7842103 	str	r2, [r4, r3, lsl #2]
    8e1c:	e51b3010 	ldr	r3, [fp, #-16]
    8e20:	e2833001 	add	r3, r3, #1
    8e24:	e50b3010 	str	r3, [fp, #-16]
    8e28:	e51b3010 	ldr	r3, [fp, #-16]
    8e2c:	e3a02000 	mov	r2, #0
    8e30:	e7842103 	str	r2, [r4, r3, lsl #2]
    8e34:	e51b3010 	ldr	r3, [fp, #-16]
    8e38:	e2833001 	add	r3, r3, #1
    8e3c:	e50b3010 	str	r3, [fp, #-16]
    8e40:	e51b3010 	ldr	r3, [fp, #-16]
    8e44:	e3a02000 	mov	r2, #0
    8e48:	e7842103 	str	r2, [r4, r3, lsl #2]
    8e4c:	e51b3010 	ldr	r3, [fp, #-16]
    8e50:	e2833001 	add	r3, r3, #1
    8e54:	e50b3010 	str	r3, [fp, #-16]
    8e58:	e51b3010 	ldr	r3, [fp, #-16]
    8e5c:	e1a03103 	lsl	r3, r3, #2
    8e60:	e5843000 	str	r3, [r4]
    8e64:	e1a03004 	mov	r3, r4
    8e68:	e1a00003 	mov	r0, r3
    8e6c:	e3a01008 	mov	r1, #8
    8e70:	ebfffefb 	bl	8a64 <MailboxWrite>
    8e74:	e3a00008 	mov	r0, #8
    8e78:	ebffff18 	bl	8ae0 <MailboxRead>
    8e7c:	e50b0014 	str	r0, [fp, #-20]
    8e80:	e51b3014 	ldr	r3, [fp, #-20]
    8e84:	e3530000 	cmp	r3, #0
    8e88:	0a000002 	beq	8e98 <FramebufferInitialize+0x31c>
    8e8c:	e5943004 	ldr	r3, [r4, #4]
    8e90:	e3530102 	cmp	r3, #-2147483648	; 0x80000000
    8e94:	0a000001 	beq	8ea0 <FramebufferInitialize+0x324>
    8e98:	e3a03000 	mov	r3, #0
    8e9c:	ea00008a 	b	90cc <FramebufferInitialize+0x550>
    8ea0:	e3a03002 	mov	r3, #2
    8ea4:	e50b3010 	str	r3, [fp, #-16]
    8ea8:	e3a03000 	mov	r3, #0
    8eac:	e50b3018 	str	r3, [fp, #-24]
    8eb0:	ea000054 	b	9008 <FramebufferInitialize+0x48c>
    8eb4:	e51b3010 	ldr	r3, [fp, #-16]
    8eb8:	e7943103 	ldr	r3, [r4, r3, lsl #2]
    8ebc:	e51b2010 	ldr	r2, [fp, #-16]
    8ec0:	e2822001 	add	r2, r2, #1
    8ec4:	e50b2010 	str	r2, [fp, #-16]
    8ec8:	e59f2218 	ldr	r2, [pc, #536]	; 90e8 <FramebufferInitialize+0x56c>
    8ecc:	e1530002 	cmp	r3, r2
    8ed0:	0a00000d 	beq	8f0c <FramebufferInitialize+0x390>
    8ed4:	e59f220c 	ldr	r2, [pc, #524]	; 90e8 <FramebufferInitialize+0x56c>
    8ed8:	e1530002 	cmp	r3, r2
    8edc:	8a000003 	bhi	8ef0 <FramebufferInitialize+0x374>
    8ee0:	e59f220c 	ldr	r2, [pc, #524]	; 90f4 <FramebufferInitialize+0x578>
    8ee4:	e1530002 	cmp	r3, r2
    8ee8:	0a00002e 	beq	8fa8 <FramebufferInitialize+0x42c>
    8eec:	ea000045 	b	9008 <FramebufferInitialize+0x48c>
    8ef0:	e59f21f4 	ldr	r2, [pc, #500]	; 90ec <FramebufferInitialize+0x570>
    8ef4:	e1530002 	cmp	r3, r2
    8ef8:	0a000010 	beq	8f40 <FramebufferInitialize+0x3c4>
    8efc:	e59f21ec 	ldr	r2, [pc, #492]	; 90f0 <FramebufferInitialize+0x574>
    8f00:	e1530002 	cmp	r3, r2
    8f04:	0a00001a 	beq	8f74 <FramebufferInitialize+0x3f8>
    8f08:	ea00003e 	b	9008 <FramebufferInitialize+0x48c>
    8f0c:	e51b3010 	ldr	r3, [fp, #-16]
    8f10:	e7943103 	ldr	r3, [r4, r3, lsl #2]
    8f14:	e50b3018 	str	r3, [fp, #-24]
    8f18:	e51b3010 	ldr	r3, [fp, #-16]
    8f1c:	e2833001 	add	r3, r3, #1
    8f20:	e50b3010 	str	r3, [fp, #-16]
    8f24:	e51b3018 	ldr	r3, [fp, #-24]
    8f28:	e1a02123 	lsr	r2, r3, #2
    8f2c:	e51b3010 	ldr	r3, [fp, #-16]
    8f30:	e0823003 	add	r3, r2, r3
    8f34:	e2833001 	add	r3, r3, #1
    8f38:	e50b3010 	str	r3, [fp, #-16]
    8f3c:	ea000031 	b	9008 <FramebufferInitialize+0x48c>
    8f40:	e51b3010 	ldr	r3, [fp, #-16]
    8f44:	e7943103 	ldr	r3, [r4, r3, lsl #2]
    8f48:	e50b3018 	str	r3, [fp, #-24]
    8f4c:	e51b3010 	ldr	r3, [fp, #-16]
    8f50:	e2833001 	add	r3, r3, #1
    8f54:	e50b3010 	str	r3, [fp, #-16]
    8f58:	e51b3018 	ldr	r3, [fp, #-24]
    8f5c:	e1a02123 	lsr	r2, r3, #2
    8f60:	e51b3010 	ldr	r3, [fp, #-16]
    8f64:	e0823003 	add	r3, r2, r3
    8f68:	e2833001 	add	r3, r3, #1
    8f6c:	e50b3010 	str	r3, [fp, #-16]
    8f70:	ea000024 	b	9008 <FramebufferInitialize+0x48c>
    8f74:	e51b3010 	ldr	r3, [fp, #-16]
    8f78:	e7943103 	ldr	r3, [r4, r3, lsl #2]
    8f7c:	e50b3018 	str	r3, [fp, #-24]
    8f80:	e51b3010 	ldr	r3, [fp, #-16]
    8f84:	e2833001 	add	r3, r3, #1
    8f88:	e50b3010 	str	r3, [fp, #-16]
    8f8c:	e51b3018 	ldr	r3, [fp, #-24]
    8f90:	e1a02123 	lsr	r2, r3, #2
    8f94:	e51b3010 	ldr	r3, [fp, #-16]
    8f98:	e0823003 	add	r3, r2, r3
    8f9c:	e2833001 	add	r3, r3, #1
    8fa0:	e50b3010 	str	r3, [fp, #-16]
    8fa4:	ea000017 	b	9008 <FramebufferInitialize+0x48c>
    8fa8:	e51b3010 	ldr	r3, [fp, #-16]
    8fac:	e7943103 	ldr	r3, [r4, r3, lsl #2]
    8fb0:	e50b3018 	str	r3, [fp, #-24]
    8fb4:	e51b3010 	ldr	r3, [fp, #-16]
    8fb8:	e2833001 	add	r3, r3, #1
    8fbc:	e50b3010 	str	r3, [fp, #-16]
    8fc0:	e51b3010 	ldr	r3, [fp, #-16]
    8fc4:	e2833001 	add	r3, r3, #1
    8fc8:	e50b3010 	str	r3, [fp, #-16]
    8fcc:	e51b3010 	ldr	r3, [fp, #-16]
    8fd0:	e7942103 	ldr	r2, [r4, r3, lsl #2]
    8fd4:	e59f311c 	ldr	r3, [pc, #284]	; 90f8 <FramebufferInitialize+0x57c>
    8fd8:	e5832000 	str	r2, [r3]
    8fdc:	e51b3010 	ldr	r3, [fp, #-16]
    8fe0:	e2833001 	add	r3, r3, #1
    8fe4:	e50b3010 	str	r3, [fp, #-16]
    8fe8:	e51b3010 	ldr	r3, [fp, #-16]
    8fec:	e7942103 	ldr	r2, [r4, r3, lsl #2]
    8ff0:	e59f3104 	ldr	r3, [pc, #260]	; 90fc <FramebufferInitialize+0x580>
    8ff4:	e5832000 	str	r2, [r3]
    8ff8:	e51b3010 	ldr	r3, [fp, #-16]
    8ffc:	e2833001 	add	r3, r3, #1
    9000:	e50b3010 	str	r3, [fp, #-16]
    9004:	e1a00000 	nop			; (mov r0, r0)
    9008:	e51b3010 	ldr	r3, [fp, #-16]
    900c:	e7943103 	ldr	r3, [r4, r3, lsl #2]
    9010:	e3530000 	cmp	r3, #0
    9014:	1affffa6 	bne	8eb4 <FramebufferInitialize+0x338>
    9018:	e3a03020 	mov	r3, #32
    901c:	e5843000 	str	r3, [r4]
    9020:	e3a03000 	mov	r3, #0
    9024:	e5843004 	str	r3, [r4, #4]
    9028:	e59f30d0 	ldr	r3, [pc, #208]	; 9100 <FramebufferInitialize+0x584>
    902c:	e5843008 	str	r3, [r4, #8]
    9030:	e3a03004 	mov	r3, #4
    9034:	e584300c 	str	r3, [r4, #12]
    9038:	e3a03000 	mov	r3, #0
    903c:	e5843010 	str	r3, [r4, #16]
    9040:	e3a03000 	mov	r3, #0
    9044:	e5843014 	str	r3, [r4, #20]
    9048:	e3a03000 	mov	r3, #0
    904c:	e5843018 	str	r3, [r4, #24]
    9050:	e3a03000 	mov	r3, #0
    9054:	e584301c 	str	r3, [r4, #28]
    9058:	e1a03004 	mov	r3, r4
    905c:	e1a00003 	mov	r0, r3
    9060:	e3a01008 	mov	r1, #8
    9064:	ebfffe7e 	bl	8a64 <MailboxWrite>
    9068:	e3a00008 	mov	r0, #8
    906c:	ebfffe9b 	bl	8ae0 <MailboxRead>
    9070:	e50b0014 	str	r0, [fp, #-20]
    9074:	e51b3014 	ldr	r3, [fp, #-20]
    9078:	e3530000 	cmp	r3, #0
    907c:	0a000002 	beq	908c <FramebufferInitialize+0x510>
    9080:	e5943004 	ldr	r3, [r4, #4]
    9084:	e3530102 	cmp	r3, #-2147483648	; 0x80000000
    9088:	0a000001 	beq	9094 <FramebufferInitialize+0x518>
    908c:	e3a03000 	mov	r3, #0
    9090:	ea00000d 	b	90cc <FramebufferInitialize+0x550>
    9094:	e5942014 	ldr	r2, [r4, #20]
    9098:	e59f3064 	ldr	r3, [pc, #100]	; 9104 <FramebufferInitialize+0x588>
    909c:	e5832000 	str	r2, [r3]
    90a0:	e59f3038 	ldr	r3, [pc, #56]	; 90e0 <FramebufferInitialize+0x564>
    90a4:	e5933000 	ldr	r3, [r3]
    90a8:	e2432001 	sub	r2, r3, #1
    90ac:	e59f302c 	ldr	r3, [pc, #44]	; 90e0 <FramebufferInitialize+0x564>
    90b0:	e5832000 	str	r2, [r3]
    90b4:	e59f3028 	ldr	r3, [pc, #40]	; 90e4 <FramebufferInitialize+0x568>
    90b8:	e5933000 	ldr	r3, [r3]
    90bc:	e2432001 	sub	r2, r3, #1
    90c0:	e59f301c 	ldr	r3, [pc, #28]	; 90e4 <FramebufferInitialize+0x568>
    90c4:	e5832000 	str	r2, [r3]
    90c8:	e3a03001 	mov	r3, #1
    90cc:	e1a00003 	mov	r0, r3
    90d0:	e24bd008 	sub	sp, fp, #8
    90d4:	e8bd8810 	pop	{r4, fp, pc}
    90d8:	00009500 	andeq	r9, r0, r0, lsl #10
    90dc:	00040003 	andeq	r0, r4, r3
    90e0:	000094f4 	strdeq	r9, [r0], -r4
    90e4:	000094f8 	strdeq	r9, [r0], -r8
    90e8:	00048003 	andeq	r8, r4, r3
    90ec:	00048004 	andeq	r8, r4, r4
    90f0:	00048005 	andeq	r8, r4, r5
    90f4:	00040001 	andeq	r0, r4, r1
    90f8:	000094ec 	andeq	r9, r0, ip, ror #9
    90fc:	000094f0 	strdeq	r9, [r0], -r0
    9100:	00040008 	andeq	r0, r4, r8
    9104:	000094fc 	strdeq	r9, [r0], -ip

00009108 <put_pixel_RGB24>:
    9108:	e24dd018 	sub	sp, sp, #24
    910c:	e58d000c 	str	r0, [sp, #12]
    9110:	e58d1008 	str	r1, [sp, #8]
    9114:	e5cd2007 	strb	r2, [sp, #7]
    9118:	e5cd3006 	strb	r3, [sp, #6]
    911c:	e3a03000 	mov	r3, #0
    9120:	e58d3014 	str	r3, [sp, #20]
    9124:	e3a03000 	mov	r3, #0
    9128:	e58d3010 	str	r3, [sp, #16]
    912c:	e59f3068 	ldr	r3, [pc, #104]	; 919c <put_pixel_RGB24+0x94>
    9130:	e5933000 	ldr	r3, [r3]
    9134:	e59d2008 	ldr	r2, [sp, #8]
    9138:	e0010392 	mul	r1, r2, r3
    913c:	e59d200c 	ldr	r2, [sp, #12]
    9140:	e1a03002 	mov	r3, r2
    9144:	e1a03083 	lsl	r3, r3, #1
    9148:	e0833002 	add	r3, r3, r2
    914c:	e0813003 	add	r3, r1, r3
    9150:	e58d3010 	str	r3, [sp, #16]
    9154:	e59f3044 	ldr	r3, [pc, #68]	; 91a0 <put_pixel_RGB24+0x98>
    9158:	e5932000 	ldr	r2, [r3]
    915c:	e59d3010 	ldr	r3, [sp, #16]
    9160:	e0823003 	add	r3, r2, r3
    9164:	e58d3014 	str	r3, [sp, #20]
    9168:	e59d3014 	ldr	r3, [sp, #20]
    916c:	e5dd2007 	ldrb	r2, [sp, #7]
    9170:	e5c32000 	strb	r2, [r3]
    9174:	e59d3014 	ldr	r3, [sp, #20]
    9178:	e2833004 	add	r3, r3, #4
    917c:	e5dd2006 	ldrb	r2, [sp, #6]
    9180:	e5c32000 	strb	r2, [r3]
    9184:	e59d3014 	ldr	r3, [sp, #20]
    9188:	e2833008 	add	r3, r3, #8
    918c:	e5dd2018 	ldrb	r2, [sp, #24]
    9190:	e5c32000 	strb	r2, [r3]
    9194:	e28dd018 	add	sp, sp, #24
    9198:	e12fff1e 	bx	lr
    919c:	000094fc 	strdeq	r9, [r0], -ip
    91a0:	000094ec 	andeq	r9, r0, ip, ror #9

000091a4 <draw>:
    91a4:	e52de004 	push	{lr}		; (str lr, [sp, #-4]!)
    91a8:	e24dd01c 	sub	sp, sp, #28
    91ac:	e3a03000 	mov	r3, #0
    91b0:	e5cd3017 	strb	r3, [sp, #23]
    91b4:	e3a03000 	mov	r3, #0
    91b8:	e5cd3016 	strb	r3, [sp, #22]
    91bc:	e3a03000 	mov	r3, #0
    91c0:	e5cd3015 	strb	r3, [sp, #21]
    91c4:	e3a03000 	mov	r3, #0
    91c8:	e58d3010 	str	r3, [sp, #16]
    91cc:	e3a03000 	mov	r3, #0
    91d0:	e58d300c 	str	r3, [sp, #12]
    91d4:	e3a03000 	mov	r3, #0
    91d8:	e58d3010 	str	r3, [sp, #16]
    91dc:	ea00002f 	b	92a0 <draw+0xfc>
    91e0:	e3a03000 	mov	r3, #0
    91e4:	e58d300c 	str	r3, [sp, #12]
    91e8:	ea000024 	b	9280 <draw+0xdc>
    91ec:	e5dd3015 	ldrb	r3, [sp, #21]
    91f0:	e35300ff 	cmp	r3, #255	; 0xff
    91f4:	1a000014 	bne	924c <draw+0xa8>
    91f8:	e5dd3016 	ldrb	r3, [sp, #22]
    91fc:	e35300ff 	cmp	r3, #255	; 0xff
    9200:	1a00000d 	bne	923c <draw+0x98>
    9204:	e5dd3017 	ldrb	r3, [sp, #23]
    9208:	e35300ff 	cmp	r3, #255	; 0xff
    920c:	1a000006 	bne	922c <draw+0x88>
    9210:	e3a03000 	mov	r3, #0
    9214:	e5cd3017 	strb	r3, [sp, #23]
    9218:	e3a03000 	mov	r3, #0
    921c:	e5cd3016 	strb	r3, [sp, #22]
    9220:	e3a03000 	mov	r3, #0
    9224:	e5cd3015 	strb	r3, [sp, #21]
    9228:	ea00000a 	b	9258 <draw+0xb4>
    922c:	e5dd3017 	ldrb	r3, [sp, #23]
    9230:	e2833001 	add	r3, r3, #1
    9234:	e5cd3017 	strb	r3, [sp, #23]
    9238:	ea000006 	b	9258 <draw+0xb4>
    923c:	e5dd3016 	ldrb	r3, [sp, #22]
    9240:	e2833001 	add	r3, r3, #1
    9244:	e5cd3016 	strb	r3, [sp, #22]
    9248:	ea000002 	b	9258 <draw+0xb4>
    924c:	e5dd3015 	ldrb	r3, [sp, #21]
    9250:	e2833001 	add	r3, r3, #1
    9254:	e5cd3015 	strb	r3, [sp, #21]
    9258:	e5dd2017 	ldrb	r2, [sp, #23]
    925c:	e5dd3016 	ldrb	r3, [sp, #22]
    9260:	e5dd1015 	ldrb	r1, [sp, #21]
    9264:	e58d1000 	str	r1, [sp]
    9268:	e59d0010 	ldr	r0, [sp, #16]
    926c:	e59d100c 	ldr	r1, [sp, #12]
    9270:	ebffffa4 	bl	9108 <put_pixel_RGB24>
    9274:	e59d300c 	ldr	r3, [sp, #12]
    9278:	e2833001 	add	r3, r3, #1
    927c:	e58d300c 	str	r3, [sp, #12]
    9280:	e59f3034 	ldr	r3, [pc, #52]	; 92bc <draw+0x118>
    9284:	e5933000 	ldr	r3, [r3]
    9288:	e59d200c 	ldr	r2, [sp, #12]
    928c:	e1520003 	cmp	r2, r3
    9290:	3affffd5 	bcc	91ec <draw+0x48>
    9294:	e59d3010 	ldr	r3, [sp, #16]
    9298:	e2833001 	add	r3, r3, #1
    929c:	e58d3010 	str	r3, [sp, #16]
    92a0:	e59f3018 	ldr	r3, [pc, #24]	; 92c0 <draw+0x11c>
    92a4:	e5933000 	ldr	r3, [r3]
    92a8:	e59d2010 	ldr	r2, [sp, #16]
    92ac:	e1520003 	cmp	r2, r3
    92b0:	3affffca 	bcc	91e0 <draw+0x3c>
    92b4:	e28dd01c 	add	sp, sp, #28
    92b8:	e8bd8000 	pop	{pc}
    92bc:	000094f8 	strdeq	r9, [r0], -r8
    92c0:	000094f4 	strdeq	r9, [r0], -r4

000092c4 <drawRed>:
    92c4:	e52de004 	push	{lr}		; (str lr, [sp, #-4]!)
    92c8:	e24dd01c 	sub	sp, sp, #28
    92cc:	e58d000c 	str	r0, [sp, #12]
    92d0:	e3a03000 	mov	r3, #0
    92d4:	e58d3014 	str	r3, [sp, #20]
    92d8:	e3a03000 	mov	r3, #0
    92dc:	e58d3014 	str	r3, [sp, #20]
    92e0:	ea000015 	b	933c <drawRed+0x78>
    92e4:	e3a03000 	mov	r3, #0
    92e8:	e58d300c 	str	r3, [sp, #12]
    92ec:	ea00000a 	b	931c <drawRed+0x58>
    92f0:	e59d300c 	ldr	r3, [sp, #12]
    92f4:	e3a02000 	mov	r2, #0
    92f8:	e58d2000 	str	r2, [sp]
    92fc:	e59d0014 	ldr	r0, [sp, #20]
    9300:	e1a01003 	mov	r1, r3
    9304:	e3a020ff 	mov	r2, #255	; 0xff
    9308:	e3a03000 	mov	r3, #0
    930c:	ebffff7d 	bl	9108 <put_pixel_RGB24>
    9310:	e59d300c 	ldr	r3, [sp, #12]
    9314:	e2833001 	add	r3, r3, #1
    9318:	e58d300c 	str	r3, [sp, #12]
    931c:	e59d200c 	ldr	r2, [sp, #12]
    9320:	e59f3034 	ldr	r3, [pc, #52]	; 935c <drawRed+0x98>
    9324:	e5933000 	ldr	r3, [r3]
    9328:	e1520003 	cmp	r2, r3
    932c:	3affffef 	bcc	92f0 <drawRed+0x2c>
    9330:	e59d3014 	ldr	r3, [sp, #20]
    9334:	e2833001 	add	r3, r3, #1
    9338:	e58d3014 	str	r3, [sp, #20]
    933c:	e59d300c 	ldr	r3, [sp, #12]
    9340:	e2833032 	add	r3, r3, #50	; 0x32
    9344:	e1a02003 	mov	r2, r3
    9348:	e59d3014 	ldr	r3, [sp, #20]
    934c:	e1520003 	cmp	r2, r3
    9350:	8affffe3 	bhi	92e4 <drawRed+0x20>
    9354:	e28dd01c 	add	sp, sp, #28
    9358:	e8bd8000 	pop	{pc}
    935c:	000094f8 	strdeq	r9, [r0], -r8

00009360 <drawWhite>:
    9360:	e52de004 	push	{lr}		; (str lr, [sp, #-4]!)
    9364:	e24dd01c 	sub	sp, sp, #28
    9368:	e58d000c 	str	r0, [sp, #12]
    936c:	e3a03000 	mov	r3, #0
    9370:	e58d3014 	str	r3, [sp, #20]
    9374:	e3a03000 	mov	r3, #0
    9378:	e58d3014 	str	r3, [sp, #20]
    937c:	ea000014 	b	93d4 <drawWhite+0x74>
    9380:	e59d300c 	ldr	r3, [sp, #12]
    9384:	e3a020ff 	mov	r2, #255	; 0xff
    9388:	e58d2000 	str	r2, [sp]
    938c:	e59d0014 	ldr	r0, [sp, #20]
    9390:	e1a01003 	mov	r1, r3
    9394:	e3a020ff 	mov	r2, #255	; 0xff
    9398:	e3a030ff 	mov	r3, #255	; 0xff
    939c:	ebffff59 	bl	9108 <put_pixel_RGB24>
    93a0:	e59d300c 	ldr	r3, [sp, #12]
    93a4:	e2833001 	add	r3, r3, #1
    93a8:	e58d300c 	str	r3, [sp, #12]
    93ac:	ea000000 	b	93b4 <drawWhite+0x54>
    93b0:	e1a00000 	nop			; (mov r0, r0)
    93b4:	e59d300c 	ldr	r3, [sp, #12]
    93b8:	e2832032 	add	r2, r3, #50	; 0x32
    93bc:	e59d300c 	ldr	r3, [sp, #12]
    93c0:	e1520003 	cmp	r2, r3
    93c4:	caffffed 	bgt	9380 <drawWhite+0x20>
    93c8:	e59d3014 	ldr	r3, [sp, #20]
    93cc:	e2833001 	add	r3, r3, #1
    93d0:	e58d3014 	str	r3, [sp, #20]
    93d4:	e59f3014 	ldr	r3, [pc, #20]	; 93f0 <drawWhite+0x90>
    93d8:	e5933000 	ldr	r3, [r3]
    93dc:	e59d2014 	ldr	r2, [sp, #20]
    93e0:	e1520003 	cmp	r2, r3
    93e4:	3afffff1 	bcc	93b0 <drawWhite+0x50>
    93e8:	e28dd01c 	add	sp, sp, #28
    93ec:	e8bd8000 	pop	{pc}
    93f0:	000094f4 	strdeq	r9, [r0], -r4

000093f4 <drawBlue>:
    93f4:	e52de004 	push	{lr}		; (str lr, [sp, #-4]!)
    93f8:	e24dd01c 	sub	sp, sp, #28
    93fc:	e58d000c 	str	r0, [sp, #12]
    9400:	e3a03000 	mov	r3, #0
    9404:	e58d3014 	str	r3, [sp, #20]
    9408:	e3a03000 	mov	r3, #0
    940c:	e58d3014 	str	r3, [sp, #20]
    9410:	ea000014 	b	9468 <drawBlue+0x74>
    9414:	e59d300c 	ldr	r3, [sp, #12]
    9418:	e3a020ff 	mov	r2, #255	; 0xff
    941c:	e58d2000 	str	r2, [sp]
    9420:	e59d0014 	ldr	r0, [sp, #20]
    9424:	e1a01003 	mov	r1, r3
    9428:	e3a02000 	mov	r2, #0
    942c:	e3a03000 	mov	r3, #0
    9430:	ebffff34 	bl	9108 <put_pixel_RGB24>
    9434:	e59d300c 	ldr	r3, [sp, #12]
    9438:	e2833001 	add	r3, r3, #1
    943c:	e58d300c 	str	r3, [sp, #12]
    9440:	ea000000 	b	9448 <drawBlue+0x54>
    9444:	e1a00000 	nop			; (mov r0, r0)
    9448:	e59d300c 	ldr	r3, [sp, #12]
    944c:	e2832032 	add	r2, r3, #50	; 0x32
    9450:	e59d300c 	ldr	r3, [sp, #12]
    9454:	e1520003 	cmp	r2, r3
    9458:	caffffed 	bgt	9414 <drawBlue+0x20>
    945c:	e59d3014 	ldr	r3, [sp, #20]
    9460:	e2833001 	add	r3, r3, #1
    9464:	e58d3014 	str	r3, [sp, #20]
    9468:	e59f3014 	ldr	r3, [pc, #20]	; 9484 <drawBlue+0x90>
    946c:	e5933000 	ldr	r3, [r3]
    9470:	e59d2014 	ldr	r2, [sp, #20]
    9474:	e1520003 	cmp	r2, r3
    9478:	3afffff1 	bcc	9444 <drawBlue+0x50>
    947c:	e28dd01c 	add	sp, sp, #28
    9480:	e8bd8000 	pop	{pc}
    9484:	000094f4 	strdeq	r9, [r0], -r4

00009488 <increaseY>:
    9488:	e24dd008 	sub	sp, sp, #8
    948c:	e58d0004 	str	r0, [sp, #4]
    9490:	e59d3004 	ldr	r3, [sp, #4]
    9494:	e2833032 	add	r3, r3, #50	; 0x32
    9498:	e1a02003 	mov	r2, r3
    949c:	e59f3024 	ldr	r3, [pc, #36]	; 94c8 <increaseY+0x40>
    94a0:	e5933000 	ldr	r3, [r3]
    94a4:	e1520003 	cmp	r2, r3
    94a8:	2a000002 	bcs	94b8 <increaseY+0x30>
    94ac:	e59d3004 	ldr	r3, [sp, #4]
    94b0:	e2833032 	add	r3, r3, #50	; 0x32
    94b4:	ea000000 	b	94bc <increaseY+0x34>
    94b8:	e3a03000 	mov	r3, #0
    94bc:	e1a00003 	mov	r0, r3
    94c0:	e28dd008 	add	sp, sp, #8
    94c4:	e12fff1e 	bx	lr
    94c8:	000094f8 	strdeq	r9, [r0], -r8

Disassembly of section .bss:

000094cc <y>:
    94cc:	00000000 	andeq	r0, r0, r0

000094d0 <freelist>:
    94d0:	00000000 	andeq	r0, r0, r0

000094d4 <top>:
    94d4:	00000000 	andeq	r0, r0, r0

000094d8 <heap_limit>:
    94d8:	00000000 	andeq	r0, r0, r0

000094dc <pcb_main>:
    94dc:	00000000 	andeq	r0, r0, r0

000094e0 <pcb_head>:
    94e0:	00000000 	andeq	r0, r0, r0

000094e4 <pcb_tail>:
    94e4:	00000000 	andeq	r0, r0, r0

000094e8 <current_process>:
    94e8:	00000000 	andeq	r0, r0, r0

000094ec <fb_address>:
    94ec:	00000000 	andeq	r0, r0, r0

000094f0 <fb_size_bytes>:
    94f0:	00000000 	andeq	r0, r0, r0

000094f4 <fb_x>:
    94f4:	00000000 	andeq	r0, r0, r0

000094f8 <fb_y>:
    94f8:	00000000 	andeq	r0, r0, r0

000094fc <pitch>:
    94fc:	00000000 	andeq	r0, r0, r0

00009500 <depth>:
    9500:	00000000 	andeq	r0, r0, r0

00009504 <ledOn>:
    9504:	00000001 	andeq	r0, r0, r1

00009508 <current_ctx>:
    9508:	00000000 	andeq	r0, r0, r0

Disassembly of section .ARM.attributes:

00000000 <.ARM.attributes>:
   0:	00003141 	andeq	r3, r0, r1, asr #2
   4:	61656100 	cmnvs	r5, r0, lsl #2
   8:	01006962 	tsteq	r0, r2, ror #18
   c:	00000027 	andeq	r0, r0, r7, lsr #32
  10:	005a3605 	subseq	r3, sl, r5, lsl #12
  14:	01080706 	tsteq	r8, r6, lsl #14
  18:	020a0109 	andeq	r0, sl, #1073741826	; 0x40000002
  1c:	01140412 	tsteq	r4, r2, lsl r4
  20:	03170115 	tsteq	r7, #1073741829	; 0x40000005
  24:	011a0118 	tsteq	sl, r8, lsl r1
  28:	011c031b 	tsteq	ip, fp, lsl r3
  2c:	012c0122 	teqeq	ip, r2, lsr #2
  30:	Address 0x0000000000000030 is out of bounds.


Disassembly of section .comment:

00000000 <.comment>:
   0:	3a434347 	bcc	10d0d24 <__bss_end+0x10c7818>
   4:	4e472820 	cdpmi	8, 4, cr2, cr7, cr0, {1}
   8:	34202955 	strtcc	r2, [r0], #-2389	; 0x955
   c:	312e372e 	teqcc	lr, lr, lsr #14
	...

Disassembly of section .debug_line:

00000000 <.debug_line>:
   0:	00000061 	andeq	r0, r0, r1, rrx
   4:	00200002 	eoreq	r0, r0, r2
   8:	01020000 	mrseq	r0, (UNDEF: 2)
   c:	000d0efb 	strdeq	r0, [sp], -fp
  10:	01010101 	tsteq	r1, r1, lsl #2
  14:	01000000 	mrseq	r0, (UNDEF: 0)
  18:	00010000 	andeq	r0, r1, r0
  1c:	74636576 	strbtvc	r6, [r3], #-1398	; 0x576
  20:	2e73726f 	cdpcs	2, 7, cr7, cr3, cr15, {3}
  24:	00000073 	andeq	r0, r0, r3, ror r0
  28:	05000000 	streq	r0, [r0, #-0]
  2c:	00800002 	addeq	r0, r0, r2
  30:	2f2f1900 	svccs	0x002f1900
  34:	2f2f2f2f 	svccs	0x002f2f2f
  38:	080b032f 	stmdaeq	fp, {r0, r1, r2, r3, r5, r8, r9}
  3c:	2f2f2f20 	svccs	0x002f2f20
  40:	2f322f2f 	svccs	0x00322f2f
  44:	2f2f322f 	svccs	0x002f322f
  48:	302f2f31 	eorcc	r2, pc, r1, lsr pc	; <UNPREDICTABLE>
  4c:	2f2f2f30 	svccs	0x002f2f30
  50:	322f2f2f 	eorcc	r2, pc, #188	; 0xbc
  54:	322f322f 	eorcc	r3, pc, #-268435454	; 0xf0000002
  58:	322f322f 	eorcc	r3, pc, #-268435454	; 0xf0000002
  5c:	3032322f 	eorscc	r3, r2, pc, lsr #4
  60:	01000202 	tsteq	r0, r2, lsl #4
  64:	00007001 	andeq	r7, r0, r1
  68:	1f000200 	svcne	0x00000200
  6c:	02000000 	andeq	r0, r0, #0
  70:	0d0efb01 	vstreq	d15, [lr, #-4]
  74:	01010100 	mrseq	r0, (UNDEF: 17)
  78:	00000001 	andeq	r0, r0, r1
  7c:	01000001 	tsteq	r0, r1
  80:	72656b00 	rsbvc	r6, r5, #0
  84:	2e6c656e 	cdpcs	5, 6, cr6, cr12, cr14, {3}
  88:	00000063 	andeq	r0, r0, r3, rrx
  8c:	05000000 	streq	r0, [r0, #-0]
  90:	0080d002 	addeq	sp, r0, r2
  94:	01090300 	mrseq	r0, (UNDEF: 57)
  98:	01040200 	mrseq	r0, R12_usr
  9c:	04020030 	streq	r0, [r2], #-48	; 0x30
  a0:	02008301 	andeq	r8, r0, #67108864	; 0x4000000
  a4:	4ed70104 	cdpmi	1, 13, cr0, cr7, cr4, {0}
  a8:	01040200 	mrseq	r0, R12_usr
  ac:	04020030 	streq	r0, [r2], #-48	; 0x30
  b0:	02008301 	andeq	r8, r0, #67108864	; 0x4000000
  b4:	4fd70104 	svcmi	0x00d70104
  b8:	01040200 	mrseq	r0, R12_usr
  bc:	04020030 	streq	r0, [r2], #-48	; 0x30
  c0:	02008301 	andeq	r8, r0, #67108864	; 0x4000000
  c4:	4fd70104 	svcmi	0x00d70104
  c8:	302f2f2f 	eorcc	r2, pc, pc, lsr #30
  cc:	00a09f9f 	umlaleq	r9, r0, pc, pc	; <UNPREDICTABLE>
  d0:	31010402 	tstcc	r1, r2, lsl #8
  d4:	01000802 	tsteq	r0, r2, lsl #16
  d8:	00005901 	andeq	r5, r0, r1, lsl #18
  dc:	21000200 	mrscs	r0, R8_usr
  e0:	02000000 	andeq	r0, r0, #0
  e4:	0d0efb01 	vstreq	d15, [lr, #-4]
  e8:	01010100 	mrseq	r0, (UNDEF: 17)
  ec:	00000001 	andeq	r0, r0, r1
  f0:	01000001 	tsteq	r0, r1
  f4:	79687000 	stmdbvc	r8!, {ip, sp, lr}^
  f8:	6f6c6c41 	svcvs	0x006c6c41
  fc:	00632e63 	rsbeq	r2, r3, r3, ror #28
 100:	00000000 	andeq	r0, r0, r0
 104:	d8020500 	stmdale	r2, {r8, sl}
 108:	03000081 	movweq	r0, #129	; 0x81
 10c:	4c67010c 	stfmie	f0, [r7], #-48	; 0xffffffd0
 110:	002f2f2f 	eoreq	r2, pc, pc, lsr #30
 114:	2c010402 	cfstrscs	mvf0, [r1], {2}
 118:	02040200 	andeq	r0, r4, #0
 11c:	86064a06 	strhi	r4, [r6], -r6, lsl #20
 120:	bbf44b4b 	bllt	ffd12e54 <__bss_end+0xffd09948>
 124:	da2f4c4c 	ble	bd325c <__bss_end+0xbc9d50>
 128:	67833083 	strvs	r3, [r3, r3, lsl #1]
 12c:	6767864b 	strbvs	r8, [r7, -fp, asr #12]!
 130:	0008029f 	muleq	r8, pc, r2	; <UNPREDICTABLE>
 134:	004f0101 	subeq	r0, pc, r1, lsl #2
 138:	00020000 	andeq	r0, r2, r0
 13c:	0000001b 	andeq	r0, r0, fp, lsl r0
 140:	0efb0102 	cdpeq	1, 15, cr0, cr11, cr2, {0}
 144:	0101000d 	tsteq	r1, sp
 148:	00000101 	andeq	r0, r0, r1, lsl #2
 14c:	00000100 	andeq	r0, r0, r0, lsl #2
 150:	77680001 	strbvc	r0, [r8, -r1]!
 154:	0000632e 	andeq	r6, r0, lr, lsr #6
 158:	00000000 	andeq	r0, r0, r0
 15c:	83100205 	tsthi	r0, #1342177280	; 0x50000000
 160:	1c030000 	stcne	0, cr0, [r3], {-0}
 164:	67674b01 	strbvs	r4, [r7, -r1, lsl #22]!
 168:	67a16768 	strvs	r6, [r1, r8, ror #14]!
 16c:	67689f67 	strbvs	r9, [r8, -r7, ror #30]!
 170:	4e672fa6 	cdpmi	15, 6, cr2, cr7, cr6, {5}
 174:	4f51672f 	svcmi	0x0051672f
 178:	69676767 	stmdbvs	r7!, {r0, r1, r2, r5, r6, r8, r9, sl, sp, lr}^
 17c:	6a676769 	bvs	19d9f28 <__bss_end+0x19d0a1c>
 180:	67a06869 	strvs	r6, [r0, r9, ror #16]!
 184:	01001002 	tsteq	r0, r2
 188:	0000b301 	andeq	fp, r0, r1, lsl #6
 18c:	34000200 	strcc	r0, [r0], #-512	; 0x200
 190:	02000000 	andeq	r0, r0, #0
 194:	0d0efb01 	vstreq	d15, [lr, #-4]
 198:	01010100 	mrseq	r0, (UNDEF: 17)
 19c:	00000001 	andeq	r0, r0, r1
 1a0:	01000001 	tsteq	r0, r1
 1a4:	68637300 	stmdavs	r3!, {r8, r9, ip, sp, lr}^
 1a8:	632e6465 	teqvs	lr, #1694498816	; 0x65000000
 1ac:	00000000 	andeq	r0, r0, r0
 1b0:	65707974 	ldrbvs	r7, [r0, #-2420]!	; 0x974
 1b4:	00682e73 	rsbeq	r2, r8, r3, ror lr
 1b8:	73000000 	movwvc	r0, #0
 1bc:	64656863 	strbtvs	r6, [r5], #-2147	; 0x863
 1c0:	0000682e 	andeq	r6, r0, lr, lsr #16
 1c4:	00000000 	andeq	r0, r0, r0
 1c8:	84a40205 	strthi	r0, [r4], #517	; 0x205
 1cc:	0b030000 	bleq	c01d4 <__bss_end+0xb6cc8>
 1d0:	d79fa001 	ldrle	sl, [pc, r1]
 1d4:	849f83a0 	ldrhi	r8, [pc], #928	; 1dc <_start-0x7e24>
 1d8:	bb68679f 	bllt	1a1a05c <__bss_end+0x1a10b50>
 1dc:	6767bb9f 			; <UNDEFINED> instruction: 0x6767bb9f
 1e0:	a0bb6967 	adcsge	r6, fp, r7, ror #18
 1e4:	04020068 	streq	r0, [r2], #-104	; 0x68
 1e8:	06820601 	streq	r0, [r2], r1, lsl #12
 1ec:	85676783 	strbhi	r6, [r7, #-1923]!	; 0x783
 1f0:	9fa16783 	svcls	0x00a16783
 1f4:	31849f2f 	orrcc	r9, r4, pc, lsr #30
 1f8:	4d2f8383 	stcmi	3, cr8, [pc, #-524]!	; fffffff4 <__bss_end+0xffff6ae8>
 1fc:	832f4b4c 	teqhi	pc, #77824	; 0x13000
 200:	a083d7d7 	ldrdge	sp, [r3], r7
 204:	009fbbf3 			; <UNDEFINED> instruction: 0x009fbbf3
 208:	03010402 	movweq	r0, #5122	; 0x1402
 20c:	0c036676 	stceq	6, cr6, [r3], {118}	; 0x76
 210:	849fd7ba 	ldrhi	sp, [pc], #1978	; 218 <_start-0x7de8>
 214:	9fd79f2f 	svcls	0x00d79f2f
 218:	039f9f83 	orrseq	r9, pc, #524	; 0x20c
 21c:	a1148213 	tstge	r4, r3, lsl r2
 220:	30a09f2f 	adccc	r9, r0, pc, lsr #30
 224:	2f2fa09f 	svccs	0x002fa09f
 228:	14154b9f 	ldrne	r4, [r5], #-2975	; 0xb9f
 22c:	302f2fa0 	eorcc	r2, pc, r0, lsr #31
 230:	839f9f2f 	orrshi	r9, pc, #188	; 0xbc
 234:	9f9f842f 	svcls	0x009f842f
 238:	029f2f9f 	addseq	r2, pc, #636	; 0x27c
 23c:	01010004 	tsteq	r1, r4
 240:	00000191 	muleq	r0, r1, r1
 244:	002e0002 	eoreq	r0, lr, r2
 248:	01020000 	mrseq	r0, (UNDEF: 2)
 24c:	000d0efb 	strdeq	r0, [sp], -fp
 250:	01010101 	tsteq	r1, r1, lsl #2
 254:	01000000 	mrseq	r0, (UNDEF: 0)
 258:	00010000 	andeq	r0, r1, r0
 25c:	682e6266 	stmdavs	lr!, {r1, r2, r5, r6, r9, sp, lr}
 260:	00000000 	andeq	r0, r0, r0
 264:	632e6266 	teqvs	lr, #1610612742	; 0x60000006
 268:	00000000 	andeq	r0, r0, r0
 26c:	65707974 	ldrbvs	r7, [r0, #-2420]!	; 0x974
 270:	00682e73 	rsbeq	r2, r8, r3, ror lr
 274:	00000000 	andeq	r0, r0, r0
 278:	08020500 	stmdaeq	r2, {r8, sl}
 27c:	0300008a 	movweq	r0, #138	; 0x8a
 280:	4b67011e 	blmi	19c0700 <__bss_end+0x19b71f4>
 284:	4c674e68 	stclmi	14, cr4, [r7], #-416	; 0xfffffe60
 288:	02042f68 	andeq	r2, r4, #416	; 0x1a0
 28c:	85826603 	strhi	r6, [r2, #1539]	; 0x603
 290:	01040200 	mrseq	r0, R12_usr
 294:	0402006e 	streq	r0, [r2], #-110	; 0x6e
 298:	02004b01 	andeq	r4, r0, #1024	; 0x400
 29c:	006b0104 	rsbeq	r0, fp, r4, lsl #2
 2a0:	4b010402 	blmi	412b0 <__bss_end+0x37da4>
 2a4:	6f034b68 	svcvs	0x00034b68
 2a8:	2e1203d6 	mrccs	3, 0, r0, cr2, cr6, {6}
 2ac:	03676989 	cmneq	r7, #2244608	; 0x224000
 2b0:	02004a11 	andeq	r4, r0, #69632	; 0x11000
 2b4:	74030104 	strvc	r0, [r3], #-260	; 0x104
 2b8:	0402002e 	streq	r0, [r2], #-46	; 0x2e
 2bc:	02004b01 	andeq	r4, r0, #1024	; 0x400
 2c0:	00670104 	rsbeq	r0, r7, r4, lsl #2
 2c4:	4b010402 	blmi	412d4 <__bss_end+0x37dc8>
 2c8:	4d674b84 	vstmdbmi	r7!, {d20-d21}
 2cc:	f4a44c9f 	vld1.32	{d4[]}, [r4 :32]
 2d0:	4b4b6b4d 	blmi	12db00c <__bss_end+0x12d1b00>
 2d4:	4b4b4b4b 	blmi	12d3008 <__bss_end+0x12c9afc>
 2d8:	00844c4b 	addeq	r4, r4, fp, asr #24
 2dc:	06010402 	streq	r0, [r1], -r2, lsl #8
 2e0:	4d6706ba 	stclmi	6, cr0, [r7, #-744]!	; 0xfffffd18
 2e4:	bb4c6867 	bllt	131a488 <__bss_end+0x1310f7c>
 2e8:	d7bbbbbb 			; <UNDEFINED> instruction: 0xd7bbbbbb
 2ec:	bbbbbbd8 	bllt	feeef254 <__bss_end+0xfeee5d48>
 2f0:	bbbbd8d7 	bllt	feef6654 <__bss_end+0xfeeed148>
 2f4:	bbbbd8bb 	bllt	feef65e8 <__bss_end+0xfeeed0dc>
 2f8:	bbbcbbbb 	bllt	fef2f1ec <__bss_end+0xfef25ce0>
 2fc:	02008468 	andeq	r8, r0, #1744830464	; 0x68000000
 300:	ba060104 	blt	180718 <__bss_end+0x17720c>
 304:	4b506706 	blmi	1419f24 <__bss_end+0x1410a18>
 308:	2c022f4b 	stccs	15, cr2, [r2], {75}	; 0x4b
 30c:	30bbbb15 	adcscc	fp, fp, r5, lsl fp
 310:	bb30bbbb 	bllt	c2f204 <__bss_end+0xc25cf8>
 314:	67bb30bb 			; <UNDEFINED> instruction: 0x67bb30bb
 318:	0200d7d7 	andeq	sp, r0, #56360960	; 0x35c0000
 31c:	6c030104 	stfvss	f0, [r3], {4}
 320:	821b032e 	andshi	r0, fp, #-1207959552	; 0xb8000000
 324:	4b4b4b4b 	blmi	12d3058 <__bss_end+0x12c9b4c>
 328:	4c4b4b4b 	mcrrmi	11, 4, r4, fp, cr11
 32c:	04020084 	streq	r0, [r2], #-132	; 0x84
 330:	06ba0601 	ldrteq	r0, [sl], r1, lsl #12
 334:	9f684d67 	svcls	0x00684d67
 338:	ce082fa0 	cdpgt	15, 0, cr2, cr8, cr0, {5}
 33c:	084c4ba1 	stmdaeq	ip, {r0, r5, r7, r8, r9, fp, lr}^
 340:	83679f3d 	cmnhi	r7, #244	; 0xf4
 344:	bb4b8783 	bllt	12e2158 <__bss_end+0x12d8c4c>
 348:	67676783 	strbvs	r6, [r7, -r3, lsl #15]!
 34c:	85d86767 	ldrbhi	r6, [r8, #1895]	; 0x767
 350:	74036784 	strvc	r6, [r3], #-1924	; 0x784
 354:	040200d6 	streq	r0, [r2], #-214	; 0xd6
 358:	06660601 	strbteq	r0, [r6], -r1, lsl #12
 35c:	0402009d 	streq	r0, [r2], #-157	; 0x9d
 360:	06660601 	strbteq	r0, [r6], -r1, lsl #12
 364:	879e1003 	ldrhi	r1, [lr, r3]
 368:	00674b67 	rsbeq	r4, r7, r7, ror #22
 36c:	67020402 	strvs	r0, [r2, -r2, lsl #8]
 370:	02040200 	andeq	r0, r4, #0
 374:	040200f1 	streq	r0, [r2], #-241	; 0xf1
 378:	06660601 	strbteq	r0, [r6], -r1, lsl #12
 37c:	0402009d 	streq	r0, [r2], #-157	; 0x9d
 380:	06660601 	strbteq	r0, [r6], -r1, lsl #12
 384:	4b676cbf 	blmi	19db688 <__bss_end+0x19d217c>
 388:	02040200 	andeq	r0, r4, #0
 38c:	04020068 	streq	r0, [r2], #-104	; 0x68
 390:	8206f102 	andhi	pc, r6, #-2147483648	; 0x80000000
 394:	01040200 	mrseq	r0, R12_usr
 398:	009d062e 	addseq	r0, sp, lr, lsr #12
 39c:	06010402 	streq	r0, [r1], -r2, lsl #8
 3a0:	6ca30666 	stcvs	6, cr0, [r3], #408	; 0x198
 3a4:	02004b67 	andeq	r4, r0, #105472	; 0x19c00
 3a8:	00680204 	rsbeq	r0, r8, r4, lsl #4
 3ac:	f1020402 			; <UNDEFINED> instruction: 0xf1020402
 3b0:	02008206 	andeq	r8, r0, #1610612736	; 0x60000000
 3b4:	062e0104 	strteq	r0, [lr], -r4, lsl #2
 3b8:	0402009d 	streq	r0, [r2], #-157	; 0x9d
 3bc:	06660601 	strbteq	r0, [r6], -r1, lsl #12
 3c0:	004b69a3 	subeq	r6, fp, r3, lsr #19
 3c4:	06010402 	streq	r0, [r1], -r2, lsl #8
 3c8:	040200d6 	streq	r0, [r2], #-214	; 0xd6
 3cc:	2f066602 	svccs	0x00066602
 3d0:	01000802 	tsteq	r0, r2, lsl #16
 3d4:	Address 0x00000000000003d4 is out of bounds.


Disassembly of section .debug_info:

00000000 <.debug_info>:
   0:	0000005f 	andeq	r0, r0, pc, asr r0
   4:	00000002 	andeq	r0, r0, r2
   8:	01040000 	mrseq	r0, (UNDEF: 4)
   c:	00000000 	andeq	r0, r0, r0
  10:	00008000 	andeq	r8, r0, r0
  14:	000080d0 	ldrdeq	r8, [r0], -r0
  18:	74636576 	strbtvc	r6, [r3], #-1398	; 0x576
  1c:	2e73726f 	cdpcs	2, 7, cr7, cr3, cr15, {3}
  20:	682f0073 	stmdavs	pc!, {r0, r1, r4, r5, r6}	; <UNPREDICTABLE>
  24:	2f656d6f 	svccs	0x00656d6f
  28:	746e616b 	strbtvc	r6, [lr], #-363	; 0x16b
  2c:	656e696f 	strbvs	r6, [lr, #-2415]!	; 0x96f
  30:	636f442f 	cmnvs	pc, #788529152	; 0x2f000000
  34:	6e656d75 	mcrvs	13, 3, r6, cr5, cr5, {3}
  38:	532f7374 	teqpl	pc, #-805306367	; 0xd0000001
  3c:	65747379 	ldrbvs	r7, [r4, #-889]!	; 0x379
  40:	7845656d 	stmdavc	r5, {r0, r2, r3, r5, r6, r8, sl, sp, lr}^
  44:	696f6c70 	stmdbvs	pc!, {r4, r5, r6, sl, fp, sp, lr}^	; <UNPREDICTABLE>
  48:	69746174 	ldmdbvs	r4!, {r2, r4, r5, r6, r8, sp, lr}^
  4c:	76416e6f 	strbvc	r6, [r1], -pc, ror #28
  50:	65636e61 	strbvs	r6, [r3, #-3681]!	; 0xe61
  54:	554e4700 	strbpl	r4, [lr, #-1792]	; 0x700
  58:	20534120 	subscs	r4, r3, r0, lsr #2
  5c:	32322e32 	eorscc	r2, r2, #800	; 0x320
  60:	86800100 	strhi	r0, [r0], r0, lsl #2
  64:	02000001 	andeq	r0, r0, #1
  68:	00001400 	andeq	r1, r0, r0, lsl #8
  6c:	14010400 	strne	r0, [r1], #-1024	; 0x400
  70:	01000000 	mrseq	r0, (UNDEF: 0)
  74:	000000c4 	andeq	r0, r0, r4, asr #1
  78:	0000002a 	andeq	r0, r0, sl, lsr #32
  7c:	000080d0 	ldrdeq	r8, [r0], -r0
  80:	000081d8 	ldrdeq	r8, [r0], -r8	; <UNPREDICTABLE>
  84:	00000065 	andeq	r0, r0, r5, rrx
  88:	a5070202 	strge	r0, [r7, #-514]	; 0x202
  8c:	02000000 	andeq	r0, r0, #0
  90:	00ab0704 	adceq	r0, fp, r4, lsl #14
  94:	01020000 	mrseq	r0, (UNDEF: 2)
  98:	00006908 	andeq	r6, r0, r8, lsl #18
  9c:	5d010300 	stcpl	3, cr0, [r1, #-0]
  a0:	01000000 	mrseq	r0, (UNDEF: 0)
  a4:	0080d009 	addeq	sp, r0, r9
  a8:	00810800 	addeq	r0, r1, r0, lsl #16
  ac:	00000000 	andeq	r0, r0, r0
  b0:	00800100 	addeq	r0, r0, r0, lsl #2
  b4:	d4040000 	strle	r0, [r4], #-0
  b8:	00000080 	andeq	r0, r0, r0, lsl #1
  bc:	05000081 	streq	r0, [r0, #-129]	; 0x81
  c0:	00008701 	andeq	r8, r0, r1, lsl #14
  c4:	800c0100 	andhi	r0, ip, r0, lsl #2
  c8:	01000000 	mrseq	r0, (UNDEF: 0)
  cc:	0000006f 	andeq	r0, r0, pc, rrx
  d0:	01070006 	tsteq	r7, r6
  d4:	0000007d 	andeq	r0, r0, sp, ror r0
  d8:	00800d01 	addeq	r0, r0, r1, lsl #26
  dc:	06010000 	streq	r0, [r1], -r0
  e0:	08000000 	stmdaeq	r0, {}	; <UNPREDICTABLE>
  e4:	6e690504 	cdpvs	5, 6, cr0, cr9, cr4, {0}
  e8:	01030074 	tsteq	r3, r4, ror r0
  ec:	00000077 	andeq	r0, r0, r7, ror r0
  f0:	81081101 	tsthi	r8, r1, lsl #2
  f4:	81400000 	mrshi	r0, (UNDEF: 64)
  f8:	00200000 	eoreq	r0, r0, r0
  fc:	cd010000 	stcgt	0, cr0, [r1, #-0]
 100:	04000000 	streq	r0, [r0], #-0
 104:	0000810c 	andeq	r8, r0, ip, lsl #2
 108:	00008138 	andeq	r8, r0, r8, lsr r1
 10c:	00200105 	eoreq	r0, r0, r5, lsl #2
 110:	14010000 	strne	r0, [r1], #-0
 114:	00000080 	andeq	r0, r0, r0, lsl #1
 118:	0000bc01 	andeq	fp, r0, r1, lsl #24
 11c:	07000600 	streq	r0, [r0, -r0, lsl #12]
 120:	00007d01 	andeq	r7, r0, r1, lsl #26
 124:	800d0100 	andhi	r0, sp, r0, lsl #2
 128:	01000000 	mrseq	r0, (UNDEF: 0)
 12c:	00000006 	andeq	r0, r0, r6
 130:	00630103 	rsbeq	r0, r3, r3, lsl #2
 134:	1a010000 	bne	4013c <__bss_end+0x36c30>
 138:	00008140 	andeq	r8, r0, r0, asr #2
 13c:	00008178 	andeq	r8, r0, r8, ror r1
 140:	00000040 	andeq	r0, r0, r0, asr #32
 144:	00011301 	andeq	r1, r1, r1, lsl #6
 148:	81440400 	cmphi	r4, r0, lsl #8
 14c:	81700000 	cmnhi	r0, r0
 150:	01050000 	mrseq	r0, (UNDEF: 5)
 154:	0000000b 	andeq	r0, r0, fp
 158:	00801d01 	addeq	r1, r0, r1, lsl #26
 15c:	02010000 	andeq	r0, r1, #0
 160:	06000001 	streq	r0, [r0], -r1
 164:	7d010700 	stcvc	7, cr0, [r1, #-0]
 168:	01000000 	mrseq	r0, (UNDEF: 0)
 16c:	0000800d 	andeq	r8, r0, sp
 170:	00060100 	andeq	r0, r6, r0, lsl #2
 174:	01090000 	mrseq	r0, (UNDEF: 9)
 178:	00000000 	andeq	r0, r0, r0
 17c:	80012301 	andhi	r2, r1, r1, lsl #6
 180:	78000000 	stmdavc	r0, {}	; <UNPREDICTABLE>
 184:	d8000081 	stmdale	r0, {r0, r7}
 188:	60000081 	andvs	r0, r0, r1, lsl #1
 18c:	01000000 	mrseq	r0, (UNDEF: 0)
 190:	00000167 	andeq	r0, r0, r7, ror #2
 194:	008f0105 	addeq	r0, pc, r5, lsl #2
 198:	26010000 	strcs	r0, [r1], -r0
 19c:	00000080 	andeq	r0, r0, r0, lsl #1
 1a0:	00014401 	andeq	r4, r1, r1, lsl #8
 1a4:	05000600 	streq	r0, [r0, #-1536]	; 0x600
 1a8:	00000601 	andeq	r0, r0, r1, lsl #12
 1ac:	80270100 	eorhi	r0, r7, r0, lsl #2
 1b0:	01000000 	mrseq	r0, (UNDEF: 0)
 1b4:	00000157 	andeq	r0, r0, r7, asr r1
 1b8:	01070006 	tsteq	r7, r6
 1bc:	000000b8 	strheq	r0, [r0], -r8
 1c0:	00802d01 	addeq	r2, r0, r1, lsl #26
 1c4:	06010000 	streq	r0, [r1], -r0
 1c8:	cd0a0000 	stcgt	0, cr0, [sl, #-0]
 1cc:	01000000 	mrseq	r0, (UNDEF: 0)
 1d0:	00008006 	andeq	r8, r0, r6
 1d4:	03050100 	movweq	r0, #20736	; 0x5100
 1d8:	00009504 	andeq	r9, r0, r4, lsl #10
 1dc:	0100790b 	tsteq	r0, fp, lsl #18
 1e0:	00008007 	andeq	r8, r0, r7
 1e4:	03050100 	movweq	r0, #20736	; 0x5100
 1e8:	000094cc 	andeq	r9, r0, ip, asr #9
 1ec:	00015e00 	andeq	r5, r1, r0, lsl #28
 1f0:	c6000200 	strgt	r0, [r0], -r0, lsl #4
 1f4:	04000000 	streq	r0, [r0], #-0
 1f8:	00001401 	andeq	r1, r0, r1, lsl #8
 1fc:	00d30100 	sbcseq	r0, r3, r0, lsl #2
 200:	002a0000 	eoreq	r0, sl, r0
 204:	81d80000 	bicshi	r0, r8, r0
 208:	83100000 	tsthi	r0, #0
 20c:	00d90000 	sbcseq	r0, r9, r0
 210:	66020000 	strvs	r0, [r2], -r0
 214:	0108006c 	tsteq	r8, ip, rrx
 218:	00004d03 	andeq	r4, r0, r3, lsl #26
 21c:	01050300 	mrseq	r0, SP_abt
 220:	04010000 	streq	r0, [r1], #-0
 224:	0000004d 	andeq	r0, r0, sp, asr #32
 228:	03002302 	movweq	r2, #770	; 0x302
 22c:	00000202 	andeq	r0, r0, r2, lsl #4
 230:	00530501 	subseq	r0, r3, r1, lsl #10
 234:	23020000 	movwcs	r0, #8192	; 0x2000
 238:	04040004 	streq	r0, [r4], #-4
 23c:	00000025 	andeq	r0, r0, r5, lsr #32
 240:	ab070405 	blge	1c125c <__bss_end+0x1b7d50>
 244:	06000000 	streq	r0, [r0], -r0
 248:	00010a01 	andeq	r0, r1, r1, lsl #20
 24c:	010c0100 	mrseq	r0, (UNDEF: 28)
 250:	0000009f 	muleq	r0, pc, r0	; <UNPREDICTABLE>
 254:	000081d8 	ldrdeq	r8, [r0], -r8	; <UNPREDICTABLE>
 258:	0000828c 	andeq	r8, r0, ip, lsl #5
 25c:	00000080 	andeq	r0, r0, r0, lsl #1
 260:	00009f01 	andeq	r9, r0, r1, lsl #30
 264:	02020700 	andeq	r0, r2, #0
 268:	0c010000 	stceq	0, cr0, [r1], {-0}
 26c:	00000053 	andeq	r0, r0, r3, asr r0
 270:	08749102 	ldmdaeq	r4!, {r1, r8, ip, pc}^
 274:	0e010066 	cdpeq	0, 0, cr0, cr1, cr6, {3}
 278:	0000004d 	andeq	r0, r0, sp, asr #32
 27c:	de095401 	cdple	4, 0, cr5, cr9, cr1, {0}
 280:	01000000 	mrseq	r0, (UNDEF: 0)
 284:	0000a10e 	andeq	sl, r0, lr, lsl #2
 288:	00550100 	subseq	r0, r5, r0, lsl #2
 28c:	0404040a 	streq	r0, [r4], #-1034	; 0x40a
 290:	0000004d 	andeq	r0, r0, sp, asr #32
 294:	00ec010b 	rsceq	r0, ip, fp, lsl #2
 298:	22010000 	andcs	r0, r1, #0
 29c:	00828c01 	addeq	r8, r2, r1, lsl #24
 2a0:	0082d400 	addeq	sp, r2, r0, lsl #8
 2a4:	0000ac00 	andeq	sl, r0, r0, lsl #24
 2a8:	00e90100 	rsceq	r0, r9, r0, lsl #2
 2ac:	700c0000 	andvc	r0, ip, r0
 2b0:	01007274 	tsteq	r0, r4, ror r2
 2b4:	00009f22 	andeq	r9, r0, r2, lsr #30
 2b8:	74910200 	ldrvc	r0, [r1], #512	; 0x200
 2bc:	00020207 	andeq	r0, r2, r7, lsl #4
 2c0:	53220100 	teqpl	r2, #0
 2c4:	02000000 	andeq	r0, r0, #0
 2c8:	66087091 			; <UNDEFINED> instruction: 0x66087091
 2cc:	4d240100 	stfmis	f0, [r4, #-0]
 2d0:	01000000 	mrseq	r0, (UNDEF: 0)
 2d4:	010b0054 	qaddeq	r0, r4, fp
 2d8:	00000119 	andeq	r0, r0, r9, lsl r1
 2dc:	d4012c01 	strle	r2, [r1], #-3073	; 0xc01
 2e0:	10000082 	andne	r0, r0, r2, lsl #1
 2e4:	d8000083 	stmdale	r0, {r0, r1, r7}
 2e8:	01000000 	mrseq	r0, (UNDEF: 0)
 2ec:	00000120 	andeq	r0, r0, r0, lsr #2
 2f0:	0000fa07 	andeq	pc, r0, r7, lsl #20
 2f4:	202c0100 	eorcs	r0, ip, r0, lsl #2
 2f8:	02000001 	andeq	r0, r0, #1
 2fc:	32077c91 	andcc	r7, r7, #37120	; 0x9100
 300:	01000001 	tsteq	r0, r1
 304:	0000532c 	andeq	r5, r0, ip, lsr #6
 308:	78910200 	ldmvc	r1, {r9}
 30c:	26040400 	strcs	r0, [r4], -r0, lsl #8
 310:	05000001 	streq	r0, [r0, #-1]
 314:	00720801 	rsbseq	r0, r2, r1, lsl #16
 318:	74080000 	strvc	r0, [r8], #-0
 31c:	0100706f 	tsteq	r0, pc, rrx
 320:	00012008 	andeq	r2, r1, r8
 324:	d4030500 	strle	r0, [r3], #-1280	; 0x500
 328:	09000094 	stmdbeq	r0, {r2, r4, r7}
 32c:	00000127 	andeq	r0, r0, r7, lsr #2
 330:	01200901 	teqeq	r0, r1, lsl #18
 334:	03050000 	movweq	r0, #20480	; 0x5000
 338:	000094d8 	ldrdeq	r9, [r0], -r8
 33c:	0000e30d 	andeq	lr, r0, sp, lsl #6
 340:	4d060100 	stfmis	f0, [r6, #-0]
 344:	01000000 	mrseq	r0, (UNDEF: 0)
 348:	94d00305 	ldrbls	r0, [r0], #773	; 0x305
 34c:	ee000000 	cdp	0, 0, cr0, cr0, cr0, {0}
 350:	02000000 	andeq	r0, r0, #0
 354:	00019600 	andeq	r9, r1, r0, lsl #12
 358:	14010400 	strne	r0, [r1], #-1024	; 0x400
 35c:	01000000 	mrseq	r0, (UNDEF: 0)
 360:	0000013c 	andeq	r0, r0, ip, lsr r1
 364:	0000002a 	andeq	r0, r0, sl, lsr #32
 368:	00008310 	andeq	r8, r0, r0, lsl r3
 36c:	000084a4 	andeq	r8, r0, r4, lsr #9
 370:	00000136 	andeq	r0, r0, r6, lsr r1
 374:	a5070202 	strge	r0, [r7, #-514]	; 0x202
 378:	02000000 	andeq	r0, r0, #0
 37c:	00ab0704 	adceq	r0, fp, r4, lsl #14
 380:	01020000 	mrseq	r0, (UNDEF: 2)
 384:	00006908 	andeq	r6, r0, r8, lsl #18
 388:	48010300 	stmdami	r1, {r8, r9}
 38c:	01000001 	tsteq	r0, r1
 390:	0083101c 	addeq	r1, r3, ip, lsl r0
 394:	00835c00 	addeq	r5, r3, r0, lsl #24
 398:	0000f800 	andeq	pc, r0, r0, lsl #16
 39c:	00610100 	rsbeq	r0, r1, r0, lsl #2
 3a0:	72040000 	andvc	r0, r4, #0
 3a4:	1e010078 	mcrne	0, 0, r0, cr1, cr8, {3}
 3a8:	0000002c 	andeq	r0, r0, ip, lsr #32
 3ac:	00749102 	rsbseq	r9, r4, r2, lsl #2
 3b0:	016a0105 	cmneq	sl, r5, lsl #2
 3b4:	25010000 	strcs	r0, [r1, #-0]
 3b8:	00835c01 	addeq	r5, r3, r1, lsl #24
 3bc:	0083b400 	addeq	fp, r3, r0, lsl #8
 3c0:	00012400 	andeq	r2, r1, r0, lsl #8
 3c4:	00970100 	addseq	r0, r7, r0, lsl #2
 3c8:	84060000 	strhi	r0, [r6], #-0
 3cc:	01000001 	tsteq	r0, r1
 3d0:	00002c25 	andeq	r2, r0, r5, lsr #24
 3d4:	6c910200 	lfmvs	f0, 4, [r1], {0}
 3d8:	00787204 	rsbseq	r7, r8, r4, lsl #4
 3dc:	002c2701 	eoreq	r2, ip, r1, lsl #14
 3e0:	91020000 	mrsls	r0, (UNDEF: 2)
 3e4:	01070074 	tsteq	r7, r4, ror r0
 3e8:	0000018d 	andeq	r0, r0, sp, lsl #3
 3ec:	83b43301 			; <UNDEFINED> instruction: 0x83b43301
 3f0:	83cc0000 	bichi	r0, ip, #0
 3f4:	01500000 	cmpeq	r0, r0
 3f8:	07010000 	streq	r0, [r1, -r0]
 3fc:	00014101 	andeq	r4, r1, r1, lsl #2
 400:	cc390100 	ldfgts	f0, [r9], #-0
 404:	e4000083 	str	r0, [r0], #-131	; 0x83
 408:	70000083 	andvc	r0, r0, r3, lsl #1
 40c:	01000001 	tsteq	r0, r1
 410:	01620108 	cmneq	r2, r8, lsl #2
 414:	42010000 	andmi	r0, r1, #0
 418:	000083e4 	andeq	r8, r0, r4, ror #7
 41c:	000084a4 	andeq	r8, r0, r4, lsr #9
 420:	00000190 	muleq	r0, r0, r1
 424:	61720401 	cmnvs	r2, r1, lsl #8
 428:	2c440100 	stfcse	f0, [r4], {-0}
 42c:	02000000 	andeq	r0, r0, #0
 430:	72047491 	andvc	r7, r4, #-1862270976	; 0x91000000
 434:	45010078 	strmi	r0, [r1, #-120]	; 0x78
 438:	0000002c 	andeq	r0, r0, ip, lsr #32
 43c:	00709102 	rsbseq	r9, r0, r2, lsl #2
 440:	0002ee00 	andeq	lr, r2, r0, lsl #28
 444:	31000200 	mrscc	r0, R8_usr
 448:	04000002 	streq	r0, [r0], #-2
 44c:	00001401 	andeq	r1, r0, r1, lsl #8
 450:	01dc0100 	bicseq	r0, ip, r0, lsl #2
 454:	002a0000 	eoreq	r0, sl, r0
 458:	84a40000 	strthi	r0, [r4], #0
 45c:	8a080000 	bhi	200464 <__bss_end+0x1f6f58>
 460:	01890000 	orreq	r0, r9, r0
 464:	02020000 	andeq	r0, r2, #0
 468:	0000a507 	andeq	sl, r0, r7, lsl #10
 46c:	01950300 	orrseq	r0, r5, r0, lsl #6
 470:	05020000 	streq	r0, [r2, #-0]
 474:	00000037 	andeq	r0, r0, r7, lsr r0
 478:	ab070402 	blge	1c1488 <__bss_end+0x1b7f7c>
 47c:	02000000 	andeq	r0, r0, #0
 480:	00690801 	rsbeq	r0, r9, r1, lsl #16
 484:	70030000 	andvc	r0, r3, r0
 488:	03000002 	movweq	r0, #2
 48c:	00005007 	andeq	r5, r0, r7
 490:	56040400 	strpl	r0, [r4], -r0, lsl #8
 494:	05000000 	streq	r0, [r0, #-0]
 498:	03010601 	movweq	r0, #5633	; 0x1601
 49c:	00008508 	andeq	r8, r0, r8, lsl #10
 4a0:	02530700 	subseq	r0, r3, #0
 4a4:	07000000 	streq	r0, [r0, -r0]
 4a8:	000001eb 	andeq	r0, r0, fp, ror #3
 4ac:	024b0701 	subeq	r0, fp, #262144	; 0x40000
 4b0:	07020000 	streq	r0, [r2, -r0]
 4b4:	000001e4 	andeq	r0, r0, r4, ror #3
 4b8:	01a50703 			; <UNDEFINED> instruction: 0x01a50703
 4bc:	07040000 	streq	r0, [r4, -r0]
 4c0:	000001f1 	strdeq	r0, [r0], -r1
 4c4:	07030005 	streq	r0, [r3, -r5]
 4c8:	03000002 	movweq	r0, #2
 4cc:	0000580f 	andeq	r5, r0, pc, lsl #16
 4d0:	02150800 	andseq	r0, r5, #0
 4d4:	03080000 	movweq	r0, #32768	; 0x8000
 4d8:	0000b712 	andeq	fp, r0, r2, lsl r7
 4dc:	70730900 	rsbsvc	r0, r3, r0, lsl #18
 4e0:	b7130300 	ldrlt	r0, [r3, -r0, lsl #6]
 4e4:	02000000 	andeq	r0, r0, #0
 4e8:	6c090023 	stcvs	0, cr0, [r9], {35}	; 0x23
 4ec:	14030072 	strne	r0, [r3], #-114	; 0x72
 4f0:	000000b7 	strheq	r0, [r0], -r7
 4f4:	00042302 	andeq	r2, r4, r2, lsl #6
 4f8:	002c0404 	eoreq	r0, ip, r4, lsl #8
 4fc:	1b080000 	blne	200504 <__bss_end+0x1f6ff8>
 500:	18000002 	stmdane	r0, {r1}
 504:	011c1903 	tsteq	ip, r3, lsl #18
 508:	0f0a0000 	svceq	0x000a0000
 50c:	03000002 	movweq	r0, #2
 510:	0000851a 	andeq	r8, r0, sl, lsl r5
 514:	00230200 	eoreq	r0, r3, r0, lsl #4
 518:	78746309 	ldmdavc	r4!, {r0, r3, r8, r9, sp, lr}^
 51c:	1c1b0300 	ldcne	3, cr0, [fp], {-0}
 520:	02000001 	andeq	r0, r0, #1
 524:	050a0423 	streq	r0, [sl, #-1059]	; 0x423
 528:	03000001 	movweq	r0, #1
 52c:	0001221c 	andeq	r2, r1, ip, lsl r2
 530:	08230200 	stmdaeq	r3!, {r9}
 534:	0002830a 	andeq	r8, r2, sl, lsl #6
 538:	281d0300 	ldmdacs	sp, {r8, r9}
 53c:	02000001 	andeq	r0, r0, #1
 540:	66090c23 	strvs	r0, [r9], -r3, lsr #24
 544:	451e0300 	ldrmi	r0, [lr, #-768]	; 0x300
 548:	02000000 	andeq	r0, r0, #0
 54c:	840a1023 	strhi	r1, [sl], #-35	; 0x23
 550:	03000001 	movweq	r0, #1
 554:	0000371f 	andeq	r3, r0, pc, lsl r7
 558:	14230200 	strtne	r0, [r3], #-512	; 0x200
 55c:	90040400 	andls	r0, r4, r0, lsl #8
 560:	04000000 	streq	r0, [r0], #-0
 564:	0000bd04 	andeq	fp, r0, r4, lsl #26
 568:	0c040b00 	stceq	11, cr0, [r4], {-0}
 56c:	00029101 	andeq	r9, r2, r1, lsl #2
 570:	010c0100 	mrseq	r0, (UNDEF: 28)
 574:	000084a4 	andeq	r8, r0, r4, lsr #9
 578:	0000855c 	andeq	r8, r0, ip, asr r5
 57c:	000001bc 			; <UNDEFINED> instruction: 0x000001bc
 580:	00016d01 	andeq	r6, r1, r1, lsl #26
 584:	74630d00 	strbtvc	r0, [r3], #-3328	; 0xd00
 588:	0c010078 	stceq	0, cr0, [r1], {120}	; 0x78
 58c:	0000011c 	andeq	r0, r0, ip, lsl r1
 590:	0d749102 	ldfeqp	f1, [r4, #-8]!
 594:	0c010066 	stceq	0, cr0, [r1], {102}	; 0x66
 598:	00000045 	andeq	r0, r0, r5, asr #32
 59c:	0e709102 	expeqs	f1, f2
 5a0:	000001fc 	strdeq	r0, [r0], -ip
 5a4:	00370c01 	eorseq	r0, r7, r1, lsl #24
 5a8:	91020000 	mrsls	r0, (UNDEF: 2)
 5ac:	010c006c 	tsteq	ip, ip, rrx
 5b0:	0000019c 	muleq	r0, ip, r1
 5b4:	5c011a01 	stcpl	10, cr1, [r1], {1}
 5b8:	d0000085 	andle	r0, r0, r5, lsl #1
 5bc:	e8000085 	stmda	r0, {r0, r2, r7}
 5c0:	01000001 	tsteq	r0, r1
 5c4:	000001be 			; <UNDEFINED> instruction: 0x000001be
 5c8:	6263700d 	rsbvs	r7, r3, #13
 5cc:	221a0100 	andscs	r0, sl, #0
 5d0:	02000001 	andeq	r0, r0, #1
 5d4:	660d7491 			; <UNDEFINED> instruction: 0x660d7491
 5d8:	451a0100 	ldrmi	r0, [sl, #-256]	; 0x100
 5dc:	02000000 	andeq	r0, r0, #0
 5e0:	fc0e7091 	stc2	0, cr7, [lr], {145}	; 0x91
 5e4:	01000001 	tsteq	r0, r1
 5e8:	0000371a 	andeq	r3, r0, sl, lsl r7
 5ec:	6c910200 	lfmvs	f0, 4, [r1], {0}
 5f0:	0001840e 	andeq	r8, r1, lr, lsl #8
 5f4:	371a0100 	ldrcc	r0, [sl, -r0, lsl #2]
 5f8:	02000000 	andeq	r0, r0, #0
 5fc:	0c006891 	stceq	8, cr6, [r0], {145}	; 0x91
 600:	00025b01 	andeq	r5, r2, r1, lsl #22
 604:	01230100 	teqeq	r3, r0, lsl #2
 608:	000085d0 	ldrdeq	r8, [r0], -r0
 60c:	000086bc 			; <UNDEFINED> instruction: 0x000086bc
 610:	00000214 	andeq	r0, r0, r4, lsl r2
 614:	00021d01 	andeq	r1, r2, r1, lsl #26
 618:	00660d00 	rsbeq	r0, r6, r0, lsl #26
 61c:	00452301 	subeq	r2, r5, r1, lsl #6
 620:	91020000 	mrsls	r0, (UNDEF: 2)
 624:	02830e6c 	addeq	r0, r3, #1728	; 0x6c0
 628:	23010000 	movwcs	r0, #4096	; 0x1000
 62c:	00000128 	andeq	r0, r0, r8, lsr #2
 630:	0e689102 	lgneqe	f1, f2
 634:	000001fc 	strdeq	r0, [r0], -ip
 638:	00372301 	eorseq	r2, r7, r1, lsl #6
 63c:	91020000 	mrsls	r0, (UNDEF: 2)
 640:	01840e64 	orreq	r0, r4, r4, ror #28
 644:	23010000 	movwcs	r0, #4096	; 0x1000
 648:	00000037 	andeq	r0, r0, r7, lsr r0
 64c:	0f609102 	svceq	0x00609102
 650:	00626370 	rsbeq	r6, r2, r0, ror r3
 654:	01222601 	teqeq	r2, r1, lsl #12
 658:	91020000 	mrsls	r0, (UNDEF: 2)
 65c:	01100074 	tsteq	r0, r4, ror r0
 660:	0000022c 	andeq	r0, r0, ip, lsr #4
 664:	86bc3801 	ldrthi	r3, [ip], r1, lsl #16
 668:	86ec0000 	strbthi	r0, [ip], r0
 66c:	02400000 	subeq	r0, r0, #0
 670:	11010000 	mrsne	r0, (UNDEF: 1)
 674:	00026a01 	andeq	r6, r2, r1, lsl #20
 678:	ec410100 	stfe	f0, [r1], {-0}
 67c:	1c000086 	stcne	0, cr0, [r0], {134}	; 0x86
 680:	60000088 	andvs	r0, r0, r8, lsl #1
 684:	01000002 	tsteq	r0, r2
 688:	0000025a 	andeq	r0, r0, sl, asr r2
 68c:	0001c912 	andeq	ip, r1, r2, lsl r9
 690:	22430100 	subcs	r0, r3, #0
 694:	02000001 	andeq	r0, r0, #1
 698:	10007491 	mulne	r0, r1, r4
 69c:	0000b801 	andeq	fp, r0, r1, lsl #16
 6a0:	1c540100 	ldfnee	f0, [r4], {-0}
 6a4:	ac000088 	stcge	0, cr0, [r0], {136}	; 0x88
 6a8:	8c000088 	stchi	0, cr0, [r0], {136}	; 0x88
 6ac:	01000002 	tsteq	r0, r2
 6b0:	02210113 	eoreq	r0, r1, #-1073741820	; 0xc0000004
 6b4:	6e010000 	cdpvs	0, 0, cr0, cr1, cr0, {0}
 6b8:	000088ac 	andeq	r8, r0, ip, lsr #17
 6bc:	0000893c 	andeq	r8, r0, ip, lsr r9
 6c0:	01007d02 	tsteq	r0, r2, lsl #26
 6c4:	01b50113 			; <UNDEFINED> instruction: 0x01b50113
 6c8:	83010000 	movwhi	r0, #4096	; 0x1000
 6cc:	0000893c 	andeq	r8, r0, ip, lsr r9
 6d0:	00008a08 	andeq	r8, r0, r8, lsl #20
 6d4:	01007d02 	tsteq	r0, r2, lsl #26
 6d8:	00027714 	andeq	r7, r2, r4, lsl r7
 6dc:	1c060100 	stfnes	f0, [r6], {-0}
 6e0:	01000001 	tsteq	r0, r1
 6e4:	95080305 	strls	r0, [r8, #-773]	; 0x305
 6e8:	ac140000 	ldcge	0, cr0, [r4], {-0}
 6ec:	01000001 	tsteq	r0, r1
 6f0:	00012207 	andeq	r2, r1, r7, lsl #4
 6f4:	03050100 	movweq	r0, #20736	; 0x5100
 6f8:	000094dc 	ldrdeq	r9, [r0], -ip
 6fc:	00024214 	andeq	r4, r2, r4, lsl r2
 700:	22080100 	andcs	r0, r8, #0
 704:	01000001 	tsteq	r0, r1
 708:	94e00305 	strbtls	r0, [r0], #773	; 0x305
 70c:	88140000 	ldmdahi	r4, {}	; <UNPREDICTABLE>
 710:	01000002 	tsteq	r0, r2
 714:	00012209 	andeq	r2, r1, r9, lsl #4
 718:	03050100 	movweq	r0, #20736	; 0x5100
 71c:	000094e4 	andeq	r9, r0, r4, ror #9
 720:	00023214 	andeq	r3, r2, r4, lsl r2
 724:	220a0100 	andcs	r0, sl, #0
 728:	01000001 	tsteq	r0, r1
 72c:	94e80305 	strbtls	r0, [r8], #773	; 0x305
 730:	2b000000 	blcs	738 <_start-0x78c8>
 734:	02000004 	andeq	r0, r0, #4
 738:	00036200 	andeq	r6, r3, r0, lsl #4
 73c:	14010400 	strne	r0, [r1], #-1024	; 0x400
 740:	01000000 	mrseq	r0, (UNDEF: 0)
 744:	000002c6 	andeq	r0, r0, r6, asr #5
 748:	0000002a 	andeq	r0, r0, sl, lsr #32
 74c:	00008a08 	andeq	r8, r0, r8, lsl #20
 750:	000094cc 	andeq	r9, r0, ip, asr #9
 754:	00000240 	andeq	r0, r0, r0, asr #4
 758:	a5070202 	strge	r0, [r7, #-514]	; 0x202
 75c:	03000000 	movweq	r0, #0
 760:	00000195 	muleq	r0, r5, r1
 764:	00370503 	eorseq	r0, r7, r3, lsl #10
 768:	04020000 	streq	r0, [r2], #-0
 76c:	0000ab07 	andeq	sl, r0, r7, lsl #22
 770:	038b0300 	orreq	r0, fp, #0
 774:	06030000 	streq	r0, [r3], -r0
 778:	00000049 	andeq	r0, r0, r9, asr #32
 77c:	69080102 	stmdbvs	r8, {r1, r8}
 780:	04000000 	streq	r0, [r0], #-0
 784:	950e0104 	strls	r0, [lr, #-260]	; 0x104
 788:	05000000 	streq	r0, [r0, #-0]
 78c:	000003a7 	andeq	r0, r0, r7, lsr #7
 790:	8082f180 	addhi	pc, r2, r0, lsl #3
 794:	02b90502 	adcseq	r0, r9, #8388608	; 0x800000
 798:	f1900000 			; <UNDEFINED> instruction: 0xf1900000
 79c:	05028082 	streq	r8, [r2, #-130]	; 0x82
 7a0:	00000334 	andeq	r0, r0, r4, lsr r3
 7a4:	8082f194 	umullhi	pc, r2, r4, r1	; <UNPREDICTABLE>
 7a8:	031d0502 	tsteq	sp, #8388608	; 0x800000
 7ac:	f1980000 			; <UNDEFINED> instruction: 0xf1980000
 7b0:	05028082 	streq	r8, [r2, #-130]	; 0x82
 7b4:	00000391 	muleq	r0, r1, r3
 7b8:	8082f19c 	umullhi	pc, r2, ip, r1	; <UNPREDICTABLE>
 7bc:	03700502 	cmneq	r0, #8388608	; 0x800000
 7c0:	f1a00000 			; <UNDEFINED> instruction: 0xf1a00000
 7c4:	00028082 	andeq	r8, r2, r2, lsl #1
 7c8:	0002cb06 	andeq	ip, r2, r6, lsl #22
 7cc:	011f0100 	tsteq	pc, r0, lsl #2
 7d0:	00008a08 	andeq	r8, r0, r8, lsl #20
 7d4:	00008a30 	andeq	r8, r0, r0, lsr sl
 7d8:	000002ac 	andeq	r0, r0, ip, lsr #5
 7dc:	0000d901 	andeq	sp, r0, r1, lsl #18
 7e0:	65720700 	ldrbvs	r0, [r2, #-1792]!	; 0x700
 7e4:	1f010067 	svcne	0x00010067
 7e8:	0000002c 	andeq	r0, r0, ip, lsr #32
 7ec:	08749102 	ldmdaeq	r4!, {r1, r8, ip, pc}^
 7f0:	000002ed 	andeq	r0, r0, sp, ror #5
 7f4:	002c1f01 	eoreq	r1, ip, r1, lsl #30
 7f8:	91020000 	mrsls	r0, (UNDEF: 2)
 7fc:	74700970 	ldrbtvc	r0, [r0], #-2416	; 0x970
 800:	20010072 	andcs	r0, r1, r2, ror r0
 804:	000000d9 	ldrdeq	r0, [r0], -r9
 808:	007c9102 	rsbseq	r9, ip, r2, lsl #2
 80c:	002c040a 	eoreq	r0, ip, sl, lsl #8
 810:	af0b0000 	svcge	0x000b0000
 814:	01000002 	tsteq	r0, r2
 818:	002c0127 	eoreq	r0, ip, r7, lsr #2
 81c:	8a300000 	bhi	c00824 <__bss_end+0xbf7318>
 820:	8a640000 	bhi	1900828 <__bss_end+0x18f731c>
 824:	02cc0000 	sbceq	r0, ip, #0
 828:	27010000 	strcs	r0, [r1, -r0]
 82c:	07000001 	streq	r0, [r0, -r1]
 830:	00676572 	rsbeq	r6, r7, r2, ror r5
 834:	002c2701 	eoreq	r2, ip, r1, lsl #14
 838:	91020000 	mrsls	r0, (UNDEF: 2)
 83c:	7470096c 	ldrbtvc	r0, [r0], #-2412	; 0x96c
 840:	28010072 	stmdacs	r1, {r1, r4, r5, r6}
 844:	000000d9 	ldrdeq	r0, [r0], -r9
 848:	0c749102 	ldfeqp	f1, [r4], #-8
 84c:	000002ed 	andeq	r0, r0, sp, ror #5
 850:	002c2901 	eoreq	r2, ip, r1, lsl #18
 854:	91020000 	mrsls	r0, (UNDEF: 2)
 858:	010d0070 	tsteq	sp, r0, ror r0
 85c:	0000034f 	andeq	r0, r0, pc, asr #6
 860:	64011202 	strvs	r1, [r1], #-514	; 0x202
 864:	e000008a 	and	r0, r0, sl, lsl #1
 868:	f800008a 			; <UNDEFINED> instruction: 0xf800008a
 86c:	01000002 	tsteq	r0, r2
 870:	0000016c 	andeq	r0, r0, ip, ror #2
 874:	00029a08 	andeq	r9, r2, r8, lsl #20
 878:	2c120200 	lfmcs	f0, 4, [r2], {-0}
 87c:	02000000 	andeq	r0, r0, #0
 880:	2c086c91 	stccs	12, cr6, [r8], {145}	; 0x91
 884:	02000003 	andeq	r0, r0, #3
 888:	00002c12 	andeq	r2, r0, r2, lsl ip
 88c:	68910200 	ldmvs	r1, {r9}
 890:	0002db0c 	andeq	sp, r2, ip, lsl #22
 894:	2c140200 	lfmcs	f0, 4, [r4], {-0}
 898:	02000000 	andeq	r0, r0, #0
 89c:	0e007491 	mcreq	4, 0, r7, cr0, cr1, {4}
 8a0:	00034301 	andeq	r4, r3, r1, lsl #6
 8a4:	012f0200 	teqeq	pc, r0, lsl #4
 8a8:	0000002c 	andeq	r0, r0, ip, lsr #32
 8ac:	00008ae0 	andeq	r8, r0, r0, ror #21
 8b0:	00008b7c 	andeq	r8, r0, ip, ror fp
 8b4:	00000324 	andeq	r0, r0, r4, lsr #6
 8b8:	0001a701 	andeq	sl, r1, r1, lsl #14
 8bc:	032c0800 	teqeq	ip, #0
 8c0:	2f020000 	svccs	0x00020000
 8c4:	0000002c 	andeq	r0, r0, ip, lsr #32
 8c8:	0c6c9102 	stfeqp	f1, [ip], #-8
 8cc:	000002db 	ldrdeq	r0, [r0], -fp
 8d0:	002c3102 	eoreq	r3, ip, r2, lsl #2
 8d4:	91020000 	mrsls	r0, (UNDEF: 2)
 8d8:	010f0074 	tsteq	pc, r4, ror r0	; <UNPREDICTABLE>
 8dc:	0000008f 	andeq	r0, r0, pc, lsl #1
 8e0:	01fc4c02 	mvnseq	r4, r2, lsl #24
 8e4:	8b7c0000 	blhi	1f008ec <__bss_end+0x1ef73e0>
 8e8:	91080000 	mrsls	r0, (UNDEF: 8)
 8ec:	03500000 	cmpeq	r0, #0
 8f0:	fc010000 	stc2	0, cr0, [r1], {-0}
 8f4:	0c000001 	stceq	0, cr0, [r0], {1}
 8f8:	000002f2 	strdeq	r0, [r0], -r2
 8fc:	002c4e02 	eoreq	r4, ip, r2, lsl #28
 900:	91020000 	mrsls	r0, (UNDEF: 2)
 904:	626d0968 	rsbvs	r0, sp, #1703936	; 0x1a0000
 908:	1a4f0200 	bne	13c1110 <__bss_end+0x13b7c04>
 90c:	02000002 	andeq	r0, r0, #2
 910:	b40c0074 	strlt	r0, [ip], #-116	; 0x74
 914:	02000003 	andeq	r0, r0, #3
 918:	00002c68 	andeq	r2, r0, r8, ror #24
 91c:	6c910200 	lfmvs	f0, 4, [r1], {0}
 920:	0002a20c 	andeq	sl, r2, ip, lsl #4
 924:	378f0200 	strcc	r0, [pc, r0, lsl #4]
 928:	02000000 	andeq	r0, r0, #0
 92c:	10006491 	mulne	r0, r1, r4
 930:	6e690504 	cdpvs	5, 6, cr0, cr9, cr4, {0}
 934:	37110074 			; <UNDEFINED> instruction: 0x37110074
 938:	13000000 	movwne	r0, #0
 93c:	12000002 	andne	r0, r0, #2
 940:	00000213 	andeq	r0, r0, r3, lsl r2
 944:	04020063 	streq	r0, [r2], #-99	; 0x63
 948:	00036707 	andeq	r6, r3, r7, lsl #14
 94c:	02031300 	andeq	r1, r3, #0
 950:	01140000 	tsteq	r4, r0
 954:	0000030d 	andeq	r0, r0, sp, lsl #6
 958:	0801c502 	stmdaeq	r1, {r1, r8, sl, lr, pc}
 95c:	a4000091 	strge	r0, [r0], #-145	; 0x91
 960:	7c000091 	stcvc	0, cr0, [r0], {145}	; 0x91
 964:	01000003 	tsteq	r0, r3
 968:	00000298 	muleq	r0, r8, r2
 96c:	02007807 	andeq	r7, r0, #458752	; 0x70000
 970:	00002cc5 	andeq	r2, r0, r5, asr #25
 974:	74910200 	ldrvc	r0, [r1], #512	; 0x200
 978:	02007907 	andeq	r7, r0, #114688	; 0x1c000
 97c:	00002cc5 	andeq	r2, r0, r5, asr #25
 980:	70910200 	addsvc	r0, r1, r0, lsl #4
 984:	64657207 	strbtvs	r7, [r5], #-519	; 0x207
 988:	3ec50200 	cdpcc	2, 12, cr0, cr5, cr0, {0}
 98c:	02000000 	andeq	r0, r0, #0
 990:	f9086f91 			; <UNDEFINED> instruction: 0xf9086f91
 994:	02000002 	andeq	r0, r0, #2
 998:	00003ec5 	andeq	r3, r0, r5, asr #29
 99c:	6e910200 	cdpvs	2, 9, cr0, cr1, cr0, {0}
 9a0:	0002e208 	andeq	lr, r2, r8, lsl #4
 9a4:	3ec50200 	cdpcc	2, 12, cr0, cr5, cr0, {0}
 9a8:	02000000 	andeq	r0, r0, #0
 9ac:	70090091 	mulvc	r9, r1, r0
 9b0:	02007274 	andeq	r7, r0, #1073741831	; 0x40000007
 9b4:	000298c9 	andeq	r9, r2, r9, asr #17
 9b8:	7c910200 	lfmvc	f0, 4, [r1], {0}
 9bc:	0003840c 	andeq	r8, r3, ip, lsl #8
 9c0:	2cca0200 	sfmcs	f0, 2, [sl], {0}
 9c4:	02000000 	andeq	r0, r0, #0
 9c8:	0a007891 	beq	1ec14 <__bss_end+0x15708>
 9cc:	00029e04 	andeq	r9, r2, r4, lsl #28
 9d0:	002c1300 	eoreq	r1, ip, r0, lsl #6
 9d4:	01150000 	tsteq	r5, r0
 9d8:	00000006 	andeq	r0, r0, r6
 9dc:	91a4d602 			; <UNDEFINED> instruction: 0x91a4d602
 9e0:	92c40000 	sbcls	r0, r4, #0
 9e4:	039c0000 	orrseq	r0, ip, #0
 9e8:	ff010000 			; <UNDEFINED> instruction: 0xff010000
 9ec:	09000002 	stmdbeq	r0, {r1}
 9f0:	00646572 	rsbeq	r6, r4, r2, ror r5
 9f4:	003ed702 	eorseq	sp, lr, r2, lsl #14
 9f8:	91020000 	mrsls	r0, (UNDEF: 2)
 9fc:	02f90c77 	rscseq	r0, r9, #30464	; 0x7700
 a00:	d7020000 	strle	r0, [r2, -r0]
 a04:	0000003e 	andeq	r0, r0, lr, lsr r0
 a08:	0c769102 	ldfeqp	f1, [r6], #-8
 a0c:	000002e2 	andeq	r0, r0, r2, ror #5
 a10:	003ed702 	eorseq	sp, lr, r2, lsl #14
 a14:	91020000 	mrsls	r0, (UNDEF: 2)
 a18:	00780975 	rsbseq	r0, r8, r5, ror r9
 a1c:	002cd802 	eoreq	sp, ip, r2, lsl #16
 a20:	91020000 	mrsls	r0, (UNDEF: 2)
 a24:	00790970 	rsbseq	r0, r9, r0, ror r9
 a28:	002cd802 	eoreq	sp, ip, r2, lsl #16
 a2c:	91020000 	mrsls	r0, (UNDEF: 2)
 a30:	010d006c 	tsteq	sp, ip, rrx
 a34:	00000087 	andeq	r0, r0, r7, lsl #1
 a38:	c401ee02 	strgt	lr, [r1], #-3586	; 0xe02
 a3c:	60000092 	mulvs	r0, r2, r0
 a40:	c8000093 	stmdagt	r0, {r0, r1, r4, r7}
 a44:	01000003 	tsteq	r0, r3
 a48:	00000332 	andeq	r0, r0, r2, lsr r3
 a4c:	02007907 	andeq	r7, r0, #114688	; 0x1c000
 a50:	0001fcee 	andeq	pc, r1, lr, ror #25
 a54:	6c910200 	lfmvs	f0, 4, [r1], {0}
 a58:	02007809 	andeq	r7, r0, #589824	; 0x90000
 a5c:	00002cef 	andeq	r2, r0, pc, ror #25
 a60:	74910200 	ldrvc	r0, [r1], #512	; 0x200
 a64:	20010d00 	andcs	r0, r1, r0, lsl #26
 a68:	02000000 	andeq	r0, r0, #0
 a6c:	936001fb 	cmnls	r0, #-1073741762	; 0xc000003e
 a70:	93f40000 	mvnsls	r0, #0
 a74:	03f40000 	mvnseq	r0, #0
 a78:	65010000 	strvs	r0, [r1, #-0]
 a7c:	07000003 	streq	r0, [r0, -r3]
 a80:	fb020079 	blx	80c6e <__bss_end+0x77762>
 a84:	000001fc 	strdeq	r0, [r0], -ip
 a88:	096c9102 	stmdbeq	ip!, {r1, r8, ip, pc}^
 a8c:	fc020078 	stc2	0, cr0, [r2], {120}	; 0x78
 a90:	0000002c 	andeq	r0, r0, ip, lsr #32
 a94:	00749102 	rsbseq	r9, r4, r2, lsl #2
 a98:	000b0116 	andeq	r0, fp, r6, lsl r1
 a9c:	08020000 	stmdaeq	r2, {}	; <UNPREDICTABLE>
 aa0:	93f40101 	mvnsls	r0, #1073741824	; 0x40000000
 aa4:	94880000 	strls	r0, [r8], #0
 aa8:	04200000 	strteq	r0, [r0], #-0
 aac:	9b010000 	blls	40ab4 <__bss_end+0x375a8>
 ab0:	17000003 	strne	r0, [r0, -r3]
 ab4:	08020079 	stmdaeq	r2, {r0, r3, r4, r5, r6}
 ab8:	0001fc01 	andeq	pc, r1, r1, lsl #24
 abc:	6c910200 	lfmvs	f0, 4, [r1], {0}
 ac0:	02007818 	andeq	r7, r0, #1572864	; 0x180000
 ac4:	002c0109 	eoreq	r0, ip, r9, lsl #2
 ac8:	91020000 	mrsls	r0, (UNDEF: 2)
 acc:	01190074 	tsteq	r9, r4, ror r0
 ad0:	0000007d 	andeq	r0, r0, sp, ror r0
 ad4:	01011202 	tsteq	r1, r2, lsl #4
 ad8:	000001fc 	strdeq	r0, [r0], -ip
 adc:	00009488 	andeq	r9, r0, r8, lsl #9
 ae0:	000094cc 	andeq	r9, r0, ip, asr #9
 ae4:	0000044c 	andeq	r0, r0, ip, asr #8
 ae8:	0003c801 	andeq	ip, r3, r1, lsl #16
 aec:	00791700 	rsbseq	r1, r9, r0, lsl #14
 af0:	fc011202 	stc2	2, cr1, [r1], {2}
 af4:	02000001 	andeq	r0, r0, #1
 af8:	0c007c91 	stceq	12, cr7, [r0], {145}	; 0x91
 afc:	0000035c 	andeq	r0, r0, ip, asr r3
 b00:	002c0702 	eoreq	r0, ip, r2, lsl #14
 b04:	03050000 	movweq	r0, #20480	; 0x5000
 b08:	000094ec 	andeq	r9, r0, ip, ror #9
 b0c:	0002ff0c 	andeq	pc, r2, ip, lsl #30
 b10:	2c080200 	sfmcs	f0, 4, [r8], {-0}
 b14:	05000000 	streq	r0, [r0, #-0]
 b18:	0094f003 	addseq	pc, r4, r3
 b1c:	03bb0c00 			; <UNDEFINED> instruction: 0x03bb0c00
 b20:	09020000 	stmdbeq	r2, {}	; <UNPREDICTABLE>
 b24:	0000002c 	andeq	r0, r0, ip, lsr #32
 b28:	94f40305 	ldrbtls	r0, [r4], #773	; 0x305
 b2c:	d60c0000 	strle	r0, [ip], -r0
 b30:	02000002 	andeq	r0, r0, #2
 b34:	00002c09 	andeq	r2, r0, r9, lsl #24
 b38:	f8030500 			; <UNDEFINED> instruction: 0xf8030500
 b3c:	0c000094 	stceq	0, cr0, [r0], {148}	; 0x94
 b40:	0000037e 	andeq	r0, r0, lr, ror r3
 b44:	002c0902 	eoreq	r0, ip, r2, lsl #18
 b48:	03050000 	movweq	r0, #20480	; 0x5000
 b4c:	000094fc 	strdeq	r9, [r0], -ip
 b50:	0002e70c 	andeq	lr, r2, ip, lsl #14
 b54:	2c090200 	sfmcs	f0, 4, [r9], {-0}
 b58:	05000000 	streq	r0, [r0, #-0]
 b5c:	00950003 	addseq	r0, r5, r3
	...

Disassembly of section .debug_abbrev:

00000000 <.debug_abbrev>:
   0:	10001101 	andne	r1, r0, r1, lsl #2
   4:	12011106 	andne	r1, r1, #-2147483647	; 0x80000001
   8:	1b080301 	blne	200c14 <__bss_end+0x1f7708>
   c:	13082508 	movwne	r2, #34056	; 0x8508
  10:	00000005 	andeq	r0, r0, r5
  14:	25011101 	strcs	r1, [r1, #-257]	; 0x101
  18:	030b130e 	movweq	r1, #45838	; 0xb30e
  1c:	110e1b0e 	tstne	lr, lr, lsl #22
  20:	10011201 	andne	r1, r1, r1, lsl #4
  24:	02000006 	andeq	r0, r0, #6
  28:	0b0b0024 	bleq	2c00c0 <__bss_end+0x2b6bb4>
  2c:	0e030b3e 	vmoveq.16	d3[0], r0
  30:	2e030000 	cdpcs	0, 0, cr0, cr3, cr0, {0}
  34:	030c3f01 	movweq	r3, #52993	; 0xcf01
  38:	3b0b3a0e 	blcc	2ce878 <__bss_end+0x2c536c>
  3c:	1201110b 	andne	r1, r1, #-1073741822	; 0xc0000002
  40:	96064001 	strls	r4, [r6], -r1
  44:	13010c42 	movwne	r0, #7234	; 0x1c42
  48:	0b040000 	bleq	100050 <__bss_end+0xf6b44>
  4c:	12011101 	andne	r1, r1, #1073741824	; 0x40000000
  50:	05000001 	streq	r0, [r0, #-1]
  54:	0c3f012e 	ldfeqs	f0, [pc], #-184	; ffffffa4 <__bss_end+0xffff6a98>
  58:	0b3a0e03 	bleq	e8386c <__bss_end+0xe7a360>
  5c:	13490b3b 	movtne	r0, #39739	; 0x9b3b
  60:	13010c3c 	movwne	r0, #7228	; 0x1c3c
  64:	18060000 	stmdane	r6, {}	; <UNPREDICTABLE>
  68:	07000000 	streq	r0, [r0, -r0]
  6c:	0c3f012e 	ldfeqs	f0, [pc], #-184	; ffffffbc <__bss_end+0xffff6ab0>
  70:	0b3a0e03 	bleq	e83884 <__bss_end+0xe7a378>
  74:	13490b3b 	movtne	r0, #39739	; 0x9b3b
  78:	00000c3c 	andeq	r0, r0, ip, lsr ip
  7c:	0b002408 	bleq	90a4 <FramebufferInitialize+0x528>
  80:	030b3e0b 	movweq	r3, #48651	; 0xbe0b
  84:	09000008 	stmdbeq	r0, {r3}
  88:	0c3f012e 	ldfeqs	f0, [pc], #-184	; ffffffd8 <__bss_end+0xffff6acc>
  8c:	0b3a0e03 	bleq	e838a0 <__bss_end+0xe7a394>
  90:	0c270b3b 	stceq	11, cr0, [r7], #-236	; 0xffffff14
  94:	01111349 	tsteq	r1, r9, asr #6
  98:	06400112 			; <UNDEFINED> instruction: 0x06400112
  9c:	010c4296 			; <UNDEFINED> instruction: 0x010c4296
  a0:	0a000013 	beq	f4 <_start-0x7f0c>
  a4:	0e030034 	mcreq	0, 0, r0, cr3, cr4, {1}
  a8:	0b3b0b3a 	bleq	ec2d98 <__bss_end+0xeb988c>
  ac:	0c3f1349 	ldceq	3, cr1, [pc], #-292	; ffffff90 <__bss_end+0xffff6a84>
  b0:	00000a02 	andeq	r0, r0, r2, lsl #20
  b4:	0300340b 	movweq	r3, #1035	; 0x40b
  b8:	3b0b3a08 	blcc	2ce8e0 <__bss_end+0x2c53d4>
  bc:	3f13490b 	svccc	0x0013490b
  c0:	000a020c 	andeq	r0, sl, ip, lsl #4
  c4:	11010000 	mrsne	r0, (UNDEF: 1)
  c8:	130e2501 	movwne	r2, #58625	; 0xe501
  cc:	1b0e030b 	blne	380d00 <__bss_end+0x3777f4>
  d0:	1201110e 	andne	r1, r1, #-2147483645	; 0x80000003
  d4:	00061001 	andeq	r1, r6, r1
  d8:	01130200 	tsteq	r3, r0, lsl #4
  dc:	0b0b0803 	bleq	2c20f0 <__bss_end+0x2b8be4>
  e0:	0b3b0b3a 	bleq	ec2dd0 <__bss_end+0xeb98c4>
  e4:	00001301 	andeq	r1, r0, r1, lsl #6
  e8:	03000d03 	movweq	r0, #3331	; 0xd03
  ec:	3b0b3a0e 	blcc	2ce92c <__bss_end+0x2c5420>
  f0:	3813490b 	ldmdacc	r3, {r0, r1, r3, r8, fp, lr}
  f4:	0400000a 	streq	r0, [r0], #-10
  f8:	0b0b000f 	bleq	2c013c <__bss_end+0x2b6c30>
  fc:	00001349 	andeq	r1, r0, r9, asr #6
 100:	0b002405 	bleq	911c <put_pixel_RGB24+0x14>
 104:	030b3e0b 	movweq	r3, #48651	; 0xbe0b
 108:	0600000e 	streq	r0, [r0], -lr
 10c:	0c3f012e 	ldfeqs	f0, [pc], #-184	; 5c <_start-0x7fa4>
 110:	0b3a0e03 	bleq	e83924 <__bss_end+0xe7a418>
 114:	0c270b3b 	stceq	11, cr0, [r7], #-236	; 0xffffff14
 118:	01111349 	tsteq	r1, r9, asr #6
 11c:	06400112 			; <UNDEFINED> instruction: 0x06400112
 120:	010c4297 			; <UNDEFINED> instruction: 0x010c4297
 124:	07000013 	smladeq	r0, r3, r0, r0
 128:	0e030005 	cdpeq	0, 0, cr0, cr3, cr5, {0}
 12c:	0b3b0b3a 	bleq	ec2e1c <__bss_end+0xeb9910>
 130:	0a021349 	beq	84e5c <__bss_end+0x7b950>
 134:	34080000 	strcc	r0, [r8], #-0
 138:	3a080300 	bcc	200d40 <__bss_end+0x1f7834>
 13c:	490b3b0b 	stmdbmi	fp, {r0, r1, r3, r8, r9, fp, ip, sp}
 140:	000a0213 	andeq	r0, sl, r3, lsl r2
 144:	00340900 	eorseq	r0, r4, r0, lsl #18
 148:	0b3a0e03 	bleq	e8395c <__bss_end+0xe7a450>
 14c:	13490b3b 	movtne	r0, #39739	; 0x9b3b
 150:	00000a02 	andeq	r0, r0, r2, lsl #20
 154:	0b000f0a 	bleq	3d84 <_start-0x427c>
 158:	0b00000b 	bleq	18c <_start-0x7e74>
 15c:	0c3f012e 	ldfeqs	f0, [pc], #-184	; ac <_start-0x7f54>
 160:	0b3a0e03 	bleq	e83974 <__bss_end+0xe7a468>
 164:	0c270b3b 	stceq	11, cr0, [r7], #-236	; 0xffffff14
 168:	01120111 	tsteq	r2, r1, lsl r1
 16c:	42970640 	addsmi	r0, r7, #67108864	; 0x4000000
 170:	0013010c 	andseq	r0, r3, ip, lsl #2
 174:	00050c00 	andeq	r0, r5, r0, lsl #24
 178:	0b3a0803 	bleq	e8218c <__bss_end+0xe78c80>
 17c:	13490b3b 	movtne	r0, #39739	; 0x9b3b
 180:	00000a02 	andeq	r0, r0, r2, lsl #20
 184:	0300340d 	movweq	r3, #1037	; 0x40d
 188:	3b0b3a0e 	blcc	2ce9c8 <__bss_end+0x2c54bc>
 18c:	3f13490b 	svccc	0x0013490b
 190:	000a020c 	andeq	r0, sl, ip, lsl #4
 194:	11010000 	mrsne	r0, (UNDEF: 1)
 198:	130e2501 	movwne	r2, #58625	; 0xe501
 19c:	1b0e030b 	blne	380dd0 <__bss_end+0x3778c4>
 1a0:	1201110e 	andne	r1, r1, #-2147483645	; 0x80000003
 1a4:	00061001 	andeq	r1, r6, r1
 1a8:	00240200 	eoreq	r0, r4, r0, lsl #4
 1ac:	0b3e0b0b 	bleq	f82de0 <__bss_end+0xf798d4>
 1b0:	00000e03 	andeq	r0, r0, r3, lsl #28
 1b4:	3f012e03 	svccc	0x00012e03
 1b8:	3a0e030c 	bcc	380df0 <__bss_end+0x3778e4>
 1bc:	110b3b0b 	tstne	fp, fp, lsl #22
 1c0:	40011201 	andmi	r1, r1, r1, lsl #4
 1c4:	0c429606 	mcrreq	6, 0, r9, r2, cr6
 1c8:	00001301 	andeq	r1, r0, r1, lsl #6
 1cc:	03003404 	movweq	r3, #1028	; 0x404
 1d0:	3b0b3a08 	blcc	2ce9f8 <__bss_end+0x2c54ec>
 1d4:	0213490b 	andseq	r4, r3, #180224	; 0x2c000
 1d8:	0500000a 	streq	r0, [r0, #-10]
 1dc:	0c3f012e 	ldfeqs	f0, [pc], #-184	; 12c <_start-0x7ed4>
 1e0:	0b3a0e03 	bleq	e839f4 <__bss_end+0xe7a4e8>
 1e4:	0c270b3b 	stceq	11, cr0, [r7], #-236	; 0xffffff14
 1e8:	01120111 	tsteq	r2, r1, lsl r1
 1ec:	42960640 	addsmi	r0, r6, #67108864	; 0x4000000
 1f0:	0013010c 	andseq	r0, r3, ip, lsl #2
 1f4:	00050600 	andeq	r0, r5, r0, lsl #12
 1f8:	0b3a0e03 	bleq	e83a0c <__bss_end+0xe7a500>
 1fc:	13490b3b 	movtne	r0, #39739	; 0x9b3b
 200:	00000a02 	andeq	r0, r0, r2, lsl #20
 204:	3f002e07 	svccc	0x00002e07
 208:	3a0e030c 	bcc	380e40 <__bss_end+0x377934>
 20c:	110b3b0b 	tstne	fp, fp, lsl #22
 210:	40011201 	andmi	r1, r1, r1, lsl #4
 214:	0c429606 	mcrreq	6, 0, r9, r2, cr6
 218:	2e080000 	cdpcs	0, 0, cr0, cr8, cr0, {0}
 21c:	030c3f01 	movweq	r3, #52993	; 0xcf01
 220:	3b0b3a0e 	blcc	2cea60 <__bss_end+0x2c5554>
 224:	1201110b 	andne	r1, r1, #-1073741822	; 0xc0000002
 228:	96064001 	strls	r4, [r6], -r1
 22c:	00000c42 	andeq	r0, r0, r2, asr #24
 230:	01110100 	tsteq	r1, r0, lsl #2
 234:	0b130e25 	bleq	4c3ad0 <__bss_end+0x4ba5c4>
 238:	0e1b0e03 	cdpeq	14, 1, cr0, cr11, cr3, {0}
 23c:	01120111 	tsteq	r2, r1, lsl r1
 240:	00000610 	andeq	r0, r0, r0, lsl r6
 244:	0b002402 	bleq	9254 <draw+0xb0>
 248:	030b3e0b 	movweq	r3, #48651	; 0xbe0b
 24c:	0300000e 	movweq	r0, #14
 250:	0e030016 	mcreq	0, 0, r0, cr3, cr6, {0}
 254:	0b3b0b3a 	bleq	ec2f44 <__bss_end+0xeb9a38>
 258:	00001349 	andeq	r1, r0, r9, asr #6
 25c:	0b000f04 	bleq	3e74 <_start-0x418c>
 260:	0013490b 	andseq	r4, r3, fp, lsl #18
 264:	00150500 	andseq	r0, r5, r0, lsl #10
 268:	00000c27 	andeq	r0, r0, r7, lsr #24
 26c:	0b010406 	bleq	4128c <__bss_end+0x37d80>
 270:	3b0b3a0b 	blcc	2ceaa4 <__bss_end+0x2c5598>
 274:	0013010b 	andseq	r0, r3, fp, lsl #2
 278:	00280700 	eoreq	r0, r8, r0, lsl #14
 27c:	0d1c0e03 	ldceq	14, cr0, [ip, #-12]
 280:	13080000 	movwne	r0, #32768	; 0x8000
 284:	0b0e0301 	bleq	380e90 <__bss_end+0x377984>
 288:	3b0b3a0b 	blcc	2ceabc <__bss_end+0x2c55b0>
 28c:	0013010b 	andseq	r0, r3, fp, lsl #2
 290:	000d0900 	andeq	r0, sp, r0, lsl #18
 294:	0b3a0803 	bleq	e822a8 <__bss_end+0xe78d9c>
 298:	13490b3b 	movtne	r0, #39739	; 0x9b3b
 29c:	00000a38 	andeq	r0, r0, r8, lsr sl
 2a0:	03000d0a 	movweq	r0, #3338	; 0xd0a
 2a4:	3b0b3a0e 	blcc	2ceae4 <__bss_end+0x2c55d8>
 2a8:	3813490b 	ldmdacc	r3, {r0, r1, r3, r8, fp, lr}
 2ac:	0b00000a 	bleq	2dc <_start-0x7d24>
 2b0:	0b0b000f 	bleq	2c02f4 <__bss_end+0x2b6de8>
 2b4:	2e0c0000 	cdpcs	0, 0, cr0, cr12, cr0, {0}
 2b8:	030c3f01 	movweq	r3, #52993	; 0xcf01
 2bc:	3b0b3a0e 	blcc	2ceafc <__bss_end+0x2c55f0>
 2c0:	110c270b 	tstne	ip, fp, lsl #14
 2c4:	40011201 	andmi	r1, r1, r1, lsl #4
 2c8:	0c429606 	mcrreq	6, 0, r9, r2, cr6
 2cc:	00001301 	andeq	r1, r0, r1, lsl #6
 2d0:	0300050d 	movweq	r0, #1293	; 0x50d
 2d4:	3b0b3a08 	blcc	2ceafc <__bss_end+0x2c55f0>
 2d8:	0213490b 	andseq	r4, r3, #180224	; 0x2c000
 2dc:	0e00000a 	cdpeq	0, 0, cr0, cr0, cr10, {0}
 2e0:	0e030005 	cdpeq	0, 0, cr0, cr3, cr5, {0}
 2e4:	0b3b0b3a 	bleq	ec2fd4 <__bss_end+0xeb9ac8>
 2e8:	0a021349 	beq	85014 <__bss_end+0x7bb08>
 2ec:	340f0000 	strcc	r0, [pc], #-0	; 2f4 <_start-0x7d0c>
 2f0:	3a080300 	bcc	200ef8 <__bss_end+0x1f79ec>
 2f4:	490b3b0b 	stmdbmi	fp, {r0, r1, r3, r8, r9, fp, ip, sp}
 2f8:	000a0213 	andeq	r0, sl, r3, lsl r2
 2fc:	002e1000 	eoreq	r1, lr, r0
 300:	0e030c3f 	mcreq	12, 0, r0, cr3, cr15, {1}
 304:	0b3b0b3a 	bleq	ec2ff4 <__bss_end+0xeb9ae8>
 308:	01120111 	tsteq	r2, r1, lsl r1
 30c:	42960640 	addsmi	r0, r6, #67108864	; 0x4000000
 310:	1100000c 	tstne	r0, ip
 314:	0c3f012e 	ldfeqs	f0, [pc], #-184	; 264 <_start-0x7d9c>
 318:	0b3a0e03 	bleq	e83b2c <__bss_end+0xe7a620>
 31c:	01110b3b 	tsteq	r1, fp, lsr fp
 320:	06400112 			; <UNDEFINED> instruction: 0x06400112
 324:	010c4296 			; <UNDEFINED> instruction: 0x010c4296
 328:	12000013 	andne	r0, r0, #19
 32c:	0e030034 	mcreq	0, 0, r0, cr3, cr4, {1}
 330:	0b3b0b3a 	bleq	ec3020 <__bss_end+0xeb9b14>
 334:	0a021349 	beq	85060 <__bss_end+0x7bb54>
 338:	2e130000 	cdpcs	0, 1, cr0, cr3, cr0, {0}
 33c:	030c3f00 	movweq	r3, #52992	; 0xcf00
 340:	3b0b3a0e 	blcc	2ceb80 <__bss_end+0x2c5674>
 344:	1201110b 	andne	r1, r1, #-1073741822	; 0xc0000002
 348:	960a4001 	strls	r4, [sl], -r1
 34c:	00000c42 	andeq	r0, r0, r2, asr #24
 350:	03003414 	movweq	r3, #1044	; 0x414
 354:	3b0b3a0e 	blcc	2ceb94 <__bss_end+0x2c5688>
 358:	3f13490b 	svccc	0x0013490b
 35c:	000a020c 	andeq	r0, sl, ip, lsl #4
 360:	11010000 	mrsne	r0, (UNDEF: 1)
 364:	130e2501 	movwne	r2, #58625	; 0xe501
 368:	1b0e030b 	blne	380f9c <__bss_end+0x377a90>
 36c:	1201110e 	andne	r1, r1, #-2147483645	; 0x80000003
 370:	00061001 	andeq	r1, r6, r1
 374:	00240200 	eoreq	r0, r4, r0, lsl #4
 378:	0b3e0b0b 	bleq	f82fac <__bss_end+0xf79aa0>
 37c:	00000e03 	andeq	r0, r0, r3, lsl #28
 380:	03001603 	movweq	r1, #1539	; 0x603
 384:	3b0b3a0e 	blcc	2cebc4 <__bss_end+0x2c56b8>
 388:	0013490b 	andseq	r4, r3, fp, lsl #18
 38c:	01040400 	tsteq	r4, r0, lsl #8
 390:	0b3a0b0b 	bleq	e82fc4 <__bss_end+0xe79ab8>
 394:	13010b3b 	movwne	r0, #6971	; 0x1b3b
 398:	28050000 	stmdacs	r5, {}	; <UNPREDICTABLE>
 39c:	1c0e0300 	stcne	3, cr0, [lr], {-0}
 3a0:	0600000d 	streq	r0, [r0], -sp
 3a4:	0e03012e 	adfeqsp	f0, f3, #0.5
 3a8:	0b3b0b3a 	bleq	ec3098 <__bss_end+0xeb9b8c>
 3ac:	01110c27 	tsteq	r1, r7, lsr #24
 3b0:	06400112 			; <UNDEFINED> instruction: 0x06400112
 3b4:	010c4297 			; <UNDEFINED> instruction: 0x010c4297
 3b8:	07000013 	smladeq	r0, r3, r0, r0
 3bc:	08030005 	stmdaeq	r3, {r0, r2}
 3c0:	0b3b0b3a 	bleq	ec30b0 <__bss_end+0xeb9ba4>
 3c4:	0a021349 	beq	850f0 <__bss_end+0x7bbe4>
 3c8:	05080000 	streq	r0, [r8, #-0]
 3cc:	3a0e0300 	bcc	380fd4 <__bss_end+0x377ac8>
 3d0:	490b3b0b 	stmdbmi	fp, {r0, r1, r3, r8, r9, fp, ip, sp}
 3d4:	000a0213 	andeq	r0, sl, r3, lsl r2
 3d8:	00340900 	eorseq	r0, r4, r0, lsl #18
 3dc:	0b3a0803 	bleq	e823f0 <__bss_end+0xe78ee4>
 3e0:	13490b3b 	movtne	r0, #39739	; 0x9b3b
 3e4:	00000a02 	andeq	r0, r0, r2, lsl #20
 3e8:	0b000f0a 	bleq	4018 <_start-0x3fe8>
 3ec:	0013490b 	andseq	r4, r3, fp, lsl #18
 3f0:	012e0b00 	teqeq	lr, r0, lsl #22
 3f4:	0b3a0e03 	bleq	e83c08 <__bss_end+0xe7a6fc>
 3f8:	0c270b3b 	stceq	11, cr0, [r7], #-236	; 0xffffff14
 3fc:	01111349 	tsteq	r1, r9, asr #6
 400:	06400112 			; <UNDEFINED> instruction: 0x06400112
 404:	010c4297 			; <UNDEFINED> instruction: 0x010c4297
 408:	0c000013 	stceq	0, cr0, [r0], {19}
 40c:	0e030034 	mcreq	0, 0, r0, cr3, cr4, {1}
 410:	0b3b0b3a 	bleq	ec3100 <__bss_end+0xeb9bf4>
 414:	0a021349 	beq	85140 <__bss_end+0x7bc34>
 418:	2e0d0000 	cdpcs	0, 0, cr0, cr13, cr0, {0}
 41c:	030c3f01 	movweq	r3, #52993	; 0xcf01
 420:	3b0b3a0e 	blcc	2cec60 <__bss_end+0x2c5754>
 424:	110c270b 	tstne	ip, fp, lsl #14
 428:	40011201 	andmi	r1, r1, r1, lsl #4
 42c:	0c429606 	mcrreq	6, 0, r9, r2, cr6
 430:	00001301 	andeq	r1, r0, r1, lsl #6
 434:	3f012e0e 	svccc	0x00012e0e
 438:	3a0e030c 	bcc	381070 <__bss_end+0x377b64>
 43c:	270b3b0b 	strcs	r3, [fp, -fp, lsl #22]
 440:	1113490c 	tstne	r3, ip, lsl #18
 444:	40011201 	andmi	r1, r1, r1, lsl #4
 448:	0c429606 	mcrreq	6, 0, r9, r2, cr6
 44c:	00001301 	andeq	r1, r0, r1, lsl #6
 450:	3f012e0f 	svccc	0x00012e0f
 454:	3a0e030c 	bcc	38108c <__bss_end+0x377b80>
 458:	490b3b0b 	stmdbmi	fp, {r0, r1, r3, r8, r9, fp, ip, sp}
 45c:	12011113 	andne	r1, r1, #-1073741820	; 0xc0000004
 460:	96064001 	strls	r4, [r6], -r1
 464:	13010c42 	movwne	r0, #7234	; 0x1c42
 468:	24100000 	ldrcs	r0, [r0], #-0
 46c:	3e0b0b00 	vmlacc.f64	d0, d11, d0
 470:	0008030b 	andeq	r0, r8, fp, lsl #6
 474:	01011100 	mrseq	r1, (UNDEF: 17)
 478:	13011349 	movwne	r1, #4937	; 0x1349
 47c:	21120000 	tstcs	r2, r0
 480:	2f134900 	svccs	0x00134900
 484:	1300000b 	movwne	r0, #11
 488:	13490035 	movtne	r0, #36917	; 0x9035
 48c:	2e140000 	cdpcs	0, 1, cr0, cr4, cr0, {0}
 490:	030c3f01 	movweq	r3, #52993	; 0xcf01
 494:	3b0b3a0e 	blcc	2cecd4 <__bss_end+0x2c57c8>
 498:	110c270b 	tstne	ip, fp, lsl #14
 49c:	40011201 	andmi	r1, r1, r1, lsl #4
 4a0:	0c429706 	mcrreq	7, 0, r9, r2, cr6
 4a4:	00001301 	andeq	r1, r0, r1, lsl #6
 4a8:	3f012e15 	svccc	0x00012e15
 4ac:	3a0e030c 	bcc	3810e4 <__bss_end+0x377bd8>
 4b0:	110b3b0b 	tstne	fp, fp, lsl #22
 4b4:	40011201 	andmi	r1, r1, r1, lsl #4
 4b8:	0c429606 	mcrreq	6, 0, r9, r2, cr6
 4bc:	00001301 	andeq	r1, r0, r1, lsl #6
 4c0:	3f012e16 	svccc	0x00012e16
 4c4:	3a0e030c 	bcc	3810fc <__bss_end+0x377bf0>
 4c8:	27053b0b 	strcs	r3, [r5, -fp, lsl #22]
 4cc:	1201110c 	andne	r1, r1, #3
 4d0:	96064001 	strls	r4, [r6], -r1
 4d4:	13010c42 	movwne	r0, #7234	; 0x1c42
 4d8:	05170000 	ldreq	r0, [r7, #-0]
 4dc:	3a080300 	bcc	2010e4 <__bss_end+0x1f7bd8>
 4e0:	49053b0b 	stmdbmi	r5, {r0, r1, r3, r8, r9, fp, ip, sp}
 4e4:	000a0213 	andeq	r0, sl, r3, lsl r2
 4e8:	00341800 	eorseq	r1, r4, r0, lsl #16
 4ec:	0b3a0803 	bleq	e82500 <__bss_end+0xe78ff4>
 4f0:	1349053b 	movtne	r0, #38203	; 0x953b
 4f4:	00000a02 	andeq	r0, r0, r2, lsl #20
 4f8:	3f012e19 	svccc	0x00012e19
 4fc:	3a0e030c 	bcc	381134 <__bss_end+0x377c28>
 500:	27053b0b 	strcs	r3, [r5, -fp, lsl #22]
 504:	1113490c 	tstne	r3, ip, lsl #18
 508:	40011201 	andmi	r1, r1, r1, lsl #4
 50c:	0c429706 	mcrreq	7, 0, r9, r2, cr6
 510:	00001301 	andeq	r1, r0, r1, lsl #6
	...

Disassembly of section .debug_aranges:

00000000 <.debug_aranges>:
   0:	0000001c 	andeq	r0, r0, ip, lsl r0
   4:	00000002 	andeq	r0, r0, r2
   8:	00040000 	andeq	r0, r4, r0
   c:	00000000 	andeq	r0, r0, r0
  10:	00008000 	andeq	r8, r0, r0
  14:	000000d0 	ldrdeq	r0, [r0], -r0	; <UNPREDICTABLE>
	...
  20:	0000001c 	andeq	r0, r0, ip, lsl r0
  24:	00630002 	rsbeq	r0, r3, r2
  28:	00040000 	andeq	r0, r4, r0
  2c:	00000000 	andeq	r0, r0, r0
  30:	000080d0 	ldrdeq	r8, [r0], -r0
  34:	00000108 	andeq	r0, r0, r8, lsl #2
	...
  40:	0000001c 	andeq	r0, r0, ip, lsl r0
  44:	01ed0002 	mvneq	r0, r2
  48:	00040000 	andeq	r0, r4, r0
  4c:	00000000 	andeq	r0, r0, r0
  50:	000081d8 	ldrdeq	r8, [r0], -r8	; <UNPREDICTABLE>
  54:	00000138 	andeq	r0, r0, r8, lsr r1
	...
  60:	0000001c 	andeq	r0, r0, ip, lsl r0
  64:	034f0002 	movteq	r0, #61442	; 0xf002
  68:	00040000 	andeq	r0, r4, r0
  6c:	00000000 	andeq	r0, r0, r0
  70:	00008310 	andeq	r8, r0, r0, lsl r3
  74:	00000194 	muleq	r0, r4, r1
	...
  80:	0000001c 	andeq	r0, r0, ip, lsl r0
  84:	04410002 	strbeq	r0, [r1], #-2
  88:	00040000 	andeq	r0, r4, r0
  8c:	00000000 	andeq	r0, r0, r0
  90:	000084a4 	andeq	r8, r0, r4, lsr #9
  94:	00000564 	andeq	r0, r0, r4, ror #10
	...
  a0:	0000001c 	andeq	r0, r0, ip, lsl r0
  a4:	07330002 	ldreq	r0, [r3, -r2]!
  a8:	00040000 	andeq	r0, r4, r0
  ac:	00000000 	andeq	r0, r0, r0
  b0:	00008a08 	andeq	r8, r0, r8, lsl #20
  b4:	00000ac4 	andeq	r0, r0, r4, asr #21
	...

Disassembly of section .debug_loc:

00000000 <.debug_loc>:
   0:	00000000 	andeq	r0, r0, r0
   4:	00000004 	andeq	r0, r0, r4
   8:	007d0002 	rsbseq	r0, sp, r2
   c:	00000004 	andeq	r0, r0, r4
  10:	00000038 	andeq	r0, r0, r8, lsr r0
  14:	087d0002 	ldmdaeq	sp!, {r1}^
	...
  20:	00000038 	andeq	r0, r0, r8, lsr r0
  24:	0000003c 	andeq	r0, r0, ip, lsr r0
  28:	007d0002 	rsbseq	r0, sp, r2
  2c:	0000003c 	andeq	r0, r0, ip, lsr r0
  30:	00000070 	andeq	r0, r0, r0, ror r0
  34:	087d0002 	ldmdaeq	sp!, {r1}^
	...
  40:	00000070 	andeq	r0, r0, r0, ror r0
  44:	00000074 	andeq	r0, r0, r4, ror r0
  48:	007d0002 	rsbseq	r0, sp, r2
  4c:	00000074 	andeq	r0, r0, r4, ror r0
  50:	000000a8 	andeq	r0, r0, r8, lsr #1
  54:	087d0002 	ldmdaeq	sp!, {r1}^
	...
  60:	000000a8 	andeq	r0, r0, r8, lsr #1
  64:	000000ac 	andeq	r0, r0, ip, lsr #1
  68:	007d0002 	rsbseq	r0, sp, r2
  6c:	000000ac 	andeq	r0, r0, ip, lsr #1
  70:	00000108 	andeq	r0, r0, r8, lsl #2
  74:	087d0002 	ldmdaeq	sp!, {r1}^
	...
  84:	00000004 	andeq	r0, r0, r4
  88:	007d0002 	rsbseq	r0, sp, r2
  8c:	00000004 	andeq	r0, r0, r4
  90:	00000008 	andeq	r0, r0, r8
  94:	087d0002 	ldmdaeq	sp!, {r1}^
  98:	00000008 	andeq	r0, r0, r8
  9c:	000000b4 	strheq	r0, [r0], -r4
  a0:	107d0002 	rsbsne	r0, sp, r2
	...
  ac:	000000b4 	strheq	r0, [r0], -r4
  b0:	000000b8 	strheq	r0, [r0], -r8
  b4:	007d0002 	rsbseq	r0, sp, r2
  b8:	000000b8 	strheq	r0, [r0], -r8
  bc:	000000bc 	strheq	r0, [r0], -ip
  c0:	047d0002 	ldrbteq	r0, [sp], #-2
  c4:	000000bc 	strheq	r0, [r0], -ip
  c8:	000000fc 	strdeq	r0, [r0], -ip
  cc:	107d0002 	rsbsne	r0, sp, r2
	...
  d8:	000000fc 	strdeq	r0, [r0], -ip
  dc:	00000100 	andeq	r0, r0, r0, lsl #2
  e0:	007d0002 	rsbseq	r0, sp, r2
  e4:	00000100 	andeq	r0, r0, r0, lsl #2
  e8:	00000138 	andeq	r0, r0, r8, lsr r1
  ec:	087d0002 	ldmdaeq	sp!, {r1}^
	...
  fc:	00000004 	andeq	r0, r0, r4
 100:	007d0002 	rsbseq	r0, sp, r2
 104:	00000004 	andeq	r0, r0, r4
 108:	00000008 	andeq	r0, r0, r8
 10c:	047d0002 	ldrbteq	r0, [sp], #-2
 110:	00000008 	andeq	r0, r0, r8
 114:	0000004c 	andeq	r0, r0, ip, asr #32
 118:	107d0002 	rsbsne	r0, sp, r2
	...
 124:	0000004c 	andeq	r0, r0, ip, asr #32
 128:	00000050 	andeq	r0, r0, r0, asr r0
 12c:	007d0002 	rsbseq	r0, sp, r2
 130:	00000050 	andeq	r0, r0, r0, asr r0
 134:	00000054 	andeq	r0, r0, r4, asr r0
 138:	047d0002 	ldrbteq	r0, [sp], #-2
 13c:	00000054 	andeq	r0, r0, r4, asr r0
 140:	000000a4 	andeq	r0, r0, r4, lsr #1
 144:	187d0002 	ldmdane	sp!, {r1}^
	...
 150:	000000a4 	andeq	r0, r0, r4, lsr #1
 154:	000000a8 	andeq	r0, r0, r8, lsr #1
 158:	007d0002 	rsbseq	r0, sp, r2
 15c:	000000a8 	andeq	r0, r0, r8, lsr #1
 160:	000000bc 	strheq	r0, [r0], -ip
 164:	087d0002 	ldmdaeq	sp!, {r1}^
	...
 170:	000000bc 	strheq	r0, [r0], -ip
 174:	000000c0 	andeq	r0, r0, r0, asr #1
 178:	007d0002 	rsbseq	r0, sp, r2
 17c:	000000c0 	andeq	r0, r0, r0, asr #1
 180:	000000d4 	ldrdeq	r0, [r0], -r4
 184:	087d0002 	ldmdaeq	sp!, {r1}^
	...
 190:	000000d4 	ldrdeq	r0, [r0], -r4
 194:	000000d8 	ldrdeq	r0, [r0], -r8
 198:	007d0002 	rsbseq	r0, sp, r2
 19c:	000000d8 	ldrdeq	r0, [r0], -r8
 1a0:	000000dc 	ldrdeq	r0, [r0], -ip
 1a4:	047d0002 	ldrbteq	r0, [sp], #-2
 1a8:	000000dc 	ldrdeq	r0, [r0], -ip
 1ac:	00000194 	muleq	r0, r4, r1
 1b0:	107d0002 	rsbsne	r0, sp, r2
	...
 1c0:	00000004 	andeq	r0, r0, r4
 1c4:	007d0002 	rsbseq	r0, sp, r2
 1c8:	00000004 	andeq	r0, r0, r4
 1cc:	00000008 	andeq	r0, r0, r8
 1d0:	047d0002 	ldrbteq	r0, [sp], #-2
 1d4:	00000008 	andeq	r0, r0, r8
 1d8:	000000b8 	strheq	r0, [r0], -r8
 1dc:	187d0002 	ldmdane	sp!, {r1}^
	...
 1e8:	000000b8 	strheq	r0, [r0], -r8
 1ec:	000000bc 	strheq	r0, [r0], -ip
 1f0:	007d0002 	rsbseq	r0, sp, r2
 1f4:	000000bc 	strheq	r0, [r0], -ip
 1f8:	000000c0 	andeq	r0, r0, r0, asr #1
 1fc:	047d0002 	ldrbteq	r0, [sp], #-2
 200:	000000c0 	andeq	r0, r0, r0, asr #1
 204:	0000012c 	andeq	r0, r0, ip, lsr #2
 208:	187d0002 	ldmdane	sp!, {r1}^
	...
 214:	0000012c 	andeq	r0, r0, ip, lsr #2
 218:	00000130 	andeq	r0, r0, r0, lsr r1
 21c:	007d0002 	rsbseq	r0, sp, r2
 220:	00000130 	andeq	r0, r0, r0, lsr r1
 224:	00000134 	andeq	r0, r0, r4, lsr r1
 228:	047d0002 	ldrbteq	r0, [sp], #-2
 22c:	00000134 	andeq	r0, r0, r4, lsr r1
 230:	00000218 	andeq	r0, r0, r8, lsl r2
 234:	207d0002 	rsbscs	r0, sp, r2
	...
 240:	00000218 	andeq	r0, r0, r8, lsl r2
 244:	0000021c 	andeq	r0, r0, ip, lsl r2
 248:	007d0002 	rsbseq	r0, sp, r2
 24c:	0000021c 	andeq	r0, r0, ip, lsl r2
 250:	00000248 	andeq	r0, r0, r8, asr #4
 254:	087d0002 	ldmdaeq	sp!, {r1}^
	...
 260:	00000248 	andeq	r0, r0, r8, asr #4
 264:	0000024c 	andeq	r0, r0, ip, asr #4
 268:	007d0002 	rsbseq	r0, sp, r2
 26c:	0000024c 	andeq	r0, r0, ip, asr #4
 270:	00000250 	andeq	r0, r0, r0, asr r2
 274:	047d0002 	ldrbteq	r0, [sp], #-2
 278:	00000250 	andeq	r0, r0, r0, asr r2
 27c:	00000378 	andeq	r0, r0, r8, ror r3
 280:	107d0002 	rsbsne	r0, sp, r2
	...
 28c:	00000378 	andeq	r0, r0, r8, ror r3
 290:	0000037c 	andeq	r0, r0, ip, ror r3
 294:	007d0002 	rsbseq	r0, sp, r2
 298:	0000037c 	andeq	r0, r0, ip, ror r3
 29c:	00000408 	andeq	r0, r0, r8, lsl #8
 2a0:	087d0002 	ldmdaeq	sp!, {r1}^
	...
 2b0:	00000004 	andeq	r0, r0, r4
 2b4:	007d0002 	rsbseq	r0, sp, r2
 2b8:	00000004 	andeq	r0, r0, r4
 2bc:	00000028 	andeq	r0, r0, r8, lsr #32
 2c0:	107d0002 	rsbsne	r0, sp, r2
	...
 2cc:	00000028 	andeq	r0, r0, r8, lsr #32
 2d0:	0000002c 	andeq	r0, r0, ip, lsr #32
 2d4:	007d0002 	rsbseq	r0, sp, r2
 2d8:	0000002c 	andeq	r0, r0, ip, lsr #32
 2dc:	00000030 	andeq	r0, r0, r0, lsr r0
 2e0:	047d0002 	ldrbteq	r0, [sp], #-2
 2e4:	00000030 	andeq	r0, r0, r0, lsr r0
 2e8:	0000005c 	andeq	r0, r0, ip, asr r0
 2ec:	187d0002 	ldmdane	sp!, {r1}^
	...
 2f8:	0000005c 	andeq	r0, r0, ip, asr r0
 2fc:	00000060 	andeq	r0, r0, r0, rrx
 300:	007d0002 	rsbseq	r0, sp, r2
 304:	00000060 	andeq	r0, r0, r0, rrx
 308:	00000064 	andeq	r0, r0, r4, rrx
 30c:	047d0002 	ldrbteq	r0, [sp], #-2
 310:	00000064 	andeq	r0, r0, r4, rrx
 314:	000000d8 	ldrdeq	r0, [r0], -r8
 318:	187d0002 	ldmdane	sp!, {r1}^
	...
 324:	000000d8 	ldrdeq	r0, [r0], -r8
 328:	000000dc 	ldrdeq	r0, [r0], -ip
 32c:	007d0002 	rsbseq	r0, sp, r2
 330:	000000dc 	ldrdeq	r0, [r0], -ip
 334:	000000e0 	andeq	r0, r0, r0, ror #1
 338:	047d0002 	ldrbteq	r0, [sp], #-2
 33c:	000000e0 	andeq	r0, r0, r0, ror #1
 340:	00000174 	andeq	r0, r0, r4, ror r1
 344:	187d0002 	ldmdane	sp!, {r1}^
	...
 350:	00000174 	andeq	r0, r0, r4, ror r1
 354:	00000178 	andeq	r0, r0, r8, ror r1
 358:	007d0002 	rsbseq	r0, sp, r2
 35c:	00000178 	andeq	r0, r0, r8, ror r1
 360:	0000017c 	andeq	r0, r0, ip, ror r1
 364:	0c7d0002 	ldcleq	0, cr0, [sp], #-8
 368:	0000017c 	andeq	r0, r0, ip, ror r1
 36c:	00000700 	andeq	r0, r0, r0, lsl #14
 370:	047b0002 	ldrbteq	r0, [fp], #-2
	...
 37c:	00000700 	andeq	r0, r0, r0, lsl #14
 380:	00000704 	andeq	r0, r0, r4, lsl #14
 384:	007d0002 	rsbseq	r0, sp, r2
 388:	00000704 	andeq	r0, r0, r4, lsl #14
 38c:	0000079c 	muleq	r0, ip, r7
 390:	187d0002 	ldmdane	sp!, {r1}^
	...
 39c:	0000079c 	muleq	r0, ip, r7
 3a0:	000007a0 	andeq	r0, r0, r0, lsr #15
 3a4:	007d0002 	rsbseq	r0, sp, r2
 3a8:	000007a0 	andeq	r0, r0, r0, lsr #15
 3ac:	000007a4 	andeq	r0, r0, r4, lsr #15
 3b0:	047d0002 	ldrbteq	r0, [sp], #-2
 3b4:	000007a4 	andeq	r0, r0, r4, lsr #15
 3b8:	000008bc 			; <UNDEFINED> instruction: 0x000008bc
 3bc:	207d0002 	rsbscs	r0, sp, r2
	...
 3c8:	000008bc 			; <UNDEFINED> instruction: 0x000008bc
 3cc:	000008c0 	andeq	r0, r0, r0, asr #17
 3d0:	007d0002 	rsbseq	r0, sp, r2
 3d4:	000008c0 	andeq	r0, r0, r0, asr #17
 3d8:	000008c4 	andeq	r0, r0, r4, asr #17
 3dc:	047d0002 	ldrbteq	r0, [sp], #-2
 3e0:	000008c4 	andeq	r0, r0, r4, asr #17
 3e4:	00000958 	andeq	r0, r0, r8, asr r9
 3e8:	207d0002 	rsbscs	r0, sp, r2
	...
 3f4:	00000958 	andeq	r0, r0, r8, asr r9
 3f8:	0000095c 	andeq	r0, r0, ip, asr r9
 3fc:	007d0002 	rsbseq	r0, sp, r2
 400:	0000095c 	andeq	r0, r0, ip, asr r9
 404:	00000960 	andeq	r0, r0, r0, ror #18
 408:	047d0002 	ldrbteq	r0, [sp], #-2
 40c:	00000960 	andeq	r0, r0, r0, ror #18
 410:	000009ec 	andeq	r0, r0, ip, ror #19
 414:	207d0002 	rsbscs	r0, sp, r2
	...
 420:	000009ec 	andeq	r0, r0, ip, ror #19
 424:	000009f0 	strdeq	r0, [r0], -r0	; <UNPREDICTABLE>
 428:	007d0002 	rsbseq	r0, sp, r2
 42c:	000009f0 	strdeq	r0, [r0], -r0	; <UNPREDICTABLE>
 430:	000009f4 	strdeq	r0, [r0], -r4
 434:	047d0002 	ldrbteq	r0, [sp], #-2
 438:	000009f4 	strdeq	r0, [r0], -r4
 43c:	00000a80 	andeq	r0, r0, r0, lsl #21
 440:	207d0002 	rsbscs	r0, sp, r2
	...
 44c:	00000a80 	andeq	r0, r0, r0, lsl #21
 450:	00000a84 	andeq	r0, r0, r4, lsl #21
 454:	007d0002 	rsbseq	r0, sp, r2
 458:	00000a84 	andeq	r0, r0, r4, lsl #21
 45c:	00000ac4 	andeq	r0, r0, r4, asr #21
 460:	087d0002 	ldmdaeq	sp!, {r1}^
	...

Disassembly of section .debug_str:

00000000 <.debug_str>:
   0:	69616d6b 	stmdbvs	r1!, {r0, r1, r3, r5, r6, r8, sl, fp, sp, lr}^
   4:	7264006e 	rsbvc	r0, r4, #110	; 0x6e
   8:	64007761 	strvs	r7, [r0], #-1889	; 0x761
   c:	42776172 	rsbsmi	r6, r7, #-2147483620	; 0x8000001c
  10:	0065756c 	rsbeq	r7, r5, ip, ror #10
  14:	20554e47 	subscs	r4, r5, r7, asr #28
  18:	2e342043 	cdpcs	0, 3, cr2, cr4, cr3, {2}
  1c:	00312e37 	eorseq	r2, r1, r7, lsr lr
  20:	77617264 	strbvc	r7, [r1, -r4, ror #4]!
  24:	74696857 	strbtvc	r6, [r9], #-2135	; 0x857
  28:	682f0065 	stmdavs	pc!, {r0, r2, r5, r6}	; <UNPREDICTABLE>
  2c:	2f656d6f 	svccs	0x00656d6f
  30:	746e616b 	strbtvc	r6, [lr], #-363	; 0x16b
  34:	656e696f 	strbvs	r6, [lr, #-2415]!	; 0x96f
  38:	636f442f 	cmnvs	pc, #788529152	; 0x2f000000
  3c:	6e656d75 	mcrvs	13, 3, r6, cr5, cr5, {3}
  40:	532f7374 	teqpl	pc, #-805306367	; 0xd0000001
  44:	65747379 	ldrbvs	r7, [r4, #-889]!	; 0x379
  48:	7845656d 	stmdavc	r5, {r0, r2, r3, r5, r6, r8, sl, sp, lr}^
  4c:	696f6c70 	stmdbvs	pc!, {r4, r5, r6, sl, fp, sp, lr}^	; <UNPREDICTABLE>
  50:	69746174 	ldmdbvs	r4!, {r2, r4, r5, r6, r8, sp, lr}^
  54:	76416e6f 	strbvc	r6, [r1], -pc, ror #28
  58:	65636e61 	strbvs	r6, [r3, #-3681]!	; 0xe61
  5c:	6e756600 	cdpvs	6, 7, cr6, cr5, cr0, {0}
  60:	66004163 	strvs	r4, [r0], -r3, ror #2
  64:	43636e75 	cmnmi	r3, #1872	; 0x750
  68:	736e7500 	cmnvc	lr, #0
  6c:	656e6769 	strbvs	r6, [lr, #-1897]!	; 0x769
  70:	68632064 	stmdavs	r3!, {r2, r5, r6, sp}^
  74:	66007261 	strvs	r7, [r0], -r1, ror #4
  78:	42636e75 	rsbmi	r6, r3, #1872	; 0x750
  7c:	636e6900 	cmnvs	lr, #0
  80:	73616572 	cmnvc	r1, #478150656	; 0x1c800000
  84:	64005965 	strvs	r5, [r0], #-2405	; 0x965
  88:	52776172 	rsbspl	r6, r7, #-2147483620	; 0x8000001c
  8c:	46006465 	strmi	r6, [r0], -r5, ror #8
  90:	656d6172 	strbvs	r6, [sp, #-370]!	; 0x172
  94:	66667562 	strbtvs	r7, [r6], -r2, ror #10
  98:	6e497265 	cdpvs	2, 4, cr7, cr9, cr5, {3}
  9c:	61697469 	cmnvs	r9, r9, ror #8
  a0:	657a696c 	ldrbvs	r6, [sl, #-2412]!	; 0x96c
  a4:	6f687300 	svcvs	0x00687300
  a8:	75207472 	strvc	r7, [r0, #-1138]!	; 0x472
  ac:	6769736e 	strbvs	r7, [r9, -lr, ror #6]!
  b0:	2064656e 	rsbcs	r6, r4, lr, ror #10
  b4:	00746e69 	rsbseq	r6, r4, r9, ror #28
  b8:	72617473 	rsbvc	r7, r1, #1929379840	; 0x73000000
  bc:	63735f74 	cmnvs	r3, #464	; 0x1d0
  c0:	00646568 	rsbeq	r6, r4, r8, ror #10
  c4:	6e72656b 	cdpvs	5, 7, cr6, cr2, cr11, {3}
  c8:	632e6c65 	teqvs	lr, #25856	; 0x6500
  cc:	64656c00 	strbtvs	r6, [r5], #-3072	; 0xc00
  d0:	70006e4f 	andvc	r6, r0, pc, asr #28
  d4:	6c417968 	mcrrvs	9, 6, r7, r1, cr8
  d8:	2e636f6c 	cdpcs	15, 6, cr6, cr3, cr12, {3}
  dc:	72700063 	rsbsvc	r0, r0, #99	; 0x63
  e0:	66007665 	strvs	r7, [r0], -r5, ror #12
  e4:	6c656572 	cfstr64vs	mvdx6, [r5], #-456	; 0xfffffe38
  e8:	00747369 	rsbseq	r7, r4, r9, ror #6
  ec:	41796870 	cmnmi	r9, r0, ror r8
  f0:	636f6c6c 	cmnvs	pc, #27648	; 0x6c00
  f4:	6572665f 	ldrbvs	r6, [r2, #-1631]!	; 0x65f
  f8:	65680065 	strbvs	r0, [r8, #-101]!	; 0x65
  fc:	735f7061 	cmpvc	pc, #97	; 0x61
 100:	74726174 	ldrbtvc	r6, [r2], #-372	; 0x174
 104:	78656e00 	stmdavc	r5!, {r9, sl, fp, sp, lr}^
 108:	68700074 	ldmdavs	r0!, {r2, r4, r5, r6}^
 10c:	6c6c4179 	stfvse	f4, [ip], #-484	; 0xfffffe1c
 110:	615f636f 	cmpvs	pc, pc, ror #6
 114:	636f6c6c 	cmnvs	pc, #27648	; 0x6c00
 118:	79687000 	stmdbvc	r8!, {ip, sp, lr}^
 11c:	6f6c6c41 	svcvs	0x006c6c41
 120:	6e695f63 	cdpvs	15, 6, cr5, cr9, cr3, {3}
 124:	68007469 	stmdavs	r0, {r0, r3, r5, r6, sl, ip, sp, lr}
 128:	5f706165 	svcpl	0x00706165
 12c:	696d696c 	stmdbvs	sp!, {r2, r3, r5, r6, r8, fp, sp, lr}^
 130:	65680074 	strbvs	r0, [r8, #-116]!	; 0x74
 134:	735f7061 	cmpvc	pc, #97	; 0x61
 138:	00657a69 	rsbeq	r7, r5, r9, ror #20
 13c:	632e7768 	teqvs	lr, #27262976	; 0x1a00000
 140:	64656c00 	strbtvs	r6, [r5], #-3072	; 0xc00
 144:	006e6f5f 	rsbeq	r6, lr, pc, asr pc
 148:	5f746573 	svcpl	0x00746573
 14c:	6b636974 	blvs	18da724 <__bss_end+0x18d1218>
 150:	646e615f 	strbtvs	r6, [lr], #-351	; 0x15f
 154:	616e655f 	cmnvs	lr, pc, asr r5
 158:	5f656c62 	svcpl	0x00656c62
 15c:	656d6974 	strbvs	r6, [sp, #-2420]!	; 0x974
 160:	6e690072 	mcrvs	0, 3, r0, cr9, cr2, {3}
 164:	685f7469 	ldmdavs	pc, {r0, r3, r5, r6, sl, ip, sp, lr}^	; <UNPREDICTABLE>
 168:	65730077 	ldrbvs	r0, [r3, #-119]!	; 0x77
 16c:	69745f74 	ldmdbvs	r4!, {r2, r4, r5, r6, r8, r9, sl, fp, ip, lr}^
 170:	615f6b63 	cmpvs	pc, r3, ror #22
 174:	655f646e 	ldrbvs	r6, [pc, #-1134]	; fffffd0e <__bss_end+0xffff6802>
 178:	6c62616e 	stfvse	f6, [r2], #-440	; 0xfffffe48
 17c:	69745f65 	ldmdbvs	r4!, {r0, r2, r5, r6, r8, r9, sl, fp, ip, lr}^
 180:	5f72656d 	svcpl	0x0072656d
 184:	6f697270 	svcvs	0x00697270
 188:	79746972 	ldmdbvc	r4!, {r1, r4, r5, r6, r8, fp, sp, lr}^
 18c:	64656c00 	strbtvs	r6, [r5], #-3072	; 0xc00
 190:	66666f5f 	uqsaxvs	r6, r6, pc	; <UNPREDICTABLE>
 194:	6e697500 	cdpvs	5, 6, cr7, cr9, cr0, {0}
 198:	00323374 	eorseq	r3, r2, r4, ror r3
 19c:	74696e69 	strbtvc	r6, [r9], #-3689	; 0xe69
 1a0:	6263705f 	rsbvs	r7, r3, #95	; 0x5f
 1a4:	54434100 	strbpl	r4, [r3], #-256	; 0x100
 1a8:	00455649 	subeq	r5, r5, r9, asr #12
 1ac:	5f626370 	svcpl	0x00626370
 1b0:	6e69616d 	powvsez	f6, f1, #5.0
 1b4:	78746300 	ldmdavc	r4!, {r8, r9, sp, lr}^
 1b8:	6977735f 	ldmdbvs	r7!, {r0, r1, r2, r3, r4, r6, r8, r9, ip, sp, lr}^
 1bc:	5f686374 	svcpl	0x00686374
 1c0:	6d6f7266 	sfmvs	f7, 2, [pc, #-408]!	; 30 <_start-0x7fd0>
 1c4:	7172695f 	cmnvc	r2, pc, asr r9
 1c8:	72657400 	rsbvc	r7, r5, #0
 1cc:	616e696d 	cmnvs	lr, sp, ror #18
 1d0:	5f646574 	svcpl	0x00646574
 1d4:	636f7270 	cmnvs	pc, #7
 1d8:	00737365 	rsbseq	r7, r3, r5, ror #6
 1dc:	65686373 	strbvs	r6, [r8, #-883]!	; 0x373
 1e0:	00632e64 	rsbeq	r2, r3, r4, ror #28
 1e4:	424d4f5a 	submi	r4, sp, #360	; 0x168
 1e8:	52004549 	andpl	r4, r0, #306184192	; 0x12400000
 1ec:	59444145 	stmdbpl	r4, {r0, r2, r6, r8, lr}^
 1f0:	52455400 	subpl	r5, r5, #0
 1f4:	414e494d 	cmpmi	lr, sp, asr #18
 1f8:	00444554 	subeq	r4, r4, r4, asr r5
 1fc:	63617473 	cmnvs	r1, #1929379840	; 0x73000000
 200:	69735f6b 	ldmdbvs	r3!, {r0, r1, r3, r5, r6, r8, r9, sl, fp, ip, lr}^
 204:	5000657a 	andpl	r6, r0, sl, ror r5
 208:	65636f72 	strbvs	r6, [r3, #-3954]!	; 0xf72
 20c:	735f7373 	cmpvc	pc, #-872415231	; 0xcc000001
 210:	65746174 	ldrbvs	r6, [r4, #-372]!	; 0x174
 214:	78746300 	ldmdavc	r4!, {r8, r9, sp, lr}^
 218:	7000735f 	andvc	r7, r0, pc, asr r3
 21c:	735f6263 	cmpvc	pc, #805306374	; 0x30000006
 220:	78746300 	ldmdavc	r4!, {r8, r9, sp, lr}^
 224:	6977735f 	ldmdbvs	r7!, {r0, r1, r2, r3, r4, r6, r8, r9, ip, sp, lr}^
 228:	00686374 	rsbeq	r6, r8, r4, ror r3
 22c:	72617473 	rsbvc	r7, r1, #1929379840	; 0x73000000
 230:	75635f74 	strbvc	r5, [r3, #-3956]!	; 0xf74
 234:	6e657272 	mcrvs	2, 3, r7, cr5, cr2, {3}
 238:	72705f74 	rsbsvc	r5, r0, #464	; 0x1d0
 23c:	7365636f 	cmnvc	r5, #-1140850687	; 0xbc000001
 240:	63700073 	cmnvs	r0, #115	; 0x73
 244:	65685f62 	strbvs	r5, [r8, #-3938]!	; 0xf62
 248:	53006461 	movwpl	r6, #1121	; 0x461
 24c:	50504f54 	subspl	r4, r0, r4, asr pc
 250:	57004445 	strpl	r4, [r0, -r5, asr #8]
 254:	49544941 	ldmdbmi	r4, {r0, r6, r8, fp, lr}^
 258:	6300474e 	movwvs	r4, #1870	; 0x74e
 25c:	74616572 	strbtvc	r6, [r1], #-1394	; 0x572
 260:	72705f65 	rsbsvc	r5, r0, #404	; 0x194
 264:	7365636f 	cmnvc	r5, #-1140850687	; 0xbc000001
 268:	6c650073 	stclvs	0, cr0, [r5], #-460	; 0xfffffe34
 26c:	00746365 	rsbseq	r6, r4, r5, ror #6
 270:	636e7566 	cmnvs	lr, #427819008	; 0x19800000
 274:	6300745f 	movwvs	r7, #1119	; 0x45f
 278:	65727275 	ldrbvs	r7, [r2, #-629]!	; 0x275
 27c:	635f746e 	cmpvs	pc, #1845493760	; 0x6e000000
 280:	61007874 	tstvs	r0, r4, ror r8
 284:	00736772 	rsbseq	r6, r3, r2, ror r7
 288:	5f626370 	svcpl	0x00626370
 28c:	6c696174 	stfvse	f6, [r9], #-464	; 0xfffffe30
 290:	696e6900 	stmdbvs	lr!, {r8, fp, sp, lr}^
 294:	74635f74 	strbtvc	r5, [r3], #-3956	; 0xf74
 298:	656d0078 	strbvs	r0, [sp, #-120]!	; 0x78
 29c:	67617373 			; <UNDEFINED> instruction: 0x67617373
 2a0:	61760065 	cmnvs	r6, r5, rrx
 2a4:	75625f6c 	strbvc	r5, [r2, #-3948]!	; 0xf6c
 2a8:	6c5f6666 	mrrcvs	6, 6, r6, pc, cr6	; <UNPREDICTABLE>
 2ac:	6d006e65 	stcvs	14, cr6, [r0, #-404]	; 0xfffffe6c
 2b0:	5f6f696d 	svcpl	0x006f696d
 2b4:	64616572 	strbtvs	r6, [r1], #-1394	; 0x572
 2b8:	49414d00 	stmdbmi	r1, {r8, sl, fp, lr}^
 2bc:	584f424c 	stmdapl	pc, {r2, r3, r6, r9, lr}^	; <UNPREDICTABLE>
 2c0:	4c4f505f 	mcrrmi	0, 5, r5, pc, cr15
 2c4:	6266004c 	rsbvs	r0, r6, #76	; 0x4c
 2c8:	6d00632e 	stcvs	3, cr6, [r0, #-184]	; 0xffffff48
 2cc:	5f6f696d 	svcpl	0x006f696d
 2d0:	74697277 	strbtvc	r7, [r9], #-631	; 0x277
 2d4:	62660065 	rsbvs	r0, r6, #101	; 0x65
 2d8:	7300795f 	movwvc	r7, #2399	; 0x95f
 2dc:	75746174 	ldrbvc	r6, [r4, #-372]!	; 0x174
 2e0:	6c620073 	stclvs	0, cr0, [r2], #-460	; 0xfffffe34
 2e4:	64006575 	strvs	r6, [r0], #-1397	; 0x575
 2e8:	68747065 	ldmdavs	r4!, {r0, r2, r5, r6, ip, sp, lr}^
 2ec:	74616400 	strbtvc	r6, [r1], #-1024	; 0x400
 2f0:	65720061 	ldrbvs	r0, [r2, #-97]!	; 0x61
 2f4:	6c617674 	stclvs	6, cr7, [r1], #-464	; 0xfffffe30
 2f8:	65726700 	ldrbvs	r6, [r2, #-1792]!	; 0x700
 2fc:	66006e65 	strvs	r6, [r0], -r5, ror #28
 300:	69735f62 	ldmdbvs	r3!, {r1, r5, r6, r8, r9, sl, fp, ip, lr}^
 304:	625f657a 	subsvs	r6, pc, #511705088	; 0x1e800000
 308:	73657479 	cmnvc	r5, #2030043136	; 0x79000000
 30c:	74757000 	ldrbtvc	r7, [r5], #-0
 310:	7869705f 	stmdavc	r9!, {r0, r1, r2, r3, r4, r6, ip, sp, lr}^
 314:	525f6c65 	subspl	r6, pc, #25856	; 0x6500
 318:	34324247 	ldrtcc	r4, [r2], #-583	; 0x247
 31c:	49414d00 	stmdbmi	r1, {r8, sl, fp, lr}^
 320:	584f424c 	stmdapl	pc, {r2, r3, r6, r9, lr}^	; <UNPREDICTABLE>
 324:	4154535f 	cmpmi	r4, pc, asr r3
 328:	00535554 	subseq	r5, r3, r4, asr r5
 32c:	6c69616d 	stfvse	f6, [r9], #-436	; 0xfffffe4c
 330:	00786f62 	rsbseq	r6, r8, r2, ror #30
 334:	4c49414d 	stfmie	f4, [r9], {77}	; 0x4d
 338:	5f584f42 	svcpl	0x00584f42
 33c:	444e4553 	strbmi	r4, [lr], #-1363	; 0x553
 340:	4d005245 	sfmmi	f5, 4, [r0, #-276]	; 0xfffffeec
 344:	626c6961 	rsbvs	r6, ip, #1589248	; 0x184000
 348:	6552786f 	ldrbvs	r7, [r2, #-2159]	; 0x86f
 34c:	4d006461 	cfstrsmi	mvf6, [r0, #-388]	; 0xfffffe7c
 350:	626c6961 	rsbvs	r6, ip, #1589248	; 0x184000
 354:	7257786f 	subsvc	r7, r7, #7274496	; 0x6f0000
 358:	00657469 	rsbeq	r7, r5, r9, ror #8
 35c:	615f6266 	cmpvs	pc, r6, ror #4
 360:	65726464 	ldrbvs	r6, [r2, #-1124]!	; 0x464
 364:	73007373 	movwvc	r7, #883	; 0x373
 368:	74657a69 	strbtvc	r7, [r5], #-2665	; 0xa69
 36c:	00657079 	rsbeq	r7, r5, r9, ror r0
 370:	4c49414d 	stfmie	f4, [r9], {77}	; 0x4d
 374:	5f584f42 	svcpl	0x00584f42
 378:	54495257 	strbpl	r5, [r9], #-599	; 0x257
 37c:	69700045 	ldmdbvs	r0!, {r0, r2, r6}^
 380:	00686374 	rsbeq	r6, r8, r4, ror r3
 384:	7366666f 	cmnvc	r6, #116391936	; 0x6f00000
 388:	75007465 	strvc	r7, [r0, #-1125]	; 0x465
 38c:	38746e69 	ldmdacc	r4!, {r0, r3, r5, r6, r9, sl, fp, sp, lr}^
 390:	49414d00 	stmdbmi	r1, {r8, sl, fp, lr}^
 394:	584f424c 	stmdapl	pc, {r2, r3, r6, r9, lr}^	; <UNPREDICTABLE>
 398:	4e4f435f 	mcrmi	3, 2, r4, cr15, cr15, {2}
 39c:	55474946 	strbpl	r4, [r7, #-2374]	; 0x946
 3a0:	49544152 	ldmdbmi	r4, {r1, r4, r6, r8, lr}^
 3a4:	4d004e4f 	stcmi	14, cr4, [r0, #-316]	; 0xfffffec4
 3a8:	424c4941 	submi	r4, ip, #1064960	; 0x104000
 3ac:	425f584f 	subsmi	r5, pc, #5177344	; 0x4f0000
 3b0:	00455341 	subeq	r5, r5, r1, asr #6
 3b4:	705f626d 	subsvc	r6, pc, sp, ror #4
 3b8:	6600736f 	strvs	r7, [r0], -pc, ror #6
 3bc:	00785f62 	rsbseq	r5, r8, r2, ror #30

Disassembly of section .debug_frame:

00000000 <.debug_frame>:
   0:	0000000c 	andeq	r0, r0, ip
   4:	ffffffff 			; <UNDEFINED> instruction: 0xffffffff
   8:	7c020001 	stcvc	0, cr0, [r2], {1}
   c:	000d0c0e 	andeq	r0, sp, lr, lsl #24
  10:	00000014 	andeq	r0, r0, r4, lsl r0
  14:	00000000 	andeq	r0, r0, r0
  18:	000080d0 	ldrdeq	r8, [r0], -r0
  1c:	00000038 	andeq	r0, r0, r8, lsr r0
  20:	83080e42 	movwhi	r0, #36418	; 0x8e42
  24:	00018e02 	andeq	r8, r1, r2, lsl #28
  28:	00000014 	andeq	r0, r0, r4, lsl r0
  2c:	00000000 	andeq	r0, r0, r0
  30:	00008108 	andeq	r8, r0, r8, lsl #2
  34:	00000038 	andeq	r0, r0, r8, lsr r0
  38:	83080e42 	movwhi	r0, #36418	; 0x8e42
  3c:	00018e02 	andeq	r8, r1, r2, lsl #28
  40:	00000014 	andeq	r0, r0, r4, lsl r0
  44:	00000000 	andeq	r0, r0, r0
  48:	00008140 	andeq	r8, r0, r0, asr #2
  4c:	00000038 	andeq	r0, r0, r8, lsr r0
  50:	83080e42 	movwhi	r0, #36418	; 0x8e42
  54:	00018e02 	andeq	r8, r1, r2, lsl #28
  58:	00000014 	andeq	r0, r0, r4, lsl r0
  5c:	00000000 	andeq	r0, r0, r0
  60:	00008178 	andeq	r8, r0, r8, ror r1
  64:	00000060 	andeq	r0, r0, r0, rrx
  68:	83080e42 	movwhi	r0, #36418	; 0x8e42
  6c:	00018e02 	andeq	r8, r1, r2, lsl #28
  70:	0000000c 	andeq	r0, r0, ip
  74:	ffffffff 			; <UNDEFINED> instruction: 0xffffffff
  78:	7c020001 	stcvc	0, cr0, [r2], {1}
  7c:	000d0c0e 	andeq	r0, sp, lr, lsl #24
  80:	00000018 	andeq	r0, r0, r8, lsl r0
  84:	00000070 	andeq	r0, r0, r0, ror r0
  88:	000081d8 	ldrdeq	r8, [r0], -r8	; <UNPREDICTABLE>
  8c:	000000b4 	strheq	r0, [r0], -r4
  90:	84080e42 	strhi	r0, [r8], #-3650	; 0xe42
  94:	42018502 	andmi	r8, r1, #8388608	; 0x800000
  98:	0000100e 	andeq	r1, r0, lr
  9c:	00000014 	andeq	r0, r0, r4, lsl r0
  a0:	00000070 	andeq	r0, r0, r0, ror r0
  a4:	0000828c 	andeq	r8, r0, ip, lsl #5
  a8:	00000048 	andeq	r0, r0, r8, asr #32
  ac:	84040e42 	strhi	r0, [r4], #-3650	; 0xe42
  b0:	100e4201 	andne	r4, lr, r1, lsl #4
  b4:	00000010 	andeq	r0, r0, r0, lsl r0
  b8:	00000070 	andeq	r0, r0, r0, ror r0
  bc:	000082d4 	ldrdeq	r8, [r0], -r4
  c0:	0000003c 	andeq	r0, r0, ip, lsr r0
  c4:	00080e42 	andeq	r0, r8, r2, asr #28
  c8:	0000000c 	andeq	r0, r0, ip
  cc:	ffffffff 			; <UNDEFINED> instruction: 0xffffffff
  d0:	7c020001 	stcvc	0, cr0, [r2], {1}
  d4:	000d0c0e 	andeq	r0, sp, lr, lsl #24
  d8:	00000014 	andeq	r0, r0, r4, lsl r0
  dc:	000000c8 	andeq	r0, r0, r8, asr #1
  e0:	00008310 	andeq	r8, r0, r0, lsl r3
  e4:	0000004c 	andeq	r0, r0, ip, asr #32
  e8:	8e040e42 	cdphi	14, 0, cr0, cr4, cr2, {2}
  ec:	100e4201 	andne	r4, lr, r1, lsl #4
  f0:	00000014 	andeq	r0, r0, r4, lsl r0
  f4:	000000c8 	andeq	r0, r0, r8, asr #1
  f8:	0000835c 	andeq	r8, r0, ip, asr r3
  fc:	00000058 	andeq	r0, r0, r8, asr r0
 100:	8e040e42 	cdphi	14, 0, cr0, cr4, cr2, {2}
 104:	180e4201 	stmdane	lr, {r0, r9, lr}
 108:	00000014 	andeq	r0, r0, r4, lsl r0
 10c:	000000c8 	andeq	r0, r0, r8, asr #1
 110:	000083b4 			; <UNDEFINED> instruction: 0x000083b4
 114:	00000018 	andeq	r0, r0, r8, lsl r0
 118:	83080e42 	movwhi	r0, #36418	; 0x8e42
 11c:	00018e02 	andeq	r8, r1, r2, lsl #28
 120:	00000014 	andeq	r0, r0, r4, lsl r0
 124:	000000c8 	andeq	r0, r0, r8, asr #1
 128:	000083cc 	andeq	r8, r0, ip, asr #7
 12c:	00000018 	andeq	r0, r0, r8, lsl r0
 130:	83080e42 	movwhi	r0, #36418	; 0x8e42
 134:	00018e02 	andeq	r8, r1, r2, lsl #28
 138:	00000014 	andeq	r0, r0, r4, lsl r0
 13c:	000000c8 	andeq	r0, r0, r8, asr #1
 140:	000083e4 	andeq	r8, r0, r4, ror #7
 144:	000000c0 	andeq	r0, r0, r0, asr #1
 148:	8e040e42 	cdphi	14, 0, cr0, cr4, cr2, {2}
 14c:	100e4201 	andne	r4, lr, r1, lsl #4
 150:	0000000c 	andeq	r0, r0, ip
 154:	ffffffff 			; <UNDEFINED> instruction: 0xffffffff
 158:	7c020001 	stcvc	0, cr0, [r2], {1}
 15c:	000d0c0e 	andeq	r0, sp, lr, lsl #24
 160:	00000014 	andeq	r0, r0, r4, lsl r0
 164:	00000150 	andeq	r0, r0, r0, asr r1
 168:	000084a4 	andeq	r8, r0, r4, lsr #9
 16c:	000000b8 	strheq	r0, [r0], -r8
 170:	8e040e42 	cdphi	14, 0, cr0, cr4, cr2, {2}
 174:	180e4201 	stmdane	lr, {r0, r9, lr}
 178:	00000014 	andeq	r0, r0, r4, lsl r0
 17c:	00000150 	andeq	r0, r0, r0, asr r1
 180:	0000855c 	andeq	r8, r0, ip, asr r5
 184:	00000074 	andeq	r0, r0, r4, ror r0
 188:	8e040e42 	cdphi	14, 0, cr0, cr4, cr2, {2}
 18c:	180e4201 	stmdane	lr, {r0, r9, lr}
 190:	00000014 	andeq	r0, r0, r4, lsl r0
 194:	00000150 	andeq	r0, r0, r0, asr r1
 198:	000085d0 	ldrdeq	r8, [r0], -r0
 19c:	000000ec 	andeq	r0, r0, ip, ror #1
 1a0:	8e040e42 	cdphi	14, 0, cr0, cr4, cr2, {2}
 1a4:	200e4201 	andcs	r4, lr, r1, lsl #4
 1a8:	00000014 	andeq	r0, r0, r4, lsl r0
 1ac:	00000150 	andeq	r0, r0, r0, asr r1
 1b0:	000086bc 			; <UNDEFINED> instruction: 0x000086bc
 1b4:	00000030 	andeq	r0, r0, r0, lsr r0
 1b8:	83080e42 	movwhi	r0, #36418	; 0x8e42
 1bc:	00018e02 	andeq	r8, r1, r2, lsl #28
 1c0:	00000014 	andeq	r0, r0, r4, lsl r0
 1c4:	00000150 	andeq	r0, r0, r0, asr r1
 1c8:	000086ec 	andeq	r8, r0, ip, ror #13
 1cc:	00000130 	andeq	r0, r0, r0, lsr r1
 1d0:	8e040e42 	cdphi	14, 0, cr0, cr4, cr2, {2}
 1d4:	100e4201 	andne	r4, lr, r1, lsl #4
 1d8:	00000014 	andeq	r0, r0, r4, lsl r0
 1dc:	00000150 	andeq	r0, r0, r0, asr r1
 1e0:	0000881c 	andeq	r8, r0, ip, lsl r8
 1e4:	00000090 	muleq	r0, r0, r0
 1e8:	83080e42 	movwhi	r0, #36418	; 0x8e42
 1ec:	00018e02 	andeq	r8, r1, r2, lsl #28
 1f0:	0000000c 	andeq	r0, r0, ip
 1f4:	00000150 	andeq	r0, r0, r0, asr r1
 1f8:	000088ac 	andeq	r8, r0, ip, lsr #17
 1fc:	00000090 	muleq	r0, r0, r0
 200:	0000000c 	andeq	r0, r0, ip
 204:	00000150 	andeq	r0, r0, r0, asr r1
 208:	0000893c 	andeq	r8, r0, ip, lsr r9
 20c:	000000cc 	andeq	r0, r0, ip, asr #1
 210:	0000000c 	andeq	r0, r0, ip
 214:	ffffffff 			; <UNDEFINED> instruction: 0xffffffff
 218:	7c020001 	stcvc	0, cr0, [r2], {1}
 21c:	000d0c0e 	andeq	r0, sp, lr, lsl #24
 220:	00000010 	andeq	r0, r0, r0, lsl r0
 224:	00000210 	andeq	r0, r0, r0, lsl r2
 228:	00008a08 	andeq	r8, r0, r8, lsl #20
 22c:	00000028 	andeq	r0, r0, r8, lsr #32
 230:	00100e42 	andseq	r0, r0, r2, asr #28
 234:	00000014 	andeq	r0, r0, r4, lsl r0
 238:	00000210 	andeq	r0, r0, r0, lsl r2
 23c:	00008a30 	andeq	r8, r0, r0, lsr sl
 240:	00000034 	andeq	r0, r0, r4, lsr r0
 244:	84040e42 	strhi	r0, [r4], #-3650	; 0xe42
 248:	180e4201 	stmdane	lr, {r0, r9, lr}
 24c:	00000014 	andeq	r0, r0, r4, lsl r0
 250:	00000210 	andeq	r0, r0, r0, lsl r2
 254:	00008a64 	andeq	r8, r0, r4, ror #20
 258:	0000007c 	andeq	r0, r0, ip, ror r0
 25c:	8e040e42 	cdphi	14, 0, cr0, cr4, cr2, {2}
 260:	180e4201 	stmdane	lr, {r0, r9, lr}
 264:	00000014 	andeq	r0, r0, r4, lsl r0
 268:	00000210 	andeq	r0, r0, r0, lsl r2
 26c:	00008ae0 	andeq	r8, r0, r0, ror #21
 270:	0000009c 	muleq	r0, ip, r0
 274:	8e040e42 	cdphi	14, 0, cr0, cr4, cr2, {2}
 278:	180e4201 	stmdane	lr, {r0, r9, lr}
 27c:	0000001c 	andeq	r0, r0, ip, lsl r0
 280:	00000210 	andeq	r0, r0, r0, lsl r2
 284:	00008b7c 	andeq	r8, r0, ip, ror fp
 288:	0000058c 	andeq	r0, r0, ip, lsl #11
 28c:	840c0e42 	strhi	r0, [ip], #-3650	; 0xe42
 290:	8e028b03 	vmlahi.f64	d8, d2, d3
 294:	0b0c4201 	bleq	310aa0 <__bss_end+0x307594>
 298:	00000004 	andeq	r0, r0, r4
 29c:	00000010 	andeq	r0, r0, r0, lsl r0
 2a0:	00000210 	andeq	r0, r0, r0, lsl r2
 2a4:	00009108 	andeq	r9, r0, r8, lsl #2
 2a8:	0000009c 	muleq	r0, ip, r0
 2ac:	00180e42 	andseq	r0, r8, r2, asr #28
 2b0:	00000014 	andeq	r0, r0, r4, lsl r0
 2b4:	00000210 	andeq	r0, r0, r0, lsl r2
 2b8:	000091a4 	andeq	r9, r0, r4, lsr #3
 2bc:	00000120 	andeq	r0, r0, r0, lsr #2
 2c0:	8e040e42 	cdphi	14, 0, cr0, cr4, cr2, {2}
 2c4:	200e4201 	andcs	r4, lr, r1, lsl #4
 2c8:	00000014 	andeq	r0, r0, r4, lsl r0
 2cc:	00000210 	andeq	r0, r0, r0, lsl r2
 2d0:	000092c4 	andeq	r9, r0, r4, asr #5
 2d4:	0000009c 	muleq	r0, ip, r0
 2d8:	8e040e42 	cdphi	14, 0, cr0, cr4, cr2, {2}
 2dc:	200e4201 	andcs	r4, lr, r1, lsl #4
 2e0:	00000014 	andeq	r0, r0, r4, lsl r0
 2e4:	00000210 	andeq	r0, r0, r0, lsl r2
 2e8:	00009360 	andeq	r9, r0, r0, ror #6
 2ec:	00000094 	muleq	r0, r4, r0
 2f0:	8e040e42 	cdphi	14, 0, cr0, cr4, cr2, {2}
 2f4:	200e4201 	andcs	r4, lr, r1, lsl #4
 2f8:	00000014 	andeq	r0, r0, r4, lsl r0
 2fc:	00000210 	andeq	r0, r0, r0, lsl r2
 300:	000093f4 	strdeq	r9, [r0], -r4
 304:	00000094 	muleq	r0, r4, r0
 308:	8e040e42 	cdphi	14, 0, cr0, cr4, cr2, {2}
 30c:	200e4201 	andcs	r4, lr, r1, lsl #4
 310:	00000010 	andeq	r0, r0, r0, lsl r0
 314:	00000210 	andeq	r0, r0, r0, lsl r2
 318:	00009488 	andeq	r9, r0, r8, lsl #9
 31c:	00000044 	andeq	r0, r0, r4, asr #32
 320:	00080e42 	andeq	r0, r8, r2, asr #28
