
kernel.elf:     file format elf32-littlearm


Disassembly of section .text:

00008000 <_start>:
    8000:	e59ff018 	ldr	pc, [pc, #24]	; 8020 <reset_handler>
    8004:	e59ff018 	ldr	pc, [pc, #24]	; 8024 <undefined_handler>
    8008:	e59ff018 	ldr	pc, [pc, #24]	; 8028 <swi_handler>
    800c:	e59ff018 	ldr	pc, [pc, #24]	; 802c <prefetch_handler>
    8010:	e59ff018 	ldr	pc, [pc, #24]	; 8030 <data_handler>
    8014:	e59ff018 	ldr	pc, [pc, #24]	; 8034 <unused_handler>
    8018:	e59ff018 	ldr	pc, [pc, #24]	; 8038 <irq_handler>
    801c:	e59ff018 	ldr	pc, [pc, #24]	; 803c <fiq_handler>

00008020 <reset_handler>:
    8020:	00008040 	andeq	r8, r0, r0, asr #32

00008024 <undefined_handler>:
    8024:	00008084 	andeq	r8, r0, r4, lsl #1

00008028 <swi_handler>:
    8028:	00008088 	andeq	r8, r0, r8, lsl #1

0000802c <prefetch_handler>:
    802c:	0000808c 	andeq	r8, r0, ip, lsl #1

00008030 <data_handler>:
    8030:	00008090 	muleq	r0, r0, r0

00008034 <unused_handler>:
    8034:	00008094 	muleq	r0, r4, r0

00008038 <irq_handler>:
    8038:	000080cc 	andeq	r8, r0, ip, asr #1

0000803c <fiq_handler>:
    803c:	00008098 	muleq	r0, r8, r0

00008040 <reset>:
    8040:	e3a00902 	mov	r0, #32768	; 0x8000
    8044:	e3a01000 	mov	r1, #0
    8048:	e8b003fc 	ldm	r0!, {r2, r3, r4, r5, r6, r7, r8, r9}
    804c:	e8a103fc 	stmia	r1!, {r2, r3, r4, r5, r6, r7, r8, r9}
    8050:	e8b003fc 	ldm	r0!, {r2, r3, r4, r5, r6, r7, r8, r9}
    8054:	e8a103fc 	stmia	r1!, {r2, r3, r4, r5, r6, r7, r8, r9}
    8058:	e3a000d1 	mov	r0, #209	; 0xd1
    805c:	e121f000 	msr	CPSR_c, r0
    8060:	e3a0d90e 	mov	sp, #229376	; 0x38000
    8064:	e3a000d2 	mov	r0, #210	; 0xd2
    8068:	e121f000 	msr	CPSR_c, r0
    806c:	e3a0d701 	mov	sp, #262144	; 0x40000
    8070:	e3a000d3 	mov	r0, #211	; 0xd3
    8074:	e121f000 	msr	CPSR_c, r0
    8078:	e3a0d912 	mov	sp, #294912	; 0x48000
    807c:	eb000021 	bl	8108 <kmain>

00008080 <hang>:
    8080:	eafffffe 	b	8080 <hang>

00008084 <undefined>:
    8084:	eafffffe 	b	8084 <undefined>

00008088 <swi>:
    8088:	eafffffe 	b	8088 <swi>

0000808c <prefetch>:
    808c:	eafffffe 	b	808c <prefetch>

00008090 <data>:
    8090:	eafffffe 	b	8090 <data>

00008094 <unused>:
    8094:	eafffffe 	b	8094 <unused>

00008098 <fiq>:
    8098:	eafffffe 	b	8098 <fiq>

0000809c <PUT32>:
    809c:	e5801000 	str	r1, [r0]
    80a0:	e12fff1e 	bx	lr

000080a4 <PUT16>:
    80a4:	e1c010b0 	strh	r1, [r0]
    80a8:	e12fff1e 	bx	lr

000080ac <PUT8>:
    80ac:	e5c01000 	strb	r1, [r0]
    80b0:	e12fff1e 	bx	lr

000080b4 <GET32>:
    80b4:	e5900000 	ldr	r0, [r0]
    80b8:	e12fff1e 	bx	lr

000080bc <GETPC>:
    80bc:	e1a0000e 	mov	r0, lr
    80c0:	e12fff1e 	bx	lr

000080c4 <BRANCHTO>:
    80c4:	e12fff10 	bx	r0

000080c8 <dummy>:
    80c8:	e12fff1e 	bx	lr

000080cc <irq>:
    80cc:	ea0001d3 	b	8820 <ctx_switch_from_irq>

000080d0 <funcA>:
    80d0:	e24dd008 	sub	sp, sp, #8
    80d4:	e3a03000 	mov	r3, #0
    80d8:	e58d3004 	str	r3, [sp, #4]
    80dc:	e59d3004 	ldr	r3, [sp, #4]
    80e0:	e2833001 	add	r3, r3, #1
    80e4:	e58d3004 	str	r3, [sp, #4]
    80e8:	eafffffb 	b	80dc <funcA+0xc>

000080ec <funcB>:
    80ec:	e24dd008 	sub	sp, sp, #8
    80f0:	e3a03001 	mov	r3, #1
    80f4:	e58d3004 	str	r3, [sp, #4]
    80f8:	e59d3004 	ldr	r3, [sp, #4]
    80fc:	e2833002 	add	r3, r3, #2
    8100:	e58d3004 	str	r3, [sp, #4]
    8104:	eafffffb 	b	80f8 <funcB+0xc>

00008108 <kmain>:
    8108:	e92d4008 	push	{r3, lr}
    810c:	eb000078 	bl	82f4 <init_hw>
    8110:	e59f0020 	ldr	r0, [pc, #32]	; 8138 <kmain+0x30>
    8114:	e3a01000 	mov	r1, #0
    8118:	e3a02c02 	mov	r2, #512	; 0x200
    811c:	eb0000eb 	bl	84d0 <create_process>
    8120:	e59f0014 	ldr	r0, [pc, #20]	; 813c <kmain+0x34>
    8124:	e3a01000 	mov	r1, #0
    8128:	e3a02c02 	mov	r2, #512	; 0x200
    812c:	eb0000e7 	bl	84d0 <create_process>
    8130:	eb000177 	bl	8714 <start_sched>
    8134:	eafffffe 	b	8134 <kmain+0x2c>
    8138:	000080ec 	andeq	r8, r0, ip, ror #1
    813c:	000080d0 	ldrdeq	r8, [r0], -r0

00008140 <phyAlloc_alloc>:
    8140:	e92d0030 	push	{r4, r5}
    8144:	e24dd008 	sub	sp, sp, #8
    8148:	e58d0004 	str	r0, [sp, #4]
    814c:	e59f3094 	ldr	r3, [pc, #148]	; 81e8 <phyAlloc_alloc+0xa8>
    8150:	e5934000 	ldr	r4, [r3]
    8154:	e59f508c 	ldr	r5, [pc, #140]	; 81e8 <phyAlloc_alloc+0xa8>
    8158:	ea000001 	b	8164 <phyAlloc_alloc+0x24>
    815c:	e1a05004 	mov	r5, r4
    8160:	e5944000 	ldr	r4, [r4]
    8164:	e3540000 	cmp	r4, #0
    8168:	0a000003 	beq	817c <phyAlloc_alloc+0x3c>
    816c:	e5942004 	ldr	r2, [r4, #4]
    8170:	e59d3004 	ldr	r3, [sp, #4]
    8174:	e1520003 	cmp	r2, r3
    8178:	3afffff7 	bcc	815c <phyAlloc_alloc+0x1c>
    817c:	e3540000 	cmp	r4, #0
    8180:	1a000011 	bne	81cc <phyAlloc_alloc+0x8c>
    8184:	e59f3060 	ldr	r3, [pc, #96]	; 81ec <phyAlloc_alloc+0xac>
    8188:	e5934000 	ldr	r4, [r3]
    818c:	e59f3058 	ldr	r3, [pc, #88]	; 81ec <phyAlloc_alloc+0xac>
    8190:	e5932000 	ldr	r2, [r3]
    8194:	e59d3004 	ldr	r3, [sp, #4]
    8198:	e2833003 	add	r3, r3, #3
    819c:	e3c33003 	bic	r3, r3, #3
    81a0:	e0822003 	add	r2, r2, r3
    81a4:	e59f3040 	ldr	r3, [pc, #64]	; 81ec <phyAlloc_alloc+0xac>
    81a8:	e5832000 	str	r2, [r3]
    81ac:	e59f3038 	ldr	r3, [pc, #56]	; 81ec <phyAlloc_alloc+0xac>
    81b0:	e5932000 	ldr	r2, [r3]
    81b4:	e59f3034 	ldr	r3, [pc, #52]	; 81f0 <phyAlloc_alloc+0xb0>
    81b8:	e5933000 	ldr	r3, [r3]
    81bc:	e1520003 	cmp	r2, r3
    81c0:	9a000003 	bls	81d4 <phyAlloc_alloc+0x94>
    81c4:	e3a03000 	mov	r3, #0
    81c8:	ea000002 	b	81d8 <phyAlloc_alloc+0x98>
    81cc:	e5943000 	ldr	r3, [r4]
    81d0:	e5853000 	str	r3, [r5]
    81d4:	e1a03004 	mov	r3, r4
    81d8:	e1a00003 	mov	r0, r3
    81dc:	e28dd008 	add	sp, sp, #8
    81e0:	e8bd0030 	pop	{r4, r5}
    81e4:	e12fff1e 	bx	lr
    81e8:	000088dc 	ldrdeq	r8, [r0], -ip
    81ec:	000088e0 	andeq	r8, r0, r0, ror #17
    81f0:	000088e4 	andeq	r8, r0, r4, ror #17

000081f4 <phyAlloc_free>:
    81f4:	e52d4004 	push	{r4}		; (str r4, [sp, #-4]!)
    81f8:	e24dd00c 	sub	sp, sp, #12
    81fc:	e58d0004 	str	r0, [sp, #4]
    8200:	e58d1000 	str	r1, [sp]
    8204:	e59d4004 	ldr	r4, [sp, #4]
    8208:	e59d3000 	ldr	r3, [sp]
    820c:	e2833003 	add	r3, r3, #3
    8210:	e3c33003 	bic	r3, r3, #3
    8214:	e5843004 	str	r3, [r4, #4]
    8218:	e59f3018 	ldr	r3, [pc, #24]	; 8238 <phyAlloc_free+0x44>
    821c:	e5933000 	ldr	r3, [r3]
    8220:	e5843000 	str	r3, [r4]
    8224:	e59f300c 	ldr	r3, [pc, #12]	; 8238 <phyAlloc_free+0x44>
    8228:	e5834000 	str	r4, [r3]
    822c:	e28dd00c 	add	sp, sp, #12
    8230:	e8bd0010 	pop	{r4}
    8234:	e12fff1e 	bx	lr
    8238:	000088dc 	ldrdeq	r8, [r0], -ip

0000823c <phyAlloc_init>:
    823c:	e24dd008 	sub	sp, sp, #8
    8240:	e58d0004 	str	r0, [sp, #4]
    8244:	e58d1000 	str	r1, [sp]
    8248:	e59f3020 	ldr	r3, [pc, #32]	; 8270 <phyAlloc_init+0x34>
    824c:	e59d2004 	ldr	r2, [sp, #4]
    8250:	e5832000 	str	r2, [r3]
    8254:	e59d2004 	ldr	r2, [sp, #4]
    8258:	e59d3000 	ldr	r3, [sp]
    825c:	e0822003 	add	r2, r2, r3
    8260:	e59f300c 	ldr	r3, [pc, #12]	; 8274 <phyAlloc_init+0x38>
    8264:	e5832000 	str	r2, [r3]
    8268:	e28dd008 	add	sp, sp, #8
    826c:	e12fff1e 	bx	lr
    8270:	000088e0 	andeq	r8, r0, r0, ror #17
    8274:	000088e4 	andeq	r8, r0, r4, ror #17

00008278 <set_tick_and_enable_timer>:
    8278:	e52de004 	push	{lr}		; (str lr, [sp, #-4]!)
    827c:	e24dd00c 	sub	sp, sp, #12
    8280:	e59f0030 	ldr	r0, [pc, #48]	; 82b8 <set_tick_and_enable_timer+0x40>
    8284:	ebffff8a 	bl	80b4 <GET32>
    8288:	e58d0004 	str	r0, [sp, #4]
    828c:	e59d3004 	ldr	r3, [sp, #4]
    8290:	e2833702 	add	r3, r3, #524288	; 0x80000
    8294:	e58d3004 	str	r3, [sp, #4]
    8298:	e59f001c 	ldr	r0, [pc, #28]	; 82bc <set_tick_and_enable_timer+0x44>
    829c:	e59d1004 	ldr	r1, [sp, #4]
    82a0:	ebffff7d 	bl	809c <PUT32>
    82a4:	e59f0014 	ldr	r0, [pc, #20]	; 82c0 <set_tick_and_enable_timer+0x48>
    82a8:	e3a01002 	mov	r1, #2
    82ac:	ebffff7a 	bl	809c <PUT32>
    82b0:	e28dd00c 	add	sp, sp, #12
    82b4:	e8bd8000 	pop	{pc}
    82b8:	20003004 	andcs	r3, r0, r4
    82bc:	20003010 	andcs	r3, r0, r0, lsl r0
    82c0:	20003000 	andcs	r3, r0, r0

000082c4 <led_off>:
    82c4:	e92d4008 	push	{r3, lr}
    82c8:	e59f0008 	ldr	r0, [pc, #8]	; 82d8 <led_off+0x14>
    82cc:	e3a01801 	mov	r1, #65536	; 0x10000
    82d0:	ebffff71 	bl	809c <PUT32>
    82d4:	e8bd8008 	pop	{r3, pc}
    82d8:	2020001c 	eorcs	r0, r0, ip, lsl r0

000082dc <led_on>:
    82dc:	e92d4008 	push	{r3, lr}
    82e0:	e59f0008 	ldr	r0, [pc, #8]	; 82f0 <led_on+0x14>
    82e4:	e3a01801 	mov	r1, #65536	; 0x10000
    82e8:	ebffff6b 	bl	809c <PUT32>
    82ec:	e8bd8008 	pop	{r3, pc}
    82f0:	20200028 	eorcs	r0, r0, r8, lsr #32

000082f4 <init_hw>:
    82f4:	e52de004 	push	{lr}		; (str lr, [sp, #-4]!)
    82f8:	e24dd00c 	sub	sp, sp, #12
    82fc:	e59f0098 	ldr	r0, [pc, #152]	; 839c <init_hw+0xa8>
    8300:	ebffff6b 	bl	80b4 <GET32>
    8304:	e58d0004 	str	r0, [sp, #4]
    8308:	e59d3004 	ldr	r3, [sp, #4]
    830c:	e3c33707 	bic	r3, r3, #1835008	; 0x1c0000
    8310:	e58d3004 	str	r3, [sp, #4]
    8314:	e59d3004 	ldr	r3, [sp, #4]
    8318:	e3833701 	orr	r3, r3, #262144	; 0x40000
    831c:	e58d3004 	str	r3, [sp, #4]
    8320:	e59f0074 	ldr	r0, [pc, #116]	; 839c <init_hw+0xa8>
    8324:	e59d1004 	ldr	r1, [sp, #4]
    8328:	ebffff5b 	bl	809c <PUT32>
    832c:	e59f006c 	ldr	r0, [pc, #108]	; 83a0 <init_hw+0xac>
    8330:	e3a01801 	mov	r1, #65536	; 0x10000
    8334:	ebffff58 	bl	809c <PUT32>
    8338:	e59f0064 	ldr	r0, [pc, #100]	; 83a4 <init_hw+0xb0>
    833c:	ebffff5c 	bl	80b4 <GET32>
    8340:	e58d0000 	str	r0, [sp]
    8344:	e59d3000 	ldr	r3, [sp]
    8348:	e2833702 	add	r3, r3, #524288	; 0x80000
    834c:	e58d3000 	str	r3, [sp]
    8350:	e59f0050 	ldr	r0, [pc, #80]	; 83a8 <init_hw+0xb4>
    8354:	e59d1000 	ldr	r1, [sp]
    8358:	ebffff4f 	bl	809c <PUT32>
    835c:	e59f0048 	ldr	r0, [pc, #72]	; 83ac <init_hw+0xb8>
    8360:	e3a01002 	mov	r1, #2
    8364:	ebffff4c 	bl	809c <PUT32>
    8368:	e59f0040 	ldr	r0, [pc, #64]	; 83b0 <init_hw+0xbc>
    836c:	e3a01002 	mov	r1, #2
    8370:	ebffff49 	bl	809c <PUT32>
    8374:	e92d0001 	push	{r0}
    8378:	e10f0000 	mrs	r0, CPSR
    837c:	e3800080 	orr	r0, r0, #128	; 0x80
    8380:	e121f000 	msr	CPSR_c, r0
    8384:	e8bd0001 	pop	{r0}
    8388:	e3a00805 	mov	r0, #327680	; 0x50000
    838c:	e3a01a32 	mov	r1, #204800	; 0x32000
    8390:	ebffffa9 	bl	823c <phyAlloc_init>
    8394:	e28dd00c 	add	sp, sp, #12
    8398:	e8bd8000 	pop	{pc}
    839c:	20200004 	eorcs	r0, r0, r4
    83a0:	2020001c 	eorcs	r0, r0, ip, lsl r0
    83a4:	20003004 	andcs	r3, r0, r4
    83a8:	20003010 	andcs	r3, r0, r0, lsl r0
    83ac:	20003000 	andcs	r3, r0, r0
    83b0:	2000b210 	andcs	fp, r0, r0, lsl r2

000083b4 <init_ctx>:
    83b4:	e52de004 	push	{lr}		; (str lr, [sp, #-4]!)
    83b8:	e24dd014 	sub	sp, sp, #20
    83bc:	e58d000c 	str	r0, [sp, #12]
    83c0:	e58d1008 	str	r1, [sp, #8]
    83c4:	e58d2004 	str	r2, [sp, #4]
    83c8:	e59d0004 	ldr	r0, [sp, #4]
    83cc:	ebffff5b 	bl	8140 <phyAlloc_alloc>
    83d0:	e1a02000 	mov	r2, r0
    83d4:	e59d300c 	ldr	r3, [sp, #12]
    83d8:	e5832000 	str	r2, [r3]
    83dc:	e59d300c 	ldr	r3, [sp, #12]
    83e0:	e5932000 	ldr	r2, [r3]
    83e4:	e59d3004 	ldr	r3, [sp, #4]
    83e8:	e1a03103 	lsl	r3, r3, #2
    83ec:	e0822003 	add	r2, r2, r3
    83f0:	e59d300c 	ldr	r3, [sp, #12]
    83f4:	e5832000 	str	r2, [r3]
    83f8:	e59d300c 	ldr	r3, [sp, #12]
    83fc:	e5933000 	ldr	r3, [r3]
    8400:	e2432004 	sub	r2, r3, #4
    8404:	e59d300c 	ldr	r3, [sp, #12]
    8408:	e5832000 	str	r2, [r3]
    840c:	e59d300c 	ldr	r3, [sp, #12]
    8410:	e5933000 	ldr	r3, [r3]
    8414:	e3a02053 	mov	r2, #83	; 0x53
    8418:	e5832000 	str	r2, [r3]
    841c:	e59d300c 	ldr	r3, [sp, #12]
    8420:	e5933000 	ldr	r3, [r3]
    8424:	e2432004 	sub	r2, r3, #4
    8428:	e59d300c 	ldr	r3, [sp, #12]
    842c:	e5832000 	str	r2, [r3]
    8430:	e59d300c 	ldr	r3, [sp, #12]
    8434:	e5933000 	ldr	r3, [r3]
    8438:	e59f2028 	ldr	r2, [pc, #40]	; 8468 <init_ctx+0xb4>
    843c:	e5832000 	str	r2, [r3]
    8440:	e59d300c 	ldr	r3, [sp, #12]
    8444:	e5933000 	ldr	r3, [r3]
    8448:	e2432034 	sub	r2, r3, #52	; 0x34
    844c:	e59d300c 	ldr	r3, [sp, #12]
    8450:	e5832000 	str	r2, [r3]
    8454:	e59d300c 	ldr	r3, [sp, #12]
    8458:	e59d2008 	ldr	r2, [sp, #8]
    845c:	e5832004 	str	r2, [r3, #4]
    8460:	e28dd014 	add	sp, sp, #20
    8464:	e8bd8000 	pop	{pc}
    8468:	000085b4 			; <UNDEFINED> instruction: 0x000085b4

0000846c <init_pcb>:
    846c:	e52de004 	push	{lr}		; (str lr, [sp, #-4]!)
    8470:	e24dd014 	sub	sp, sp, #20
    8474:	e58d000c 	str	r0, [sp, #12]
    8478:	e58d1008 	str	r1, [sp, #8]
    847c:	e58d2004 	str	r2, [sp, #4]
    8480:	e3a00008 	mov	r0, #8
    8484:	ebffff2d 	bl	8140 <phyAlloc_alloc>
    8488:	e1a02000 	mov	r2, r0
    848c:	e59d300c 	ldr	r3, [sp, #12]
    8490:	e5832004 	str	r2, [r3, #4]
    8494:	e59d300c 	ldr	r3, [sp, #12]
    8498:	e5933004 	ldr	r3, [r3, #4]
    849c:	e1a00003 	mov	r0, r3
    84a0:	e59f1024 	ldr	r1, [pc, #36]	; 84cc <init_pcb+0x60>
    84a4:	e59d2004 	ldr	r2, [sp, #4]
    84a8:	ebffffc1 	bl	83b4 <init_ctx>
    84ac:	e59d300c 	ldr	r3, [sp, #12]
    84b0:	e3a02001 	mov	r2, #1
    84b4:	e5c32000 	strb	r2, [r3]
    84b8:	e59d300c 	ldr	r3, [sp, #12]
    84bc:	e59d2008 	ldr	r2, [sp, #8]
    84c0:	e5832010 	str	r2, [r3, #16]
    84c4:	e28dd014 	add	sp, sp, #20
    84c8:	e8bd8000 	pop	{pc}
    84cc:	000085b4 			; <UNDEFINED> instruction: 0x000085b4

000084d0 <create_process>:
    84d0:	e52de004 	push	{lr}		; (str lr, [sp, #-4]!)
    84d4:	e24dd01c 	sub	sp, sp, #28
    84d8:	e58d000c 	str	r0, [sp, #12]
    84dc:	e58d1008 	str	r1, [sp, #8]
    84e0:	e58d2004 	str	r2, [sp, #4]
    84e4:	e92d0001 	push	{r0}
    84e8:	e10f0000 	mrs	r0, CPSR
    84ec:	e3800080 	orr	r0, r0, #128	; 0x80
    84f0:	e121f000 	msr	CPSR_c, r0
    84f4:	e8bd0001 	pop	{r0}
    84f8:	e3a00014 	mov	r0, #20
    84fc:	ebffff0f 	bl	8140 <phyAlloc_alloc>
    8500:	e58d0014 	str	r0, [sp, #20]
    8504:	e59f30a0 	ldr	r3, [pc, #160]	; 85ac <create_process+0xdc>
    8508:	e5933000 	ldr	r3, [r3]
    850c:	e3530000 	cmp	r3, #0
    8510:	1a00000d 	bne	854c <create_process+0x7c>
    8514:	e59f3094 	ldr	r3, [pc, #148]	; 85b0 <create_process+0xe0>
    8518:	e5933000 	ldr	r3, [r3]
    851c:	e3530000 	cmp	r3, #0
    8520:	1a000009 	bne	854c <create_process+0x7c>
    8524:	e59f3080 	ldr	r3, [pc, #128]	; 85ac <create_process+0xdc>
    8528:	e59d2014 	ldr	r2, [sp, #20]
    852c:	e5832000 	str	r2, [r3]
    8530:	e59f3078 	ldr	r3, [pc, #120]	; 85b0 <create_process+0xe0>
    8534:	e59d2014 	ldr	r2, [sp, #20]
    8538:	e5832000 	str	r2, [r3]
    853c:	e59d3014 	ldr	r3, [sp, #20]
    8540:	e59d2014 	ldr	r2, [sp, #20]
    8544:	e5832008 	str	r2, [r3, #8]
    8548:	ea00000b 	b	857c <create_process+0xac>
    854c:	e59f3058 	ldr	r3, [pc, #88]	; 85ac <create_process+0xdc>
    8550:	e5933000 	ldr	r3, [r3]
    8554:	e59d2014 	ldr	r2, [sp, #20]
    8558:	e5832008 	str	r2, [r3, #8]
    855c:	e59f3048 	ldr	r3, [pc, #72]	; 85ac <create_process+0xdc>
    8560:	e59d2014 	ldr	r2, [sp, #20]
    8564:	e5832000 	str	r2, [r3]
    8568:	e59f303c 	ldr	r3, [pc, #60]	; 85ac <create_process+0xdc>
    856c:	e5933000 	ldr	r3, [r3]
    8570:	e59f2038 	ldr	r2, [pc, #56]	; 85b0 <create_process+0xe0>
    8574:	e5922000 	ldr	r2, [r2]
    8578:	e5832008 	str	r2, [r3, #8]
    857c:	e59d0014 	ldr	r0, [sp, #20]
    8580:	e59d100c 	ldr	r1, [sp, #12]
    8584:	e59d2004 	ldr	r2, [sp, #4]
    8588:	ebffffb7 	bl	846c <init_pcb>
    858c:	ebffff39 	bl	8278 <set_tick_and_enable_timer>
    8590:	e92d0001 	push	{r0}
    8594:	e10f0000 	mrs	r0, CPSR
    8598:	e3c00080 	bic	r0, r0, #128	; 0x80
    859c:	e121f000 	msr	CPSR_c, r0
    85a0:	e8bd0001 	pop	{r0}
    85a4:	e28dd01c 	add	sp, sp, #28
    85a8:	e8bd8000 	pop	{pc}
    85ac:	000088f0 	strdeq	r8, [r0], -r0
    85b0:	000088ec 	andeq	r8, r0, ip, ror #17

000085b4 <start_current_process>:
    85b4:	e92d4008 	push	{r3, lr}
    85b8:	e59f3020 	ldr	r3, [pc, #32]	; 85e0 <start_current_process+0x2c>
    85bc:	e5933000 	ldr	r3, [r3]
    85c0:	e5933010 	ldr	r3, [r3, #16]
    85c4:	e12fff33 	blx	r3
    85c8:	e59f3010 	ldr	r3, [pc, #16]	; 85e0 <start_current_process+0x2c>
    85cc:	e5933000 	ldr	r3, [r3]
    85d0:	e3a02005 	mov	r2, #5
    85d4:	e5c32000 	strb	r2, [r3]
    85d8:	eb00006c 	bl	8790 <ctx_switch>
    85dc:	e8bd8008 	pop	{r3, pc}
    85e0:	000088f4 	strdeq	r8, [r0], -r4

000085e4 <elect>:
    85e4:	e52de004 	push	{lr}		; (str lr, [sp, #-4]!)
    85e8:	e24dd00c 	sub	sp, sp, #12
    85ec:	e3a03000 	mov	r3, #0
    85f0:	e58d3004 	str	r3, [sp, #4]
    85f4:	ea000030 	b	86bc <elect+0xd8>
    85f8:	e59f310c 	ldr	r3, [pc, #268]	; 870c <elect+0x128>
    85fc:	e5933000 	ldr	r3, [r3]
    8600:	e5933008 	ldr	r3, [r3, #8]
    8604:	e58d3004 	str	r3, [sp, #4]
    8608:	e59f30fc 	ldr	r3, [pc, #252]	; 870c <elect+0x128>
    860c:	e5933000 	ldr	r3, [r3]
    8610:	e59f20f4 	ldr	r2, [pc, #244]	; 870c <elect+0x128>
    8614:	e5922000 	ldr	r2, [r2]
    8618:	e5922008 	ldr	r2, [r2, #8]
    861c:	e5922008 	ldr	r2, [r2, #8]
    8620:	e5832008 	str	r2, [r3, #8]
    8624:	e59f30e0 	ldr	r3, [pc, #224]	; 870c <elect+0x128>
    8628:	e5933000 	ldr	r3, [r3]
    862c:	e5932008 	ldr	r2, [r3, #8]
    8630:	e59f30d4 	ldr	r3, [pc, #212]	; 870c <elect+0x128>
    8634:	e5933000 	ldr	r3, [r3]
    8638:	e1520003 	cmp	r2, r3
    863c:	1a000008 	bne	8664 <elect+0x80>
    8640:	e59f30c8 	ldr	r3, [pc, #200]	; 8710 <elect+0x12c>
    8644:	e5932000 	ldr	r2, [r3]
    8648:	e59f30bc 	ldr	r3, [pc, #188]	; 870c <elect+0x128>
    864c:	e5832000 	str	r2, [r3]
    8650:	e59f30b4 	ldr	r3, [pc, #180]	; 870c <elect+0x128>
    8654:	e5933000 	ldr	r3, [r3]
    8658:	e59f20b0 	ldr	r2, [pc, #176]	; 8710 <elect+0x12c>
    865c:	e5922000 	ldr	r2, [r2]
    8660:	e5832008 	str	r2, [r3, #8]
    8664:	e59d3004 	ldr	r3, [sp, #4]
    8668:	e5932004 	ldr	r2, [r3, #4]
    866c:	e59d3004 	ldr	r3, [sp, #4]
    8670:	e5933004 	ldr	r3, [r3, #4]
    8674:	e5933000 	ldr	r3, [r3]
    8678:	e2433e83 	sub	r3, r3, #2096	; 0x830
    867c:	e2433008 	sub	r3, r3, #8
    8680:	e5823000 	str	r3, [r2]
    8684:	e59d3004 	ldr	r3, [sp, #4]
    8688:	e5933004 	ldr	r3, [r3, #4]
    868c:	e5933000 	ldr	r3, [r3]
    8690:	e1a00003 	mov	r0, r3
    8694:	e3a01c02 	mov	r1, #512	; 0x200
    8698:	ebfffed5 	bl	81f4 <phyAlloc_free>
    869c:	e59d3004 	ldr	r3, [sp, #4]
    86a0:	e5933004 	ldr	r3, [r3, #4]
    86a4:	e1a00003 	mov	r0, r3
    86a8:	e3a01008 	mov	r1, #8
    86ac:	ebfffed0 	bl	81f4 <phyAlloc_free>
    86b0:	e59d0004 	ldr	r0, [sp, #4]
    86b4:	e3a01014 	mov	r1, #20
    86b8:	ebfffecd 	bl	81f4 <phyAlloc_free>
    86bc:	e59f3048 	ldr	r3, [pc, #72]	; 870c <elect+0x128>
    86c0:	e5933000 	ldr	r3, [r3]
    86c4:	e5933008 	ldr	r3, [r3, #8]
    86c8:	e5d33000 	ldrb	r3, [r3]
    86cc:	e3530005 	cmp	r3, #5
    86d0:	0affffc8 	beq	85f8 <elect+0x14>
    86d4:	e59f3030 	ldr	r3, [pc, #48]	; 870c <elect+0x128>
    86d8:	e5933000 	ldr	r3, [r3]
    86dc:	e5932008 	ldr	r2, [r3, #8]
    86e0:	e59f3028 	ldr	r3, [pc, #40]	; 8710 <elect+0x12c>
    86e4:	e5933000 	ldr	r3, [r3]
    86e8:	e1520003 	cmp	r2, r3
    86ec:	0a000004 	beq	8704 <elect+0x120>
    86f0:	e59f3014 	ldr	r3, [pc, #20]	; 870c <elect+0x128>
    86f4:	e5933000 	ldr	r3, [r3]
    86f8:	e5932008 	ldr	r2, [r3, #8]
    86fc:	e59f3008 	ldr	r3, [pc, #8]	; 870c <elect+0x128>
    8700:	e5832000 	str	r2, [r3]
    8704:	e28dd00c 	add	sp, sp, #12
    8708:	e8bd8000 	pop	{pc}
    870c:	000088f4 	strdeq	r8, [r0], -r4
    8710:	000088e8 	andeq	r8, r0, r8, ror #17

00008714 <start_sched>:
    8714:	e92d4008 	push	{r3, lr}
    8718:	e3a00014 	mov	r0, #20
    871c:	ebfffe87 	bl	8140 <phyAlloc_alloc>
    8720:	e1a02000 	mov	r2, r0
    8724:	e59f3058 	ldr	r3, [pc, #88]	; 8784 <start_sched+0x70>
    8728:	e5832000 	str	r2, [r3]
    872c:	e59f3050 	ldr	r3, [pc, #80]	; 8784 <start_sched+0x70>
    8730:	e5933000 	ldr	r3, [r3]
    8734:	e1a00003 	mov	r0, r3
    8738:	e3a01000 	mov	r1, #0
    873c:	e3a02c02 	mov	r2, #512	; 0x200
    8740:	ebffff49 	bl	846c <init_pcb>
    8744:	e59f3038 	ldr	r3, [pc, #56]	; 8784 <start_sched+0x70>
    8748:	e5933000 	ldr	r3, [r3]
    874c:	e59f2034 	ldr	r2, [pc, #52]	; 8788 <start_sched+0x74>
    8750:	e5922000 	ldr	r2, [r2]
    8754:	e5832008 	str	r2, [r3, #8]
    8758:	e59f3024 	ldr	r3, [pc, #36]	; 8784 <start_sched+0x70>
    875c:	e5932000 	ldr	r2, [r3]
    8760:	e59f3024 	ldr	r3, [pc, #36]	; 878c <start_sched+0x78>
    8764:	e5832000 	str	r2, [r3]
    8768:	ebfffec2 	bl	8278 <set_tick_and_enable_timer>
    876c:	e92d0001 	push	{r0}
    8770:	e10f0000 	mrs	r0, CPSR
    8774:	e3c00080 	bic	r0, r0, #128	; 0x80
    8778:	e121f000 	msr	CPSR_c, r0
    877c:	e8bd0001 	pop	{r0}
    8780:	e8bd8008 	pop	{r3, pc}
    8784:	000088e8 	andeq	r8, r0, r8, ror #17
    8788:	000088ec 	andeq	r8, r0, ip, ror #17
    878c:	000088f4 	strdeq	r8, [r0], -r4

00008790 <ctx_switch>:
    8790:	e92d0001 	push	{r0}
    8794:	e10f0000 	mrs	r0, CPSR
    8798:	e3800080 	orr	r0, r0, #128	; 0x80
    879c:	e121f000 	msr	CPSR_c, r0
    87a0:	e8bd0001 	pop	{r0}
    87a4:	e92d1fff 	push	{r0, r1, r2, r3, r4, r5, r6, r7, r8, r9, sl, fp, ip}
    87a8:	e59f306c 	ldr	r3, [pc, #108]	; 881c <ctx_switch+0x8c>
    87ac:	e5933000 	ldr	r3, [r3]
    87b0:	e5933004 	ldr	r3, [r3, #4]
    87b4:	e1a0200e 	mov	r2, lr
    87b8:	e5832004 	str	r2, [r3, #4]
    87bc:	e59f3058 	ldr	r3, [pc, #88]	; 881c <ctx_switch+0x8c>
    87c0:	e5933000 	ldr	r3, [r3]
    87c4:	e5933004 	ldr	r3, [r3, #4]
    87c8:	e1a0200d 	mov	r2, sp
    87cc:	e5832000 	str	r2, [r3]
    87d0:	ebffff83 	bl	85e4 <elect>
    87d4:	e59f3040 	ldr	r3, [pc, #64]	; 881c <ctx_switch+0x8c>
    87d8:	e5933000 	ldr	r3, [r3]
    87dc:	e5933004 	ldr	r3, [r3, #4]
    87e0:	e5933000 	ldr	r3, [r3]
    87e4:	e1a0d003 	mov	sp, r3
    87e8:	e59f302c 	ldr	r3, [pc, #44]	; 881c <ctx_switch+0x8c>
    87ec:	e5933000 	ldr	r3, [r3]
    87f0:	e5933004 	ldr	r3, [r3, #4]
    87f4:	e5933004 	ldr	r3, [r3, #4]
    87f8:	e1a0e003 	mov	lr, r3
    87fc:	ebfffe9d 	bl	8278 <set_tick_and_enable_timer>
    8800:	e8bd1fff 	pop	{r0, r1, r2, r3, r4, r5, r6, r7, r8, r9, sl, fp, ip}
    8804:	e92d0001 	push	{r0}
    8808:	e10f0000 	mrs	r0, CPSR
    880c:	e3c00080 	bic	r0, r0, #128	; 0x80
    8810:	e121f000 	msr	CPSR_c, r0
    8814:	e8bd0001 	pop	{r0}
    8818:	e12fff1e 	bx	lr
    881c:	000088f4 	strdeq	r8, [r0], -r4

00008820 <ctx_switch_from_irq>:
    8820:	e92d0001 	push	{r0}
    8824:	e10f0000 	mrs	r0, CPSR
    8828:	e3800080 	orr	r0, r0, #128	; 0x80
    882c:	e121f000 	msr	CPSR_c, r0
    8830:	e8bd0001 	pop	{r0}
    8834:	e24ee004 	sub	lr, lr, #4
    8838:	f96d0513 	srsdb	sp!, #19
    883c:	f1020013 	cps	#19
    8840:	e92d1fff 	push	{r0, r1, r2, r3, r4, r5, r6, r7, r8, r9, sl, fp, ip}
    8844:	e59f308c 	ldr	r3, [pc, #140]	; 88d8 <ctx_switch_from_irq+0xb8>
    8848:	e5933000 	ldr	r3, [r3]
    884c:	e5933004 	ldr	r3, [r3, #4]
    8850:	e1a0200e 	mov	r2, lr
    8854:	e5832004 	str	r2, [r3, #4]
    8858:	e59f3078 	ldr	r3, [pc, #120]	; 88d8 <ctx_switch_from_irq+0xb8>
    885c:	e5933000 	ldr	r3, [r3]
    8860:	e5933004 	ldr	r3, [r3, #4]
    8864:	e1a0200d 	mov	r2, sp
    8868:	e5832000 	str	r2, [r3]
    886c:	e59f3064 	ldr	r3, [pc, #100]	; 88d8 <ctx_switch_from_irq+0xb8>
    8870:	e5933000 	ldr	r3, [r3]
    8874:	e3a02001 	mov	r2, #1
    8878:	e5c32000 	strb	r2, [r3]
    887c:	ebffff58 	bl	85e4 <elect>
    8880:	e59f3050 	ldr	r3, [pc, #80]	; 88d8 <ctx_switch_from_irq+0xb8>
    8884:	e5933000 	ldr	r3, [r3]
    8888:	e3a02004 	mov	r2, #4
    888c:	e5c32000 	strb	r2, [r3]
    8890:	e59f3040 	ldr	r3, [pc, #64]	; 88d8 <ctx_switch_from_irq+0xb8>
    8894:	e5933000 	ldr	r3, [r3]
    8898:	e5933004 	ldr	r3, [r3, #4]
    889c:	e5933000 	ldr	r3, [r3]
    88a0:	e1a0d003 	mov	sp, r3
    88a4:	e59f302c 	ldr	r3, [pc, #44]	; 88d8 <ctx_switch_from_irq+0xb8>
    88a8:	e5933000 	ldr	r3, [r3]
    88ac:	e5933004 	ldr	r3, [r3, #4]
    88b0:	e5933004 	ldr	r3, [r3, #4]
    88b4:	e1a0e003 	mov	lr, r3
    88b8:	ebfffe6e 	bl	8278 <set_tick_and_enable_timer>
    88bc:	e8bd1fff 	pop	{r0, r1, r2, r3, r4, r5, r6, r7, r8, r9, sl, fp, ip}
    88c0:	e92d0001 	push	{r0}
    88c4:	e10f0000 	mrs	r0, CPSR
    88c8:	e3c00080 	bic	r0, r0, #128	; 0x80
    88cc:	e121f000 	msr	CPSR_c, r0
    88d0:	e8bd0001 	pop	{r0}
    88d4:	f8bd0a00 	rfeia	sp!
    88d8:	000088f4 	strdeq	r8, [r0], -r4

Disassembly of section .bss:

000088dc <freelist>:
    88dc:	00000000 	andeq	r0, r0, r0

000088e0 <top>:
    88e0:	00000000 	andeq	r0, r0, r0

000088e4 <heap_limit>:
    88e4:	00000000 	andeq	r0, r0, r0

000088e8 <pcb_main>:
    88e8:	00000000 	andeq	r0, r0, r0

000088ec <pcb_head>:
    88ec:	00000000 	andeq	r0, r0, r0

000088f0 <pcb_tail>:
    88f0:	00000000 	andeq	r0, r0, r0

000088f4 <current_process>:
    88f4:	00000000 	andeq	r0, r0, r0

000088f8 <current_ctx>:
    88f8:	00000000 	andeq	r0, r0, r0

Disassembly of section .ARM.attributes:

00000000 <.ARM.attributes>:
   0:	00003141 	andeq	r3, r0, r1, asr #2
   4:	61656100 	cmnvs	r5, r0, lsl #2
   8:	01006962 	tsteq	r0, r2, ror #18
   c:	00000027 	andeq	r0, r0, r7, lsr #32
  10:	005a3605 	subseq	r3, sl, r5, lsl #12
  14:	01080706 	tsteq	r8, r6, lsl #14
  18:	020a0109 	andeq	r0, sl, #1073741826	; 0x40000002
  1c:	01140412 	tsteq	r4, r2, lsl r4
  20:	03170115 	tsteq	r7, #1073741829	; 0x40000005
  24:	011a0118 	tsteq	sl, r8, lsl r1
  28:	011c031b 	tsteq	ip, fp, lsl r3
  2c:	012c0122 	teqeq	ip, r2, lsr #2
  30:	Address 0x0000000000000030 is out of bounds.


Disassembly of section .comment:

00000000 <.comment>:
   0:	3a434347 	bcc	10d0d24 <__bss_end+0x10c8428>
   4:	4e472820 	cdpmi	8, 4, cr2, cr7, cr0, {1}
   8:	34202955 	strtcc	r2, [r0], #-2389	; 0x955
   c:	312e372e 	teqcc	lr, lr, lsr #14
	...

Disassembly of section .debug_line:

00000000 <.debug_line>:
   0:	00000061 	andeq	r0, r0, r1, rrx
   4:	00200002 	eoreq	r0, r0, r2
   8:	01020000 	mrseq	r0, (UNDEF: 2)
   c:	000d0efb 	strdeq	r0, [sp], -fp
  10:	01010101 	tsteq	r1, r1, lsl #2
  14:	01000000 	mrseq	r0, (UNDEF: 0)
  18:	00010000 	andeq	r0, r1, r0
  1c:	74636576 	strbtvc	r6, [r3], #-1398	; 0x576
  20:	2e73726f 	cdpcs	2, 7, cr7, cr3, cr15, {3}
  24:	00000073 	andeq	r0, r0, r3, ror r0
  28:	05000000 	streq	r0, [r0, #-0]
  2c:	00800002 	addeq	r0, r0, r2
  30:	2f2f1900 	svccs	0x002f1900
  34:	2f2f2f2f 	svccs	0x002f2f2f
  38:	080b032f 	stmdaeq	fp, {r0, r1, r2, r3, r5, r8, r9}
  3c:	2f2f2f20 	svccs	0x002f2f20
  40:	2f322f2f 	svccs	0x00322f2f
  44:	2f2f322f 	svccs	0x002f322f
  48:	302f2f31 	eorcc	r2, pc, r1, lsr pc	; <UNPREDICTABLE>
  4c:	2f2f2f30 	svccs	0x002f2f30
  50:	322f2f2f 	eorcc	r2, pc, #188	; 0xbc
  54:	322f322f 	eorcc	r3, pc, #-268435454	; 0xf0000002
  58:	322f322f 	eorcc	r3, pc, #-268435454	; 0xf0000002
  5c:	3032322f 	eorscc	r3, r2, pc, lsr #4
  60:	01000202 	tsteq	r0, r2, lsl #4
  64:	00005301 	andeq	r5, r0, r1, lsl #6
  68:	1f000200 	svcne	0x00000200
  6c:	02000000 	andeq	r0, r0, #0
  70:	0d0efb01 	vstreq	d15, [lr, #-4]
  74:	01010100 	mrseq	r0, (UNDEF: 17)
  78:	00000001 	andeq	r0, r0, r1
  7c:	01000001 	tsteq	r0, r1
  80:	72656b00 	rsbvc	r6, r5, #0
  84:	2e6c656e 	cdpcs	5, 6, cr6, cr12, cr14, {3}
  88:	00000063 	andeq	r0, r0, r3, rrx
  8c:	05000000 	streq	r0, [r0, #-0]
  90:	0080d002 	addeq	sp, r0, r2
  94:	002f1a00 	eoreq	r1, pc, r0, lsl #20
  98:	4c010402 	cfstrsmi	mvf0, [r1], {2}
  9c:	01040200 	mrseq	r0, R12_usr
  a0:	002f3267 	eoreq	r3, pc, r7, ror #4
  a4:	4c010402 	cfstrsmi	mvf0, [r1], {2}
  a8:	01040200 	mrseq	r0, R12_usr
  ac:	2f2f3367 	svccs	0x002f3367
  b0:	02008383 	andeq	r8, r0, #201326594	; 0xc000002
  b4:	022f0104 	eoreq	r0, pc, #1
  b8:	01010006 	tsteq	r1, r6
  bc:	00000059 	andeq	r0, r0, r9, asr r0
  c0:	00210002 	eoreq	r0, r1, r2
  c4:	01020000 	mrseq	r0, (UNDEF: 2)
  c8:	000d0efb 	strdeq	r0, [sp], -fp
  cc:	01010101 	tsteq	r1, r1, lsl #2
  d0:	01000000 	mrseq	r0, (UNDEF: 0)
  d4:	00010000 	andeq	r0, r1, r0
  d8:	41796870 	cmnmi	r9, r0, ror r8
  dc:	636f6c6c 	cmnvs	pc, #27648	; 0x6c00
  e0:	0000632e 	andeq	r6, r0, lr, lsr #6
  e4:	00000000 	andeq	r0, r0, r0
  e8:	81400205 	cmphi	r0, r5, lsl #4
  ec:	0c030000 	stceq	0, cr0, [r3], {-0}
  f0:	2f4c6701 	svccs	0x004c6701
  f4:	02002f2f 	andeq	r2, r0, #188	; 0xbc
  f8:	002c0104 	eoreq	r0, ip, r4, lsl #2
  fc:	06020402 	streq	r0, [r2], -r2, lsl #8
 100:	4b86064a 	blmi	fe181a30 <__bss_end+0xfe179134>
 104:	4cbbf44b 	cfldrsmi	mvf15, [fp], #300	; 0x12c
 108:	83da2f4c 	bicshi	r2, sl, #304	; 0x130
 10c:	4b678330 	blmi	19e0dd4 <__bss_end+0x19d84d8>
 110:	9f676786 	svcls	0x00676786
 114:	01000802 	tsteq	r0, r2, lsl #16
 118:	00004b01 	andeq	r4, r0, r1, lsl #22
 11c:	1b000200 	blne	924 <_start-0x76dc>
 120:	02000000 	andeq	r0, r0, #0
 124:	0d0efb01 	vstreq	d15, [lr, #-4]
 128:	01010100 	mrseq	r0, (UNDEF: 17)
 12c:	00000001 	andeq	r0, r0, r1
 130:	01000001 	tsteq	r0, r1
 134:	2e776800 	cdpcs	8, 7, cr6, cr7, cr0, {0}
 138:	00000063 	andeq	r0, r0, r3, rrx
 13c:	05000000 	streq	r0, [r0, #-0]
 140:	00827802 	addeq	r7, r2, r2, lsl #16
 144:	011c0300 	tsteq	ip, r0, lsl #6
 148:	6867674b 	stmdavs	r7!, {r0, r1, r3, r6, r8, r9, sl, sp, lr}^
 14c:	9e090367 	cdpls	3, 0, cr0, cr9, cr7, {3}
 150:	2f4e672f 	svccs	0x004e672f
 154:	674f5167 	strbvs	r5, [pc, -r7, ror #2]
 158:	69696767 	stmdbvs	r9!, {r0, r1, r2, r5, r6, r8, r9, sl, sp, lr}^
 15c:	696a6767 	stmdbvs	sl!, {r0, r1, r2, r5, r6, r8, r9, sl, sp, lr}^
 160:	0267a068 	rsbeq	sl, r7, #104	; 0x68
 164:	01010010 	tsteq	r1, r0, lsl r0
 168:	000000b2 	strheq	r0, [r0], -r2
 16c:	00340002 	eorseq	r0, r4, r2
 170:	01020000 	mrseq	r0, (UNDEF: 2)
 174:	000d0efb 	strdeq	r0, [sp], -fp
 178:	01010101 	tsteq	r1, r1, lsl #2
 17c:	01000000 	mrseq	r0, (UNDEF: 0)
 180:	00010000 	andeq	r0, r1, r0
 184:	65686373 	strbvs	r6, [r8, #-883]!	; 0x373
 188:	00632e64 	rsbeq	r2, r3, r4, ror #28
 18c:	74000000 	strvc	r0, [r0], #-0
 190:	73657079 	cmnvc	r5, #121	; 0x79
 194:	0000682e 	andeq	r6, r0, lr, lsr #16
 198:	63730000 	cmnvs	r3, #0
 19c:	2e646568 	cdpcs	5, 6, cr6, cr4, cr8, {3}
 1a0:	00000068 	andeq	r0, r0, r8, rrx
 1a4:	05000000 	streq	r0, [r0, #-0]
 1a8:	0083b402 	addeq	fp, r3, r2, lsl #8
 1ac:	010b0300 	mrseq	r0, (UNDEF: 59)
 1b0:	a0d79fa0 	sbcsge	r9, r7, r0, lsr #31
 1b4:	9f849f83 	svcls	0x00849f83
 1b8:	9f9f6867 	svcls	0x009f6867
 1bc:	696767bb 	stmdbvs	r7!, {r0, r1, r3, r4, r5, r7, r8, r9, sl, sp, lr}^
 1c0:	0068a0a0 	rsbeq	sl, r8, r0, lsr #1
 1c4:	06010402 	streq	r0, [r1], -r2, lsl #8
 1c8:	67830682 	strvs	r0, [r3, r2, lsl #13]
 1cc:	67838567 	strvs	r8, [r3, r7, ror #10]
 1d0:	9f2f83a1 	svcls	0x002f83a1
 1d4:	83833184 	orrhi	r3, r3, #33	; 0x21
 1d8:	4b4c4d2f 	blmi	131369c <__bss_end+0x130ada0>
 1dc:	d7d7832f 	ldrble	r8, [r7, pc, lsr #6]
 1e0:	bbf3a083 	bllt	ffce83f4 <__bss_end+0xffcdfaf8>
 1e4:	0402009f 	streq	r0, [r2], #-159	; 0x9f
 1e8:	66760301 	ldrbtvs	r0, [r6], -r1, lsl #6
 1ec:	d7ba0c03 	ldrle	r0, [sl, r3, lsl #24]!
 1f0:	9f2f849f 	svcls	0x002f849f
 1f4:	2f839fbb 	svccs	0x00839fbb
 1f8:	8213039f 	andshi	r0, r3, #2080374786	; 0x7c000002
 1fc:	9f2fa114 	svcls	0x002fa114
 200:	a09f30a0 	addsge	r3, pc, r0, lsr #1
 204:	4e9f2f2f 	cdpmi	15, 9, cr2, cr15, cr15, {1}
 208:	2fa01413 	svccs	0x00a01413
 20c:	9f2f302f 	svcls	0x002f302f
 210:	842f839f 	strthi	r8, [pc], #-927	; 218 <_start-0x7de8>
 214:	2f2f9f9f 	svccs	0x002f9f9f
 218:	0004029f 	muleq	r4, pc, r2	; <UNPREDICTABLE>
 21c:	Address 0x000000000000021c is out of bounds.


Disassembly of section .debug_info:

00000000 <.debug_info>:
   0:	00000051 	andeq	r0, r0, r1, asr r0
   4:	00000002 	andeq	r0, r0, r2
   8:	01040000 	mrseq	r0, (UNDEF: 4)
   c:	00000000 	andeq	r0, r0, r0
  10:	00008000 	andeq	r8, r0, r0
  14:	000080d0 	ldrdeq	r8, [r0], -r0
  18:	74636576 	strbtvc	r6, [r3], #-1398	; 0x576
  1c:	2e73726f 	cdpcs	2, 7, cr7, cr3, cr15, {3}
  20:	682f0073 	stmdavs	pc!, {r0, r1, r4, r5, r6}	; <UNPREDICTABLE>
  24:	2f656d6f 	svccs	0x00656d6f
  28:	746e616b 	strbtvc	r6, [lr], #-363	; 0x16b
  2c:	656e696f 	strbvs	r6, [lr, #-2415]!	; 0x96f
  30:	636f442f 	cmnvs	pc, #788529152	; 0x2f000000
  34:	6e656d75 	mcrvs	13, 3, r6, cr5, cr5, {3}
  38:	6f2f7374 	svcvs	0x002f7374
  3c:	65697073 	strbvs	r7, [r9, #-115]!	; 0x73
  40:	6174732d 	cmnvs	r4, sp, lsr #6
  44:	47007472 	smlsdxmi	r0, r2, r4, r7
  48:	4120554e 	teqmi	r0, lr, asr #10
  4c:	2e322053 	mrccs	0, 1, r2, cr2, cr3, {2}
  50:	01003232 	tsteq	r0, r2, lsr r2
  54:	0000b880 	andeq	fp, r0, r0, lsl #17
  58:	14000200 	strne	r0, [r0], #-512	; 0x200
  5c:	04000000 	streq	r0, [r0], #-0
  60:	00000601 	andeq	r0, r0, r1, lsl #12
  64:	007a0100 	rsbseq	r0, sl, r0, lsl #2
  68:	00120000 	andseq	r0, r2, r0
  6c:	80d00000 	sbcshi	r0, r0, r0
  70:	81400000 	mrshi	r0, (UNDEF: 64)
  74:	00650000 	rsbeq	r0, r5, r0
  78:	02020000 	andeq	r0, r2, #0
  7c:	00006707 	andeq	r6, r0, r7, lsl #14
  80:	07040200 	streq	r0, [r4, -r0, lsl #4]
  84:	0000006d 	andeq	r0, r0, sp, rrx
  88:	47080102 	strmi	r0, [r8, -r2, lsl #2]
  8c:	03000000 	movweq	r0, #0
  90:	00004101 	andeq	r4, r0, r1, lsl #2
  94:	d0080100 	andle	r0, r8, r0, lsl #2
  98:	ec000080 	stc	0, cr0, [r0], {128}	; 0x80
  9c:	00000080 	andeq	r0, r0, r0, lsl #1
  a0:	01000000 	mrseq	r0, (UNDEF: 0)
  a4:	00000062 	andeq	r0, r0, r2, rrx
  a8:	00003704 	andeq	r3, r0, r4, lsl #14
  ac:	620a0100 	andvs	r0, sl, #0
  b0:	02000000 	andeq	r0, r0, #0
  b4:	05007c91 	streq	r7, [r0, #-3217]	; 0xc91
  b8:	6e690504 	cdpvs	5, 6, cr0, cr9, cr4, {0}
  bc:	01030074 	tsteq	r3, r4, ror r0
  c0:	00000055 	andeq	r0, r0, r5, asr r0
  c4:	80ec1001 	rschi	r1, ip, r1
  c8:	81080000 	mrshi	r0, (UNDEF: 8)
  cc:	00200000 	eoreq	r0, r0, r0
  d0:	91010000 	mrsls	r0, (UNDEF: 1)
  d4:	04000000 	streq	r0, [r0], #-0
  d8:	0000003c 	andeq	r0, r0, ip, lsr r0
  dc:	00621201 	rsbeq	r1, r2, r1, lsl #4
  e0:	91020000 	mrsls	r0, (UNDEF: 2)
  e4:	0106007c 	tsteq	r6, ip, ror r0
  e8:	00000000 	andeq	r0, r0, r0
  ec:	62011901 	andvs	r1, r1, #16384	; 0x4000
  f0:	08000000 	stmdaeq	r0, {}	; <UNPREDICTABLE>
  f4:	40000081 	andmi	r0, r0, r1, lsl #1
  f8:	40000081 	andmi	r0, r0, r1, lsl #1
  fc:	01000000 	mrseq	r0, (UNDEF: 0)
 100:	005b0107 	subseq	r0, fp, r7, lsl #2
 104:	1e010000 	cdpne	0, 0, cr0, cr1, cr0, {0}
 108:	00000062 	andeq	r0, r0, r2, rrx
 10c:	00000801 	andeq	r0, r0, r1, lsl #16
 110:	00015e00 	andeq	r5, r1, r0, lsl #28
 114:	95000200 	strls	r0, [r0, #-512]	; 0x200
 118:	04000000 	streq	r0, [r0], #-0
 11c:	00000601 	andeq	r0, r0, r1, lsl #12
 120:	00830100 	addeq	r0, r3, r0, lsl #2
 124:	00120000 	andseq	r0, r2, r0
 128:	81400000 	mrshi	r0, (UNDEF: 64)
 12c:	82780000 	rsbshi	r0, r8, #0
 130:	00bc0000 	adcseq	r0, ip, r0
 134:	66020000 	strvs	r0, [r2], -r0
 138:	0108006c 	tsteq	r8, ip, rrx
 13c:	00004d03 	andeq	r4, r0, r3, lsl #26
 140:	00b50300 	adcseq	r0, r5, r0, lsl #6
 144:	04010000 	streq	r0, [r1], #-0
 148:	0000004d 	andeq	r0, r0, sp, asr #32
 14c:	03002302 	movweq	r2, #770	; 0x302
 150:	0000018a 	andeq	r0, r0, sl, lsl #3
 154:	00530501 	subseq	r0, r3, r1, lsl #10
 158:	23020000 	movwcs	r0, #8192	; 0x2000
 15c:	04040004 	streq	r0, [r4], #-4
 160:	00000025 	andeq	r0, r0, r5, lsr #32
 164:	6d070405 	cfstrsvs	mvf0, [r7, #-20]	; 0xffffffec
 168:	06000000 	streq	r0, [r0], -r0
 16c:	0000ba01 	andeq	fp, r0, r1, lsl #20
 170:	010c0100 	mrseq	r0, (UNDEF: 28)
 174:	0000009f 	muleq	r0, pc, r0	; <UNPREDICTABLE>
 178:	00008140 	andeq	r8, r0, r0, asr #2
 17c:	000081f4 	strdeq	r8, [r0], -r4
 180:	00000060 	andeq	r0, r0, r0, rrx
 184:	00009f01 	andeq	r9, r0, r1, lsl #30
 188:	018a0700 	orreq	r0, sl, r0, lsl #14
 18c:	0c010000 	stceq	0, cr0, [r1], {-0}
 190:	00000053 	andeq	r0, r0, r3, asr r0
 194:	08749102 	ldmdaeq	r4!, {r1, r8, ip, pc}^
 198:	0e010066 	cdpeq	0, 0, cr0, cr1, cr6, {3}
 19c:	0000004d 	andeq	r0, r0, sp, asr #32
 1a0:	8e095401 	cdphi	4, 0, cr5, cr9, cr1, {0}
 1a4:	01000000 	mrseq	r0, (UNDEF: 0)
 1a8:	0000a10e 	andeq	sl, r0, lr, lsl #2
 1ac:	00550100 	subseq	r0, r5, r0, lsl #2
 1b0:	0404040a 	streq	r0, [r4], #-1034	; 0x40a
 1b4:	0000004d 	andeq	r0, r0, sp, asr #32
 1b8:	009c010b 	addseq	r0, ip, fp, lsl #2
 1bc:	22010000 	andcs	r0, r1, #0
 1c0:	0081f401 	addeq	pc, r1, r1, lsl #8
 1c4:	00823c00 	addeq	r3, r2, r0, lsl #24
 1c8:	00008c00 	andeq	r8, r0, r0, lsl #24
 1cc:	00e90100 	rsceq	r0, r9, r0, lsl #2
 1d0:	700c0000 	andvc	r0, ip, r0
 1d4:	01007274 	tsteq	r0, r4, ror r2
 1d8:	00009f22 	andeq	r9, r0, r2, lsr #30
 1dc:	74910200 	ldrvc	r0, [r1], #512	; 0x200
 1e0:	00018a07 	andeq	r8, r1, r7, lsl #20
 1e4:	53220100 	teqpl	r2, #0
 1e8:	02000000 	andeq	r0, r0, #0
 1ec:	66087091 			; <UNDEFINED> instruction: 0x66087091
 1f0:	4d240100 	stfmis	f0, [r4, #-0]
 1f4:	01000000 	mrseq	r0, (UNDEF: 0)
 1f8:	010b0054 	qaddeq	r0, r4, fp
 1fc:	000000c9 	andeq	r0, r0, r9, asr #1
 200:	3c012c01 	stccc	12, cr2, [r1], {1}
 204:	78000082 	stmdavc	r0, {r1, r7}
 208:	b8000082 	stmdalt	r0, {r1, r7}
 20c:	01000000 	mrseq	r0, (UNDEF: 0)
 210:	00000120 	andeq	r0, r0, r0, lsr #2
 214:	0000aa07 	andeq	sl, r0, r7, lsl #20
 218:	202c0100 	eorcs	r0, ip, r0, lsl #2
 21c:	02000001 	andeq	r0, r0, #1
 220:	e2077c91 	and	r7, r7, #37120	; 0x9100
 224:	01000000 	mrseq	r0, (UNDEF: 0)
 228:	0000532c 	andeq	r5, r0, ip, lsr #6
 22c:	78910200 	ldmvc	r1, {r9}
 230:	26040400 	strcs	r0, [r4], -r0, lsl #8
 234:	05000001 	streq	r0, [r0, #-1]
 238:	00500801 	subseq	r0, r0, r1, lsl #16
 23c:	74080000 	strvc	r0, [r8], #-0
 240:	0100706f 	tsteq	r0, pc, rrx
 244:	00012008 	andeq	r2, r1, r8
 248:	e0030500 	and	r0, r3, r0, lsl #10
 24c:	09000088 	stmdbeq	r0, {r3, r7}
 250:	000000d7 	ldrdeq	r0, [r0], -r7
 254:	01200901 	teqeq	r0, r1, lsl #18
 258:	03050000 	movweq	r0, #20480	; 0x5000
 25c:	000088e4 	andeq	r8, r0, r4, ror #17
 260:	0000930d 	andeq	r9, r0, sp, lsl #6
 264:	4d060100 	stfmis	f0, [r6, #-0]
 268:	01000000 	mrseq	r0, (UNDEF: 0)
 26c:	88dc0305 	ldmhi	ip, {r0, r2, r8, r9}^
 270:	b8000000 	stmdalt	r0, {}	; <UNPREDICTABLE>
 274:	02000000 	andeq	r0, r0, #0
 278:	00016500 	andeq	r6, r1, r0, lsl #10
 27c:	06010400 	streq	r0, [r1], -r0, lsl #8
 280:	01000000 	mrseq	r0, (UNDEF: 0)
 284:	000000f4 	strdeq	r0, [r0], -r4
 288:	00000012 	andeq	r0, r0, r2, lsl r0
 28c:	00008278 	andeq	r8, r0, r8, ror r2
 290:	000083b4 			; <UNDEFINED> instruction: 0x000083b4
 294:	00000119 	andeq	r0, r0, r9, lsl r1
 298:	67070202 	strvs	r0, [r7, -r2, lsl #4]
 29c:	02000000 	andeq	r0, r0, #0
 2a0:	006d0704 	rsbeq	r0, sp, r4, lsl #14
 2a4:	01020000 	mrseq	r0, (UNDEF: 2)
 2a8:	00004708 	andeq	r4, r0, r8, lsl #14
 2ac:	00010300 	andeq	r0, r1, r0, lsl #6
 2b0:	01000001 	tsteq	r0, r1
 2b4:	0082781c 	addeq	r7, r2, ip, lsl r8
 2b8:	0082c400 	addeq	ip, r2, r0, lsl #8
 2bc:	0000d800 	andeq	sp, r0, r0, lsl #16
 2c0:	00610100 	rsbeq	r0, r1, r0, lsl #2
 2c4:	72040000 	andvc	r0, r4, #0
 2c8:	1e010078 	mcrne	0, 0, r0, cr1, cr8, {3}
 2cc:	0000002c 	andeq	r0, r0, ip, lsr #32
 2d0:	00749102 	rsbseq	r9, r4, r2, lsl #2
 2d4:	011a0105 	tsteq	sl, r5, lsl #2
 2d8:	2b010000 	blcs	402e0 <__bss_end+0x379e4>
 2dc:	000082c4 	andeq	r8, r0, r4, asr #5
 2e0:	000082dc 	ldrdeq	r8, [r0], -ip
 2e4:	00000104 	andeq	r0, r0, r4, lsl #2
 2e8:	f9010501 			; <UNDEFINED> instruction: 0xf9010501
 2ec:	01000000 	mrseq	r0, (UNDEF: 0)
 2f0:	0082dc31 	addeq	sp, r2, r1, lsr ip
 2f4:	0082f400 	addeq	pc, r2, r0, lsl #8
 2f8:	00012400 	andeq	r2, r1, r0, lsl #8
 2fc:	01060100 	mrseq	r0, (UNDEF: 22)
 300:	000000ec 	andeq	r0, r0, ip, ror #1
 304:	82f43a01 	rscshi	r3, r4, #4096	; 0x1000
 308:	83b40000 			; <UNDEFINED> instruction: 0x83b40000
 30c:	01440000 	mrseq	r0, (UNDEF: 68)
 310:	04010000 	streq	r0, [r1], #-0
 314:	01006172 	tsteq	r0, r2, ror r1
 318:	00002c3c 	andeq	r2, r0, ip, lsr ip
 31c:	74910200 	ldrvc	r0, [r1], #512	; 0x200
 320:	00787204 	rsbseq	r7, r8, r4, lsl #4
 324:	002c3d01 	eoreq	r3, ip, r1, lsl #26
 328:	91020000 	mrsls	r0, (UNDEF: 2)
 32c:	c4000070 	strgt	r0, [r0], #-112	; 0x70
 330:	02000002 	andeq	r0, r0, #2
 334:	0001d700 	andeq	sp, r1, r0, lsl #14
 338:	06010400 	streq	r0, [r1], -r0, lsl #8
 33c:	01000000 	mrseq	r0, (UNDEF: 0)
 340:	00000155 	andeq	r0, r0, r5, asr r1
 344:	00000012 	andeq	r0, r0, r2, lsl r0
 348:	000083b4 			; <UNDEFINED> instruction: 0x000083b4
 34c:	000088dc 	ldrdeq	r8, [r0], -ip
 350:	00000168 	andeq	r0, r0, r8, ror #2
 354:	67070202 	strvs	r0, [r7, -r2, lsl #4]
 358:	03000000 	movweq	r0, #0
 35c:	00000122 	andeq	r0, r0, r2, lsr #2
 360:	00370502 	eorseq	r0, r7, r2, lsl #10
 364:	04020000 	streq	r0, [r2], #-0
 368:	00006d07 	andeq	r6, r0, r7, lsl #26
 36c:	08010200 	stmdaeq	r1, {r9}
 370:	00000047 	andeq	r0, r0, r7, asr #32
 374:	0001f503 	andeq	pc, r1, r3, lsl #10
 378:	50070300 	andpl	r0, r7, r0, lsl #6
 37c:	04000000 	streq	r0, [r0], #-0
 380:	00005604 	andeq	r5, r0, r4, lsl #12
 384:	06010500 	streq	r0, [r1], -r0, lsl #10
 388:	85080301 	strhi	r0, [r8, #-769]	; 0x301
 38c:	07000000 	streq	r0, [r0, -r0]
 390:	000001e7 	andeq	r0, r0, r7, ror #3
 394:	01640700 	cmneq	r4, r0, lsl #14
 398:	07010000 	streq	r0, [r1, -r0]
 39c:	000001df 	ldrdeq	r0, [r0], -pc	; <UNPREDICTABLE>
 3a0:	015d0702 	cmpeq	sp, r2, lsl #14
 3a4:	07030000 	streq	r0, [r3, -r0]
 3a8:	00000132 	andeq	r0, r0, r2, lsr r1
 3ac:	01790704 	cmneq	r9, r4, lsl #14
 3b0:	00050000 	andeq	r0, r5, r0
 3b4:	00018f03 	andeq	r8, r1, r3, lsl #30
 3b8:	580f0300 	stmdapl	pc, {r8, r9}	; <UNPREDICTABLE>
 3bc:	08000000 	stmdaeq	r0, {}	; <UNPREDICTABLE>
 3c0:	0000019d 	muleq	r0, sp, r1
 3c4:	b7120308 	ldrlt	r0, [r2, -r8, lsl #6]
 3c8:	09000000 	stmdbeq	r0, {}	; <UNPREDICTABLE>
 3cc:	03007073 	movweq	r7, #115	; 0x73
 3d0:	0000b713 	andeq	fp, r0, r3, lsl r7
 3d4:	00230200 	eoreq	r0, r3, r0, lsl #4
 3d8:	00726c09 	rsbseq	r6, r2, r9, lsl #24
 3dc:	00b71403 	adcseq	r1, r7, r3, lsl #8
 3e0:	23020000 	movwcs	r0, #8192	; 0x2000
 3e4:	04040004 	streq	r0, [r4], #-4
 3e8:	0000002c 	andeq	r0, r0, ip, lsr #32
 3ec:	0001a308 	andeq	sl, r1, r8, lsl #6
 3f0:	19031400 	stmdbne	r3, {sl, ip}
 3f4:	0000010e 	andeq	r0, r0, lr, lsl #2
 3f8:	0001970a 	andeq	r9, r1, sl, lsl #14
 3fc:	851a0300 	ldrhi	r0, [sl, #-768]	; 0x300
 400:	02000000 	andeq	r0, r0, #0
 404:	63090023 	movwvs	r0, #36899	; 0x9023
 408:	03007874 	movweq	r7, #2164	; 0x874
 40c:	00010e1b 	andeq	r0, r1, fp, lsl lr
 410:	04230200 	strteq	r0, [r3], #-512	; 0x200
 414:	0000b50a 	andeq	fp, r0, sl, lsl #10
 418:	141c0300 	ldrne	r0, [ip], #-768	; 0x300
 41c:	02000001 	andeq	r0, r0, #1
 420:	100a0823 	andne	r0, sl, r3, lsr #16
 424:	03000002 	movweq	r0, #2
 428:	00011a1d 	andeq	r1, r1, sp, lsl sl
 42c:	0c230200 	sfmeq	f0, 4, [r3], #-0
 430:	03006609 	movweq	r6, #1545	; 0x609
 434:	0000451e 	andeq	r4, r0, lr, lsl r5
 438:	10230200 	eorne	r0, r3, r0, lsl #4
 43c:	90040400 	andls	r0, r4, r0, lsl #8
 440:	04000000 	streq	r0, [r0], #-0
 444:	0000bd04 	andeq	fp, r0, r4, lsl #26
 448:	0c040b00 	stceq	11, cr0, [r4], {-0}
 44c:	00021e01 	andeq	r1, r2, r1, lsl #28
 450:	010c0100 	mrseq	r0, (UNDEF: 28)
 454:	000083b4 			; <UNDEFINED> instruction: 0x000083b4
 458:	0000846c 	andeq	r8, r0, ip, ror #8
 45c:	00000170 	andeq	r0, r0, r0, ror r1
 460:	00015f01 	andeq	r5, r1, r1, lsl #30
 464:	74630d00 	strbtvc	r0, [r3], #-3328	; 0xd00
 468:	0c010078 	stceq	0, cr0, [r1], {120}	; 0x78
 46c:	0000010e 	andeq	r0, r0, lr, lsl #2
 470:	0d749102 	ldfeqp	f1, [r4, #-8]!
 474:	0c010066 	stceq	0, cr0, [r1], {102}	; 0x66
 478:	00000045 	andeq	r0, r0, r5, asr #32
 47c:	0e709102 	expeqs	f1, f2
 480:	00000184 	andeq	r0, r0, r4, lsl #3
 484:	00370c01 	eorseq	r0, r7, r1, lsl #24
 488:	91020000 	mrsls	r0, (UNDEF: 2)
 48c:	010c006c 	tsteq	ip, ip, rrx
 490:	00000129 	andeq	r0, r0, r9, lsr #2
 494:	6c011a01 	stcvs	10, cr1, [r1], {1}
 498:	d0000084 	andle	r0, r0, r4, lsl #1
 49c:	9c000084 	stcls	0, cr0, [r0], {132}	; 0x84
 4a0:	01000001 	tsteq	r0, r1
 4a4:	000001a2 	andeq	r0, r0, r2, lsr #3
 4a8:	6263700d 	rsbvs	r7, r3, #13
 4ac:	141a0100 	ldrne	r0, [sl], #-256	; 0x100
 4b0:	02000001 	andeq	r0, r0, #1
 4b4:	660d7491 			; <UNDEFINED> instruction: 0x660d7491
 4b8:	451a0100 	ldrmi	r0, [sl, #-256]	; 0x100
 4bc:	02000000 	andeq	r0, r0, #0
 4c0:	840e7091 	strhi	r7, [lr], #-145	; 0x91
 4c4:	01000001 	tsteq	r0, r1
 4c8:	0000371a 	andeq	r3, r0, sl, lsl r7
 4cc:	6c910200 	lfmvs	f0, 4, [r1], {0}
 4d0:	6a010c00 	bvs	434d8 <__bss_end+0x3abdc>
 4d4:	01000001 	tsteq	r0, r1
 4d8:	84d00122 	ldrbhi	r0, [r0], #290	; 0x122
 4dc:	85b40000 	ldrhi	r0, [r4, #0]!
 4e0:	01c80000 	biceq	r0, r8, r0
 4e4:	f3010000 	vhadd.u8	d0, d1, d0
 4e8:	0d000001 	stceq	0, cr0, [r0, #-4]
 4ec:	22010066 	andcs	r0, r1, #102	; 0x66
 4f0:	00000045 	andeq	r0, r0, r5, asr #32
 4f4:	0e6c9102 	lgneqe	f1, f2
 4f8:	00000210 	andeq	r0, r0, r0, lsl r2
 4fc:	011a2201 	tsteq	sl, r1, lsl #4
 500:	91020000 	mrsls	r0, (UNDEF: 2)
 504:	01840e68 	orreq	r0, r4, r8, ror #28
 508:	22010000 	andcs	r0, r1, #0
 50c:	00000037 	andeq	r0, r0, r7, lsr r0
 510:	0f649102 	svceq	0x00649102
 514:	00626370 	rsbeq	r6, r2, r0, ror r3
 518:	01142601 	tsteq	r4, r1, lsl #12
 51c:	91020000 	mrsls	r0, (UNDEF: 2)
 520:	01100074 	tsteq	r0, r4, ror r0
 524:	000001c0 	andeq	r0, r0, r0, asr #3
 528:	85b43801 	ldrhi	r3, [r4, #2049]!	; 0x801
 52c:	85e40000 	strbhi	r0, [r4, #0]!
 530:	01f40000 	mvnseq	r0, r0
 534:	11010000 	mrsne	r0, (UNDEF: 1)
 538:	0001ef01 	andeq	lr, r1, r1, lsl #30
 53c:	e4410100 	strb	r0, [r1], #-256	; 0x100
 540:	14000085 	strne	r0, [r0], #-133	; 0x85
 544:	14000087 	strne	r0, [r0], #-135	; 0x87
 548:	01000002 	tsteq	r0, r2
 54c:	00000230 	andeq	r0, r0, r0, lsr r2
 550:	00014212 	andeq	r4, r1, r2, lsl r2
 554:	14430100 	strbne	r0, [r3], #-256	; 0x100
 558:	02000001 	andeq	r0, r0, #1
 55c:	10007491 	mulne	r0, r1, r4
 560:	00005b01 	andeq	r5, r0, r1, lsl #22
 564:	14540100 	ldrbne	r0, [r4], #-256	; 0x100
 568:	90000087 	andls	r0, r0, r7, lsl #1
 56c:	40000087 	andmi	r0, r0, r7, lsl #1
 570:	01000002 	tsteq	r0, r2
 574:	01a90113 			; <UNDEFINED> instruction: 0x01a90113
 578:	6e010000 	cdpvs	0, 0, cr0, cr1, cr0, {0}
 57c:	00008790 	muleq	r0, r0, r7
 580:	00008820 	andeq	r8, r0, r0, lsr #16
 584:	01007d02 	tsteq	r0, r2, lsl #26
 588:	01fc0113 	mvnseq	r0, r3, lsl r1
 58c:	84010000 	strhi	r0, [r1], #-0
 590:	00008820 	andeq	r8, r0, r0, lsr #16
 594:	000088dc 	ldrdeq	r8, [r0], -ip
 598:	01007d02 	tsteq	r0, r2, lsl #26
 59c:	0001b414 	andeq	fp, r1, r4, lsl r4
 5a0:	0e060100 	adfeqs	f0, f6, f0
 5a4:	01000001 	tsteq	r0, r1
 5a8:	88f80305 	ldmhi	r8!, {r0, r2, r8, r9}^
 5ac:	39140000 	ldmdbcc	r4, {}	; <UNPREDICTABLE>
 5b0:	01000001 	tsteq	r0, r1
 5b4:	00011407 	andeq	r1, r1, r7, lsl #8
 5b8:	03050100 	movweq	r0, #20736	; 0x5100
 5bc:	000088e8 	andeq	r8, r0, r8, ror #17
 5c0:	0001d614 	andeq	sp, r1, r4, lsl r6
 5c4:	14080100 	strne	r0, [r8], #-256	; 0x100
 5c8:	01000001 	tsteq	r0, r1
 5cc:	88ec0305 	stmiahi	ip!, {r0, r2, r8, r9}^
 5d0:	15140000 	ldrne	r0, [r4, #-0]
 5d4:	01000002 	tsteq	r0, r2
 5d8:	00011409 	andeq	r1, r1, r9, lsl #8
 5dc:	03050100 	movweq	r0, #20736	; 0x5100
 5e0:	000088f0 	strdeq	r8, [r0], -r0
 5e4:	0001c614 	andeq	ip, r1, r4, lsl r6
 5e8:	140a0100 	strne	r0, [sl], #-256	; 0x100
 5ec:	01000001 	tsteq	r0, r1
 5f0:	88f40305 	ldmhi	r4!, {r0, r2, r8, r9}^
 5f4:	Address 0x00000000000005f4 is out of bounds.


Disassembly of section .debug_abbrev:

00000000 <.debug_abbrev>:
   0:	10001101 	andne	r1, r0, r1, lsl #2
   4:	12011106 	andne	r1, r1, #-2147483647	; 0x80000001
   8:	1b080301 	blne	200c14 <__bss_end+0x1f8318>
   c:	13082508 	movwne	r2, #34056	; 0x8508
  10:	00000005 	andeq	r0, r0, r5
  14:	25011101 	strcs	r1, [r1, #-257]	; 0x101
  18:	030b130e 	movweq	r1, #45838	; 0xb30e
  1c:	110e1b0e 	tstne	lr, lr, lsl #22
  20:	10011201 	andne	r1, r1, r1, lsl #4
  24:	02000006 	andeq	r0, r0, #6
  28:	0b0b0024 	bleq	2c00c0 <__bss_end+0x2b77c4>
  2c:	0e030b3e 	vmoveq.16	d3[0], r0
  30:	2e030000 	cdpcs	0, 0, cr0, cr3, cr0, {0}
  34:	030c3f01 	movweq	r3, #52993	; 0xcf01
  38:	3b0b3a0e 	blcc	2ce878 <__bss_end+0x2c5f7c>
  3c:	1201110b 	andne	r1, r1, #-1073741822	; 0xc0000002
  40:	97064001 	strls	r4, [r6, -r1]
  44:	13010c42 	movwne	r0, #7234	; 0x1c42
  48:	34040000 	strcc	r0, [r4], #-0
  4c:	3a0e0300 	bcc	380c54 <__bss_end+0x378358>
  50:	490b3b0b 	stmdbmi	fp, {r0, r1, r3, r8, r9, fp, ip, sp}
  54:	000a0213 	andeq	r0, sl, r3, lsl r2
  58:	00240500 	eoreq	r0, r4, r0, lsl #10
  5c:	0b3e0b0b 	bleq	f82c90 <__bss_end+0xf7a394>
  60:	00000803 	andeq	r0, r0, r3, lsl #16
  64:	3f012e06 	svccc	0x00012e06
  68:	3a0e030c 	bcc	380ca0 <__bss_end+0x3783a4>
  6c:	270b3b0b 	strcs	r3, [fp, -fp, lsl #22]
  70:	1113490c 	tstne	r3, ip, lsl #18
  74:	40011201 	andmi	r1, r1, r1, lsl #4
  78:	0c429606 	mcrreq	6, 0, r9, r2, cr6
  7c:	2e070000 	cdpcs	0, 0, cr0, cr7, cr0, {0}
  80:	030c3f01 	movweq	r3, #52993	; 0xcf01
  84:	3b0b3a0e 	blcc	2ce8c4 <__bss_end+0x2c5fc8>
  88:	3c13490b 	ldccc	9, cr4, [r3], {11}
  8c:	0800000c 	stmdaeq	r0, {r2, r3}
  90:	00000018 	andeq	r0, r0, r8, lsl r0
  94:	01110100 	tsteq	r1, r0, lsl #2
  98:	0b130e25 	bleq	4c3934 <__bss_end+0x4bb038>
  9c:	0e1b0e03 	cdpeq	14, 1, cr0, cr11, cr3, {0}
  a0:	01120111 	tsteq	r2, r1, lsl r1
  a4:	00000610 	andeq	r0, r0, r0, lsl r6
  a8:	03011302 	movweq	r1, #4866	; 0x1302
  ac:	3a0b0b08 	bcc	2c2cd4 <__bss_end+0x2ba3d8>
  b0:	010b3b0b 	tsteq	fp, fp, lsl #22
  b4:	03000013 	movweq	r0, #19
  b8:	0e03000d 	cdpeq	0, 0, cr0, cr3, cr13, {0}
  bc:	0b3b0b3a 	bleq	ec2dac <__bss_end+0xeba4b0>
  c0:	0a381349 	beq	e04dec <__bss_end+0xdfc4f0>
  c4:	0f040000 	svceq	0x00040000
  c8:	490b0b00 	stmdbmi	fp, {r8, r9, fp}
  cc:	05000013 	streq	r0, [r0, #-19]
  d0:	0b0b0024 	bleq	2c0168 <__bss_end+0x2b786c>
  d4:	0e030b3e 	vmoveq.16	d3[0], r0
  d8:	2e060000 	cdpcs	0, 0, cr0, cr6, cr0, {0}
  dc:	030c3f01 	movweq	r3, #52993	; 0xcf01
  e0:	3b0b3a0e 	blcc	2ce920 <__bss_end+0x2c6024>
  e4:	490c270b 	stmdbmi	ip, {r0, r1, r3, r8, r9, sl, sp}
  e8:	12011113 	andne	r1, r1, #-1073741820	; 0xc0000004
  ec:	97064001 	strls	r4, [r6, -r1]
  f0:	13010c42 	movwne	r0, #7234	; 0x1c42
  f4:	05070000 	streq	r0, [r7, #-0]
  f8:	3a0e0300 	bcc	380d00 <__bss_end+0x378404>
  fc:	490b3b0b 	stmdbmi	fp, {r0, r1, r3, r8, r9, fp, ip, sp}
 100:	000a0213 	andeq	r0, sl, r3, lsl r2
 104:	00340800 	eorseq	r0, r4, r0, lsl #16
 108:	0b3a0803 	bleq	e8211c <__bss_end+0xe79820>
 10c:	13490b3b 	movtne	r0, #39739	; 0x9b3b
 110:	00000a02 	andeq	r0, r0, r2, lsl #20
 114:	03003409 	movweq	r3, #1033	; 0x409
 118:	3b0b3a0e 	blcc	2ce958 <__bss_end+0x2c605c>
 11c:	0213490b 	andseq	r4, r3, #180224	; 0x2c000
 120:	0a00000a 	beq	150 <_start-0x7eb0>
 124:	0b0b000f 	bleq	2c0168 <__bss_end+0x2b786c>
 128:	2e0b0000 	cdpcs	0, 0, cr0, cr11, cr0, {0}
 12c:	030c3f01 	movweq	r3, #52993	; 0xcf01
 130:	3b0b3a0e 	blcc	2ce970 <__bss_end+0x2c6074>
 134:	110c270b 	tstne	ip, fp, lsl #14
 138:	40011201 	andmi	r1, r1, r1, lsl #4
 13c:	0c429706 	mcrreq	7, 0, r9, r2, cr6
 140:	00001301 	andeq	r1, r0, r1, lsl #6
 144:	0300050c 	movweq	r0, #1292	; 0x50c
 148:	3b0b3a08 	blcc	2ce970 <__bss_end+0x2c6074>
 14c:	0213490b 	andseq	r4, r3, #180224	; 0x2c000
 150:	0d00000a 	stceq	0, cr0, [r0, #-40]	; 0xffffffd8
 154:	0e030034 	mcreq	0, 0, r0, cr3, cr4, {1}
 158:	0b3b0b3a 	bleq	ec2e48 <__bss_end+0xeba54c>
 15c:	0c3f1349 	ldceq	3, cr1, [pc], #-292	; 40 <_start-0x7fc0>
 160:	00000a02 	andeq	r0, r0, r2, lsl #20
 164:	01110100 	tsteq	r1, r0, lsl #2
 168:	0b130e25 	bleq	4c3a04 <__bss_end+0x4bb108>
 16c:	0e1b0e03 	cdpeq	14, 1, cr0, cr11, cr3, {0}
 170:	01120111 	tsteq	r2, r1, lsl r1
 174:	00000610 	andeq	r0, r0, r0, lsl r6
 178:	0b002402 	bleq	9188 <__bss_end+0x88c>
 17c:	030b3e0b 	movweq	r3, #48651	; 0xbe0b
 180:	0300000e 	movweq	r0, #14
 184:	0c3f012e 	ldfeqs	f0, [pc], #-184	; d4 <_start-0x7f2c>
 188:	0b3a0e03 	bleq	e8399c <__bss_end+0xe7b0a0>
 18c:	01110b3b 	tsteq	r1, fp, lsr fp
 190:	06400112 			; <UNDEFINED> instruction: 0x06400112
 194:	010c4296 			; <UNDEFINED> instruction: 0x010c4296
 198:	04000013 	streq	r0, [r0], #-19
 19c:	08030034 	stmdaeq	r3, {r2, r4, r5}
 1a0:	0b3b0b3a 	bleq	ec2e90 <__bss_end+0xeba594>
 1a4:	0a021349 	beq	84ed0 <__bss_end+0x7c5d4>
 1a8:	2e050000 	cdpcs	0, 0, cr0, cr5, cr0, {0}
 1ac:	030c3f00 	movweq	r3, #52992	; 0xcf00
 1b0:	3b0b3a0e 	blcc	2ce9f0 <__bss_end+0x2c60f4>
 1b4:	1201110b 	andne	r1, r1, #-1073741822	; 0xc0000002
 1b8:	96064001 	strls	r4, [r6], -r1
 1bc:	00000c42 	andeq	r0, r0, r2, asr #24
 1c0:	3f012e06 	svccc	0x00012e06
 1c4:	3a0e030c 	bcc	380dfc <__bss_end+0x378500>
 1c8:	110b3b0b 	tstne	fp, fp, lsl #22
 1cc:	40011201 	andmi	r1, r1, r1, lsl #4
 1d0:	0c429606 	mcrreq	6, 0, r9, r2, cr6
 1d4:	01000000 	mrseq	r0, (UNDEF: 0)
 1d8:	0e250111 	mcreq	1, 1, r0, cr5, cr1, {0}
 1dc:	0e030b13 	vmoveq.32	d3[0], r0
 1e0:	01110e1b 	tsteq	r1, fp, lsl lr
 1e4:	06100112 			; <UNDEFINED> instruction: 0x06100112
 1e8:	24020000 	strcs	r0, [r2], #-0
 1ec:	3e0b0b00 	vmlacc.f64	d0, d11, d0
 1f0:	000e030b 	andeq	r0, lr, fp, lsl #6
 1f4:	00160300 	andseq	r0, r6, r0, lsl #6
 1f8:	0b3a0e03 	bleq	e83a0c <__bss_end+0xe7b110>
 1fc:	13490b3b 	movtne	r0, #39739	; 0x9b3b
 200:	0f040000 	svceq	0x00040000
 204:	490b0b00 	stmdbmi	fp, {r8, r9, fp}
 208:	05000013 	streq	r0, [r0, #-19]
 20c:	0c270015 	stceq	0, cr0, [r7], #-84	; 0xffffffac
 210:	04060000 	streq	r0, [r6], #-0
 214:	3a0b0b01 	bcc	2c2e20 <__bss_end+0x2ba524>
 218:	010b3b0b 	tsteq	fp, fp, lsl #22
 21c:	07000013 	smladeq	r0, r3, r0, r0
 220:	0e030028 	cdpeq	0, 0, cr0, cr3, cr8, {1}
 224:	00000d1c 	andeq	r0, r0, ip, lsl sp
 228:	03011308 	movweq	r1, #4872	; 0x1308
 22c:	3a0b0b0e 	bcc	2c2e6c <__bss_end+0x2ba570>
 230:	010b3b0b 	tsteq	fp, fp, lsl #22
 234:	09000013 	stmdbeq	r0, {r0, r1, r4}
 238:	0803000d 	stmdaeq	r3, {r0, r2, r3}
 23c:	0b3b0b3a 	bleq	ec2f2c <__bss_end+0xeba630>
 240:	0a381349 	beq	e04f6c <__bss_end+0xdfc670>
 244:	0d0a0000 	stceq	0, cr0, [sl, #-0]
 248:	3a0e0300 	bcc	380e50 <__bss_end+0x378554>
 24c:	490b3b0b 	stmdbmi	fp, {r0, r1, r3, r8, r9, fp, ip, sp}
 250:	000a3813 	andeq	r3, sl, r3, lsl r8
 254:	000f0b00 	andeq	r0, pc, r0, lsl #22
 258:	00000b0b 	andeq	r0, r0, fp, lsl #22
 25c:	3f012e0c 	svccc	0x00012e0c
 260:	3a0e030c 	bcc	380e98 <__bss_end+0x37859c>
 264:	270b3b0b 	strcs	r3, [fp, -fp, lsl #22]
 268:	1201110c 	andne	r1, r1, #3
 26c:	96064001 	strls	r4, [r6], -r1
 270:	13010c42 	movwne	r0, #7234	; 0x1c42
 274:	050d0000 	streq	r0, [sp, #-0]
 278:	3a080300 	bcc	200e80 <__bss_end+0x1f8584>
 27c:	490b3b0b 	stmdbmi	fp, {r0, r1, r3, r8, r9, fp, ip, sp}
 280:	000a0213 	andeq	r0, sl, r3, lsl r2
 284:	00050e00 	andeq	r0, r5, r0, lsl #28
 288:	0b3a0e03 	bleq	e83a9c <__bss_end+0xe7b1a0>
 28c:	13490b3b 	movtne	r0, #39739	; 0x9b3b
 290:	00000a02 	andeq	r0, r0, r2, lsl #20
 294:	0300340f 	movweq	r3, #1039	; 0x40f
 298:	3b0b3a08 	blcc	2ceac0 <__bss_end+0x2c61c4>
 29c:	0213490b 	andseq	r4, r3, #180224	; 0x2c000
 2a0:	1000000a 	andne	r0, r0, sl
 2a4:	0c3f002e 	ldceq	0, cr0, [pc], #-184	; 1f4 <_start-0x7e0c>
 2a8:	0b3a0e03 	bleq	e83abc <__bss_end+0xe7b1c0>
 2ac:	01110b3b 	tsteq	r1, fp, lsr fp
 2b0:	06400112 			; <UNDEFINED> instruction: 0x06400112
 2b4:	000c4296 	muleq	ip, r6, r2
 2b8:	012e1100 	teqeq	lr, r0, lsl #2
 2bc:	0e030c3f 	mcreq	12, 0, r0, cr3, cr15, {1}
 2c0:	0b3b0b3a 	bleq	ec2fb0 <__bss_end+0xeba6b4>
 2c4:	01120111 	tsteq	r2, r1, lsl r1
 2c8:	42960640 	addsmi	r0, r6, #67108864	; 0x4000000
 2cc:	0013010c 	andseq	r0, r3, ip, lsl #2
 2d0:	00341200 	eorseq	r1, r4, r0, lsl #4
 2d4:	0b3a0e03 	bleq	e83ae8 <__bss_end+0xe7b1ec>
 2d8:	13490b3b 	movtne	r0, #39739	; 0x9b3b
 2dc:	00000a02 	andeq	r0, r0, r2, lsl #20
 2e0:	3f002e13 	svccc	0x00002e13
 2e4:	3a0e030c 	bcc	380f1c <__bss_end+0x378620>
 2e8:	110b3b0b 	tstne	fp, fp, lsl #22
 2ec:	40011201 	andmi	r1, r1, r1, lsl #4
 2f0:	0c42960a 	mcrreq	6, 0, r9, r2, cr10
 2f4:	34140000 	ldrcc	r0, [r4], #-0
 2f8:	3a0e0300 	bcc	380f00 <__bss_end+0x378604>
 2fc:	490b3b0b 	stmdbmi	fp, {r0, r1, r3, r8, r9, fp, ip, sp}
 300:	020c3f13 	andeq	r3, ip, #76	; 0x4c
 304:	0000000a 	andeq	r0, r0, sl

Disassembly of section .debug_aranges:

00000000 <.debug_aranges>:
   0:	0000001c 	andeq	r0, r0, ip, lsl r0
   4:	00000002 	andeq	r0, r0, r2
   8:	00040000 	andeq	r0, r4, r0
   c:	00000000 	andeq	r0, r0, r0
  10:	00008000 	andeq	r8, r0, r0
  14:	000000d0 	ldrdeq	r0, [r0], -r0	; <UNPREDICTABLE>
	...
  20:	0000001c 	andeq	r0, r0, ip, lsl r0
  24:	00550002 	subseq	r0, r5, r2
  28:	00040000 	andeq	r0, r4, r0
  2c:	00000000 	andeq	r0, r0, r0
  30:	000080d0 	ldrdeq	r8, [r0], -r0
  34:	00000070 	andeq	r0, r0, r0, ror r0
	...
  40:	0000001c 	andeq	r0, r0, ip, lsl r0
  44:	01110002 	tsteq	r1, r2
  48:	00040000 	andeq	r0, r4, r0
  4c:	00000000 	andeq	r0, r0, r0
  50:	00008140 	andeq	r8, r0, r0, asr #2
  54:	00000138 	andeq	r0, r0, r8, lsr r1
	...
  60:	0000001c 	andeq	r0, r0, ip, lsl r0
  64:	02730002 	rsbseq	r0, r3, #2
  68:	00040000 	andeq	r0, r4, r0
  6c:	00000000 	andeq	r0, r0, r0
  70:	00008278 	andeq	r8, r0, r8, ror r2
  74:	0000013c 	andeq	r0, r0, ip, lsr r1
	...
  80:	0000001c 	andeq	r0, r0, ip, lsl r0
  84:	032f0002 	teqeq	pc, #2
  88:	00040000 	andeq	r0, r4, r0
  8c:	00000000 	andeq	r0, r0, r0
  90:	000083b4 			; <UNDEFINED> instruction: 0x000083b4
  94:	00000528 	andeq	r0, r0, r8, lsr #10
	...

Disassembly of section .debug_loc:

00000000 <.debug_loc>:
   0:	00000000 	andeq	r0, r0, r0
   4:	00000004 	andeq	r0, r0, r4
   8:	007d0002 	rsbseq	r0, sp, r2
   c:	00000004 	andeq	r0, r0, r4
  10:	0000001c 	andeq	r0, r0, ip, lsl r0
  14:	087d0002 	ldmdaeq	sp!, {r1}^
	...
  20:	0000001c 	andeq	r0, r0, ip, lsl r0
  24:	00000020 	andeq	r0, r0, r0, lsr #32
  28:	007d0002 	rsbseq	r0, sp, r2
  2c:	00000020 	andeq	r0, r0, r0, lsr #32
  30:	00000038 	andeq	r0, r0, r8, lsr r0
  34:	087d0002 	ldmdaeq	sp!, {r1}^
	...
  40:	00000038 	andeq	r0, r0, r8, lsr r0
  44:	0000003c 	andeq	r0, r0, ip, lsr r0
  48:	007d0002 	rsbseq	r0, sp, r2
  4c:	0000003c 	andeq	r0, r0, ip, lsr r0
  50:	00000070 	andeq	r0, r0, r0, ror r0
  54:	087d0002 	ldmdaeq	sp!, {r1}^
	...
  64:	00000004 	andeq	r0, r0, r4
  68:	007d0002 	rsbseq	r0, sp, r2
  6c:	00000004 	andeq	r0, r0, r4
  70:	00000008 	andeq	r0, r0, r8
  74:	087d0002 	ldmdaeq	sp!, {r1}^
  78:	00000008 	andeq	r0, r0, r8
  7c:	000000b4 	strheq	r0, [r0], -r4
  80:	107d0002 	rsbsne	r0, sp, r2
	...
  8c:	000000b4 	strheq	r0, [r0], -r4
  90:	000000b8 	strheq	r0, [r0], -r8
  94:	007d0002 	rsbseq	r0, sp, r2
  98:	000000b8 	strheq	r0, [r0], -r8
  9c:	000000bc 	strheq	r0, [r0], -ip
  a0:	047d0002 	ldrbteq	r0, [sp], #-2
  a4:	000000bc 	strheq	r0, [r0], -ip
  a8:	000000fc 	strdeq	r0, [r0], -ip
  ac:	107d0002 	rsbsne	r0, sp, r2
	...
  b8:	000000fc 	strdeq	r0, [r0], -ip
  bc:	00000100 	andeq	r0, r0, r0, lsl #2
  c0:	007d0002 	rsbseq	r0, sp, r2
  c4:	00000100 	andeq	r0, r0, r0, lsl #2
  c8:	00000138 	andeq	r0, r0, r8, lsr r1
  cc:	087d0002 	ldmdaeq	sp!, {r1}^
	...
  dc:	00000004 	andeq	r0, r0, r4
  e0:	007d0002 	rsbseq	r0, sp, r2
  e4:	00000004 	andeq	r0, r0, r4
  e8:	00000008 	andeq	r0, r0, r8
  ec:	047d0002 	ldrbteq	r0, [sp], #-2
  f0:	00000008 	andeq	r0, r0, r8
  f4:	0000004c 	andeq	r0, r0, ip, asr #32
  f8:	107d0002 	rsbsne	r0, sp, r2
	...
 104:	0000004c 	andeq	r0, r0, ip, asr #32
 108:	00000050 	andeq	r0, r0, r0, asr r0
 10c:	007d0002 	rsbseq	r0, sp, r2
 110:	00000050 	andeq	r0, r0, r0, asr r0
 114:	00000064 	andeq	r0, r0, r4, rrx
 118:	087d0002 	ldmdaeq	sp!, {r1}^
	...
 124:	00000064 	andeq	r0, r0, r4, rrx
 128:	00000068 	andeq	r0, r0, r8, rrx
 12c:	007d0002 	rsbseq	r0, sp, r2
 130:	00000068 	andeq	r0, r0, r8, rrx
 134:	0000007c 	andeq	r0, r0, ip, ror r0
 138:	087d0002 	ldmdaeq	sp!, {r1}^
	...
 144:	0000007c 	andeq	r0, r0, ip, ror r0
 148:	00000080 	andeq	r0, r0, r0, lsl #1
 14c:	007d0002 	rsbseq	r0, sp, r2
 150:	00000080 	andeq	r0, r0, r0, lsl #1
 154:	00000084 	andeq	r0, r0, r4, lsl #1
 158:	047d0002 	ldrbteq	r0, [sp], #-2
 15c:	00000084 	andeq	r0, r0, r4, lsl #1
 160:	0000013c 	andeq	r0, r0, ip, lsr r1
 164:	107d0002 	rsbsne	r0, sp, r2
	...
 174:	00000004 	andeq	r0, r0, r4
 178:	007d0002 	rsbseq	r0, sp, r2
 17c:	00000004 	andeq	r0, r0, r4
 180:	00000008 	andeq	r0, r0, r8
 184:	047d0002 	ldrbteq	r0, [sp], #-2
 188:	00000008 	andeq	r0, r0, r8
 18c:	000000b8 	strheq	r0, [r0], -r8
 190:	187d0002 	ldmdane	sp!, {r1}^
	...
 19c:	000000b8 	strheq	r0, [r0], -r8
 1a0:	000000bc 	strheq	r0, [r0], -ip
 1a4:	007d0002 	rsbseq	r0, sp, r2
 1a8:	000000bc 	strheq	r0, [r0], -ip
 1ac:	000000c0 	andeq	r0, r0, r0, asr #1
 1b0:	047d0002 	ldrbteq	r0, [sp], #-2
 1b4:	000000c0 	andeq	r0, r0, r0, asr #1
 1b8:	0000011c 	andeq	r0, r0, ip, lsl r1
 1bc:	187d0002 	ldmdane	sp!, {r1}^
	...
 1c8:	0000011c 	andeq	r0, r0, ip, lsl r1
 1cc:	00000120 	andeq	r0, r0, r0, lsr #2
 1d0:	007d0002 	rsbseq	r0, sp, r2
 1d4:	00000120 	andeq	r0, r0, r0, lsr #2
 1d8:	00000124 	andeq	r0, r0, r4, lsr #2
 1dc:	047d0002 	ldrbteq	r0, [sp], #-2
 1e0:	00000124 	andeq	r0, r0, r4, lsr #2
 1e4:	00000200 	andeq	r0, r0, r0, lsl #4
 1e8:	207d0002 	rsbscs	r0, sp, r2
	...
 1f4:	00000200 	andeq	r0, r0, r0, lsl #4
 1f8:	00000204 	andeq	r0, r0, r4, lsl #4
 1fc:	007d0002 	rsbseq	r0, sp, r2
 200:	00000204 	andeq	r0, r0, r4, lsl #4
 204:	00000230 	andeq	r0, r0, r0, lsr r2
 208:	087d0002 	ldmdaeq	sp!, {r1}^
	...
 214:	00000230 	andeq	r0, r0, r0, lsr r2
 218:	00000234 	andeq	r0, r0, r4, lsr r2
 21c:	007d0002 	rsbseq	r0, sp, r2
 220:	00000234 	andeq	r0, r0, r4, lsr r2
 224:	00000238 	andeq	r0, r0, r8, lsr r2
 228:	047d0002 	ldrbteq	r0, [sp], #-2
 22c:	00000238 	andeq	r0, r0, r8, lsr r2
 230:	00000360 	andeq	r0, r0, r0, ror #6
 234:	107d0002 	rsbsne	r0, sp, r2
	...
 240:	00000360 	andeq	r0, r0, r0, ror #6
 244:	00000364 	andeq	r0, r0, r4, ror #6
 248:	007d0002 	rsbseq	r0, sp, r2
 24c:	00000364 	andeq	r0, r0, r4, ror #6
 250:	000003dc 	ldrdeq	r0, [r0], -ip
 254:	087d0002 	ldmdaeq	sp!, {r1}^
	...

Disassembly of section .debug_str:

00000000 <.debug_str>:
   0:	69616d6b 	stmdbvs	r1!, {r0, r1, r3, r5, r6, r8, sl, fp, sp, lr}^
   4:	4e47006e 	cdpmi	0, 4, cr0, cr7, cr14, {3}
   8:	20432055 	subcs	r2, r3, r5, asr r0
   c:	2e372e34 	mrccs	14, 1, r2, cr7, cr4, {1}
  10:	682f0031 	stmdavs	pc!, {r0, r4, r5}	; <UNPREDICTABLE>
  14:	2f656d6f 	svccs	0x00656d6f
  18:	746e616b 	strbtvc	r6, [lr], #-363	; 0x16b
  1c:	656e696f 	strbvs	r6, [lr, #-2415]!	; 0x96f
  20:	636f442f 	cmnvs	pc, #788529152	; 0x2f000000
  24:	6e656d75 	mcrvs	13, 3, r6, cr5, cr5, {3}
  28:	6f2f7374 	svcvs	0x002f7374
  2c:	65697073 	strbvs	r7, [r9, #-115]!	; 0x73
  30:	6174732d 	cmnvs	r4, sp, lsr #6
  34:	63007472 	movwvs	r7, #1138	; 0x472
  38:	00417470 	subeq	r7, r1, r0, ror r4
  3c:	42747063 	rsbsmi	r7, r4, #99	; 0x63
  40:	6e756600 	cdpvs	6, 7, cr6, cr5, cr0, {0}
  44:	75004163 	strvc	r4, [r0, #-355]	; 0x163
  48:	6769736e 	strbvs	r7, [r9, -lr, ror #6]!
  4c:	2064656e 	rsbcs	r6, r4, lr, ror #10
  50:	72616863 	rsbvc	r6, r1, #6488064	; 0x630000
  54:	6e756600 	cdpvs	6, 7, cr6, cr5, cr0, {0}
  58:	73004263 	movwvc	r4, #611	; 0x263
  5c:	74726174 	ldrbtvc	r6, [r2], #-372	; 0x174
  60:	6863735f 	stmdavs	r3!, {r0, r1, r2, r3, r4, r6, r8, r9, ip, sp, lr}^
  64:	73006465 	movwvc	r6, #1125	; 0x465
  68:	74726f68 	ldrbtvc	r6, [r2], #-3944	; 0xf68
  6c:	736e7520 	cmnvc	lr, #134217728	; 0x8000000
  70:	656e6769 	strbvs	r6, [lr, #-1897]!	; 0x769
  74:	6e692064 	cdpvs	0, 6, cr2, cr9, cr4, {3}
  78:	656b0074 	strbvs	r0, [fp, #-116]!	; 0x74
  7c:	6c656e72 	stclvs	14, cr6, [r5], #-456	; 0xfffffe38
  80:	7000632e 	andvc	r6, r0, lr, lsr #6
  84:	6c417968 	mcrrvs	9, 6, r7, r1, cr8
  88:	2e636f6c 	cdpcs	15, 6, cr6, cr3, cr12, {3}
  8c:	72700063 	rsbsvc	r0, r0, #99	; 0x63
  90:	66007665 	strvs	r7, [r0], -r5, ror #12
  94:	6c656572 	cfstr64vs	mvdx6, [r5], #-456	; 0xfffffe38
  98:	00747369 	rsbseq	r7, r4, r9, ror #6
  9c:	41796870 	cmnmi	r9, r0, ror r8
  a0:	636f6c6c 	cmnvs	pc, #27648	; 0x6c00
  a4:	6572665f 	ldrbvs	r6, [r2, #-1631]!	; 0x65f
  a8:	65680065 	strbvs	r0, [r8, #-101]!	; 0x65
  ac:	735f7061 	cmpvc	pc, #97	; 0x61
  b0:	74726174 	ldrbtvc	r6, [r2], #-372	; 0x174
  b4:	78656e00 	stmdavc	r5!, {r9, sl, fp, sp, lr}^
  b8:	68700074 	ldmdavs	r0!, {r2, r4, r5, r6}^
  bc:	6c6c4179 	stfvse	f4, [ip], #-484	; 0xfffffe1c
  c0:	615f636f 	cmpvs	pc, pc, ror #6
  c4:	636f6c6c 	cmnvs	pc, #27648	; 0x6c00
  c8:	79687000 	stmdbvc	r8!, {ip, sp, lr}^
  cc:	6f6c6c41 	svcvs	0x006c6c41
  d0:	6e695f63 	cdpvs	15, 6, cr5, cr9, cr3, {3}
  d4:	68007469 	stmdavs	r0, {r0, r3, r5, r6, sl, ip, sp, lr}
  d8:	5f706165 	svcpl	0x00706165
  dc:	696d696c 	stmdbvs	sp!, {r2, r3, r5, r6, r8, fp, sp, lr}^
  e0:	65680074 	strbvs	r0, [r8, #-116]!	; 0x74
  e4:	735f7061 	cmpvc	pc, #97	; 0x61
  e8:	00657a69 	rsbeq	r7, r5, r9, ror #20
  ec:	74696e69 	strbtvc	r6, [r9], #-3689	; 0xe69
  f0:	0077685f 	rsbseq	r6, r7, pc, asr r8
  f4:	632e7768 	teqvs	lr, #27262976	; 0x1a00000
  f8:	64656c00 	strbtvs	r6, [r5], #-3072	; 0xc00
  fc:	006e6f5f 	rsbeq	r6, lr, pc, asr pc
 100:	5f746573 	svcpl	0x00746573
 104:	6b636974 	blvs	18da6dc <__bss_end+0x18d1de0>
 108:	646e615f 	strbtvs	r6, [lr], #-351	; 0x15f
 10c:	616e655f 	cmnvs	lr, pc, asr r5
 110:	5f656c62 	svcpl	0x00656c62
 114:	656d6974 	strbvs	r6, [sp, #-2420]!	; 0x974
 118:	656c0072 	strbvs	r0, [ip, #-114]!	; 0x72
 11c:	666f5f64 	strbtvs	r5, [pc], -r4, ror #30
 120:	69750066 	ldmdbvs	r5!, {r1, r2, r5, r6}^
 124:	3233746e 	eorscc	r7, r3, #1845493760	; 0x6e000000
 128:	696e6900 	stmdbvs	lr!, {r8, fp, sp, lr}^
 12c:	63705f74 	cmnvs	r0, #464	; 0x1d0
 130:	43410062 	movtmi	r0, #4194	; 0x1062
 134:	45564954 	ldrbmi	r4, [r6, #-2388]	; 0x954
 138:	62637000 	rsbvs	r7, r3, #0
 13c:	69616d5f 	stmdbvs	r1!, {r0, r1, r2, r3, r4, r6, r8, sl, fp, sp, lr}^
 140:	6574006e 	ldrbvs	r0, [r4, #-110]!	; 0x6e
 144:	6e696d72 	mcrvs	13, 3, r6, cr9, cr2, {3}
 148:	64657461 	strbtvs	r7, [r5], #-1121	; 0x461
 14c:	6f72705f 	svcvs	0x0072705f
 150:	73736563 	cmnvc	r3, #415236096	; 0x18c00000
 154:	68637300 	stmdavs	r3!, {r8, r9, ip, sp, lr}^
 158:	632e6465 	teqvs	lr, #1694498816	; 0x65000000
 15c:	4d4f5a00 	vstrmi	s11, [pc, #-0]	; 164 <_start-0x7e9c>
 160:	00454942 	subeq	r4, r5, r2, asr #18
 164:	44414552 	strbmi	r4, [r1], #-1362	; 0x552
 168:	72630059 	rsbvc	r0, r3, #89	; 0x59
 16c:	65746165 	ldrbvs	r6, [r4, #-357]!	; 0x165
 170:	6f72705f 	svcvs	0x0072705f
 174:	73736563 	cmnvc	r3, #415236096	; 0x18c00000
 178:	52455400 	subpl	r5, r5, #0
 17c:	414e494d 	cmpmi	lr, sp, asr #18
 180:	00444554 	subeq	r4, r4, r4, asr r5
 184:	63617473 	cmnvs	r1, #1929379840	; 0x73000000
 188:	69735f6b 	ldmdbvs	r3!, {r0, r1, r3, r5, r6, r8, r9, sl, fp, ip, lr}^
 18c:	5000657a 	andpl	r6, r0, sl, ror r5
 190:	65636f72 	strbvs	r6, [r3, #-3954]!	; 0xf72
 194:	735f7373 	cmpvc	pc, #-872415231	; 0xcc000001
 198:	65746174 	ldrbvs	r6, [r4, #-372]!	; 0x174
 19c:	78746300 	ldmdavc	r4!, {r8, r9, sp, lr}^
 1a0:	7000735f 	andvc	r7, r0, pc, asr r3
 1a4:	735f6263 	cmpvc	pc, #805306374	; 0x30000006
 1a8:	78746300 	ldmdavc	r4!, {r8, r9, sp, lr}^
 1ac:	6977735f 	ldmdbvs	r7!, {r0, r1, r2, r3, r4, r6, r8, r9, ip, sp, lr}^
 1b0:	00686374 	rsbeq	r6, r8, r4, ror r3
 1b4:	72727563 	rsbsvc	r7, r2, #415236096	; 0x18c00000
 1b8:	5f746e65 	svcpl	0x00746e65
 1bc:	00787463 	rsbseq	r7, r8, r3, ror #8
 1c0:	72617473 	rsbvc	r7, r1, #1929379840	; 0x73000000
 1c4:	75635f74 	strbvc	r5, [r3, #-3956]!	; 0xf74
 1c8:	6e657272 	mcrvs	2, 3, r7, cr5, cr2, {3}
 1cc:	72705f74 	rsbsvc	r5, r0, #464	; 0x1d0
 1d0:	7365636f 	cmnvc	r5, #-1140850687	; 0xbc000001
 1d4:	63700073 	cmnvs	r0, #115	; 0x73
 1d8:	65685f62 	strbvs	r5, [r8, #-3938]!	; 0xf62
 1dc:	53006461 	movwpl	r6, #1121	; 0x461
 1e0:	50504f54 	subspl	r4, r0, r4, asr pc
 1e4:	57004445 	strpl	r4, [r0, -r5, asr #8]
 1e8:	49544941 	ldmdbmi	r4, {r0, r6, r8, fp, lr}^
 1ec:	6500474e 	strvs	r4, [r0, #-1870]	; 0x74e
 1f0:	7463656c 	strbtvc	r6, [r3], #-1388	; 0x56c
 1f4:	6e756600 	cdpvs	6, 7, cr6, cr5, cr0, {0}
 1f8:	00745f63 	rsbseq	r5, r4, r3, ror #30
 1fc:	5f787463 	svcpl	0x00787463
 200:	74697773 	strbtvc	r7, [r9], #-1907	; 0x773
 204:	665f6863 	ldrbvs	r6, [pc], -r3, ror #16
 208:	5f6d6f72 	svcpl	0x006d6f72
 20c:	00717269 	rsbseq	r7, r1, r9, ror #4
 210:	73677261 	cmnvc	r7, #268435462	; 0x10000006
 214:	62637000 	rsbvs	r7, r3, #0
 218:	6961745f 	stmdbvs	r1!, {r0, r1, r2, r3, r4, r6, sl, ip, sp, lr}^
 21c:	6e69006c 	cdpvs	0, 6, cr0, cr9, cr12, {3}
 220:	635f7469 	cmpvs	pc, #1761607680	; 0x69000000
 224:	Address 0x0000000000000224 is out of bounds.


Disassembly of section .debug_frame:

00000000 <.debug_frame>:
   0:	0000000c 	andeq	r0, r0, ip
   4:	ffffffff 			; <UNDEFINED> instruction: 0xffffffff
   8:	7c020001 	stcvc	0, cr0, [r2], {1}
   c:	000d0c0e 	andeq	r0, sp, lr, lsl #24
  10:	00000010 	andeq	r0, r0, r0, lsl r0
  14:	00000000 	andeq	r0, r0, r0
  18:	000080d0 	ldrdeq	r8, [r0], -r0
  1c:	0000001c 	andeq	r0, r0, ip, lsl r0
  20:	00080e42 	andeq	r0, r8, r2, asr #28
  24:	00000010 	andeq	r0, r0, r0, lsl r0
  28:	00000000 	andeq	r0, r0, r0
  2c:	000080ec 	andeq	r8, r0, ip, ror #1
  30:	0000001c 	andeq	r0, r0, ip, lsl r0
  34:	00080e42 	andeq	r0, r8, r2, asr #28
  38:	00000014 	andeq	r0, r0, r4, lsl r0
  3c:	00000000 	andeq	r0, r0, r0
  40:	00008108 	andeq	r8, r0, r8, lsl #2
  44:	00000038 	andeq	r0, r0, r8, lsr r0
  48:	83080e42 	movwhi	r0, #36418	; 0x8e42
  4c:	00018e02 	andeq	r8, r1, r2, lsl #28
  50:	0000000c 	andeq	r0, r0, ip
  54:	ffffffff 			; <UNDEFINED> instruction: 0xffffffff
  58:	7c020001 	stcvc	0, cr0, [r2], {1}
  5c:	000d0c0e 	andeq	r0, sp, lr, lsl #24
  60:	00000018 	andeq	r0, r0, r8, lsl r0
  64:	00000050 	andeq	r0, r0, r0, asr r0
  68:	00008140 	andeq	r8, r0, r0, asr #2
  6c:	000000b4 	strheq	r0, [r0], -r4
  70:	84080e42 	strhi	r0, [r8], #-3650	; 0xe42
  74:	42018502 	andmi	r8, r1, #8388608	; 0x800000
  78:	0000100e 	andeq	r1, r0, lr
  7c:	00000014 	andeq	r0, r0, r4, lsl r0
  80:	00000050 	andeq	r0, r0, r0, asr r0
  84:	000081f4 	strdeq	r8, [r0], -r4
  88:	00000048 	andeq	r0, r0, r8, asr #32
  8c:	84040e42 	strhi	r0, [r4], #-3650	; 0xe42
  90:	100e4201 	andne	r4, lr, r1, lsl #4
  94:	00000010 	andeq	r0, r0, r0, lsl r0
  98:	00000050 	andeq	r0, r0, r0, asr r0
  9c:	0000823c 	andeq	r8, r0, ip, lsr r2
  a0:	0000003c 	andeq	r0, r0, ip, lsr r0
  a4:	00080e42 	andeq	r0, r8, r2, asr #28
  a8:	0000000c 	andeq	r0, r0, ip
  ac:	ffffffff 			; <UNDEFINED> instruction: 0xffffffff
  b0:	7c020001 	stcvc	0, cr0, [r2], {1}
  b4:	000d0c0e 	andeq	r0, sp, lr, lsl #24
  b8:	00000014 	andeq	r0, r0, r4, lsl r0
  bc:	000000a8 	andeq	r0, r0, r8, lsr #1
  c0:	00008278 	andeq	r8, r0, r8, ror r2
  c4:	0000004c 	andeq	r0, r0, ip, asr #32
  c8:	8e040e42 	cdphi	14, 0, cr0, cr4, cr2, {2}
  cc:	100e4201 	andne	r4, lr, r1, lsl #4
  d0:	00000014 	andeq	r0, r0, r4, lsl r0
  d4:	000000a8 	andeq	r0, r0, r8, lsr #1
  d8:	000082c4 	andeq	r8, r0, r4, asr #5
  dc:	00000018 	andeq	r0, r0, r8, lsl r0
  e0:	83080e42 	movwhi	r0, #36418	; 0x8e42
  e4:	00018e02 	andeq	r8, r1, r2, lsl #28
  e8:	00000014 	andeq	r0, r0, r4, lsl r0
  ec:	000000a8 	andeq	r0, r0, r8, lsr #1
  f0:	000082dc 	ldrdeq	r8, [r0], -ip
  f4:	00000018 	andeq	r0, r0, r8, lsl r0
  f8:	83080e42 	movwhi	r0, #36418	; 0x8e42
  fc:	00018e02 	andeq	r8, r1, r2, lsl #28
 100:	00000014 	andeq	r0, r0, r4, lsl r0
 104:	000000a8 	andeq	r0, r0, r8, lsr #1
 108:	000082f4 	strdeq	r8, [r0], -r4
 10c:	000000c0 	andeq	r0, r0, r0, asr #1
 110:	8e040e42 	cdphi	14, 0, cr0, cr4, cr2, {2}
 114:	100e4201 	andne	r4, lr, r1, lsl #4
 118:	0000000c 	andeq	r0, r0, ip
 11c:	ffffffff 			; <UNDEFINED> instruction: 0xffffffff
 120:	7c020001 	stcvc	0, cr0, [r2], {1}
 124:	000d0c0e 	andeq	r0, sp, lr, lsl #24
 128:	00000014 	andeq	r0, r0, r4, lsl r0
 12c:	00000118 	andeq	r0, r0, r8, lsl r1
 130:	000083b4 			; <UNDEFINED> instruction: 0x000083b4
 134:	000000b8 	strheq	r0, [r0], -r8
 138:	8e040e42 	cdphi	14, 0, cr0, cr4, cr2, {2}
 13c:	180e4201 	stmdane	lr, {r0, r9, lr}
 140:	00000014 	andeq	r0, r0, r4, lsl r0
 144:	00000118 	andeq	r0, r0, r8, lsl r1
 148:	0000846c 	andeq	r8, r0, ip, ror #8
 14c:	00000064 	andeq	r0, r0, r4, rrx
 150:	8e040e42 	cdphi	14, 0, cr0, cr4, cr2, {2}
 154:	180e4201 	stmdane	lr, {r0, r9, lr}
 158:	00000014 	andeq	r0, r0, r4, lsl r0
 15c:	00000118 	andeq	r0, r0, r8, lsl r1
 160:	000084d0 	ldrdeq	r8, [r0], -r0
 164:	000000e4 	andeq	r0, r0, r4, ror #1
 168:	8e040e42 	cdphi	14, 0, cr0, cr4, cr2, {2}
 16c:	200e4201 	andcs	r4, lr, r1, lsl #4
 170:	00000014 	andeq	r0, r0, r4, lsl r0
 174:	00000118 	andeq	r0, r0, r8, lsl r1
 178:	000085b4 			; <UNDEFINED> instruction: 0x000085b4
 17c:	00000030 	andeq	r0, r0, r0, lsr r0
 180:	83080e42 	movwhi	r0, #36418	; 0x8e42
 184:	00018e02 	andeq	r8, r1, r2, lsl #28
 188:	00000014 	andeq	r0, r0, r4, lsl r0
 18c:	00000118 	andeq	r0, r0, r8, lsl r1
 190:	000085e4 	andeq	r8, r0, r4, ror #11
 194:	00000130 	andeq	r0, r0, r0, lsr r1
 198:	8e040e42 	cdphi	14, 0, cr0, cr4, cr2, {2}
 19c:	100e4201 	andne	r4, lr, r1, lsl #4
 1a0:	00000014 	andeq	r0, r0, r4, lsl r0
 1a4:	00000118 	andeq	r0, r0, r8, lsl r1
 1a8:	00008714 	andeq	r8, r0, r4, lsl r7
 1ac:	0000007c 	andeq	r0, r0, ip, ror r0
 1b0:	83080e42 	movwhi	r0, #36418	; 0x8e42
 1b4:	00018e02 	andeq	r8, r1, r2, lsl #28
 1b8:	0000000c 	andeq	r0, r0, ip
 1bc:	00000118 	andeq	r0, r0, r8, lsl r1
 1c0:	00008790 	muleq	r0, r0, r7
 1c4:	00000090 	muleq	r0, r0, r0
 1c8:	0000000c 	andeq	r0, r0, ip
 1cc:	00000118 	andeq	r0, r0, r8, lsl r1
 1d0:	00008820 	andeq	r8, r0, r0, lsr #16
 1d4:	000000bc 	strheq	r0, [r0], -ip
